 CourseworkBase2020

 Timestamp is 62712edb (Tue May  3 14:32:11 2022)

 Preferred load address is 00400000

 Start         Length     Name                   Class
 0001:00000000 00007c90H .text$di                CODE
 0001:00007c90 00049030H .text$mn                CODE
 0001:00050cc0 00005910H .text$x                 CODE
 0001:000565d0 00001012H .text$yd                CODE
 0002:00000000 00000104H .CRT$XCA                DATA
 0002:00000104 00000104H .CRT$XCAA               DATA
 0002:00000208 00000104H .CRT$XCL                DATA
 0002:0000030c 00000104H .CRT$XCZ                DATA
 0002:00000410 00000104H .CRT$XIA                DATA
 0002:00000514 00000104H .CRT$XIAA               DATA
 0002:00000618 00000104H .CRT$XIAC               DATA
 0002:0000071c 00000104H .CRT$XIZ                DATA
 0002:00000820 00000104H .CRT$XPA                DATA
 0002:00000924 00000104H .CRT$XPZ                DATA
 0002:00000a28 00000104H .CRT$XTA                DATA
 0002:00000b2c 00000104H .CRT$XTZ                DATA
 0002:00000c30 0000eb90H .rdata                  DATA
 0002:0000f7c0 00000104H .rdata$CastGuardVftablesA DATA
 0002:0000f8c4 00000104H .rdata$CastGuardVftablesC DATA
 0002:0000f9c8 000023a8H .rdata$r                DATA
 0002:00011d70 000005b4H .rdata$sxdata           DATA
 0002:00012324 000001bcH .rdata$zzzdbg           DATA
 0002:000124e0 00000104H .rtc$IAA                DATA
 0002:000125e4 00000104H .rtc$IZZ                DATA
 0002:000126e8 00000104H .rtc$TAA                DATA
 0002:000127ec 00000104H .rtc$TZZ                DATA
 0002:000128f0 0000416cH .xdata$x                DATA
 0002:00016a5c 00000000H .edata                  DATA
 0003:00000000 00000138H .data                   DATA
 0003:00000138 000004f0H .data$r                 DATA
 0003:00000628 000010a0H .data$rs                DATA
 0003:000016c8 00000460H .bss                    DATA
 0004:00000000 00000518H .idata$5                DATA
 0004:00000518 0000008cH .idata$2                DATA
 0004:000005a4 00000014H .idata$3                DATA
 0004:000005b8 00000518H .idata$4                DATA
 0004:00000ad0 00001f88H .idata$6                DATA
 0005:00000000 00000109H .00cfg                  DATA
 0006:00000000 00000170H .rsrc$01                DATA
 0006:00000170 000002ccH .rsrc$02                DATA

  Address         Publics by Value              Rva+Base       Lib:Object

 0000:00000000       ___guard_eh_cont_count     00000000     <absolute>
 0000:00000000       ___guard_eh_cont_table     00000000     <absolute>
 0000:00000000       ___guard_iat_table         00000000     <absolute>
 0000:00000000       ___guard_iat_count         00000000     <absolute>
 0000:00000000       ___x64_code_ranges_to_entry_points_count 00000000     <absolute>
 0000:00000000       ___hybrid_auxiliary_iat    00000000     <absolute>
 0000:00000000       ___hybrid_code_map         00000000     <absolute>
 0000:00000000       ___dynamic_value_reloc_table 00000000     <absolute>
 0000:00000000       ___arm64x_redirection_metadata 00000000     <absolute>
 0000:00000000       ___arm64x_native_entrypoint 00000000     <absolute>
 0000:00000000       ___arm64x_extra_rfe_table  00000000     <absolute>
 0000:00000000       ___volatile_metadata       00000000     <absolute>
 0000:00000000       ___hybrid_code_map_count   00000000     <absolute>
 0000:00000000       ___arm64x_redirection_metadata_count 00000000     <absolute>
 0000:00000000       ___guard_check_icall_a64n_fptr 00000000     <absolute>
 0000:00000000       ___hybrid_auxiliary_iat_copy 00000000     <absolute>
 0000:00000000       ___guard_fids_table        00000000     <absolute>
 0000:00000000       ___guard_longjmp_table     00000000     <absolute>
 0000:00000000       ___guard_fids_count        00000000     <absolute>
 0000:00000000       ___x64_code_ranges_to_entry_points 00000000     <absolute>
 0000:00000000       ___arm64x_extra_rfe_table_size 00000000     <absolute>
 0000:00000000       ___guard_longjmp_count     00000000     <absolute>
 0000:00000000       ___enclave_config          00000000     <absolute>
 0000:00000000       ___AbsoluteZero            00000000     <absolute>
 0000:000000fb       ___safe_se_handler_count   000000fb     <absolute>
 0000:00000100       ___guard_flags             00000100     <absolute>
 0000:00000000       ___ImageBase               00400000     <linker-defined>
 0001:00007c90       ?changePixelColour@ImagePixelMapping@@UAE_NHHAAHPAVDrawingSurface@@@Z 00408c90 f i CW2Creature.obj
 0001:00007cb0       ?mapCoordinates@CroppedImagePixelMapping@@UAE_NAAN0ABVSimpleImage@@@Z 00408cb0 f i CW2Creature.obj
 0001:00007d50       ??0Player@@QAE@HHPAVBaseEngine@@HHPAVCW2Wand@@HHV?$shared_ptr@VCW2TileManager@@@std@@HH@Z 00408d50 f   CW2Creature.obj
 0001:000080b0       ??1Player@@UAE@XZ          004090b0 f   CW2Creature.obj
 0001:00008170       ?virtDraw@Player@@UAEXXZ   00409170 f   CW2Creature.obj
 0001:00008200       ?virtDoUpdate@Player@@UAEXH@Z 00409200 f   CW2Creature.obj
 0001:000084e0       ?virtDie@Player@@UAEXXZ    004094e0 f   CW2Creature.obj
 0001:00008510       ?useMagic@Player@@QAEXXZ   00409510 f   CW2Creature.obj
 0001:00008540       ?getState@Player@@UAE?AV?$vector@V?$basic_string@DU?$char_traits@D@std@@V?$allocator@D@2@@std@@V?$allocator@V?$basic_string@DU?$char_traits@D@std@@V?$allocator@D@2@@std@@@2@@std@@XZ 00409540 f   CW2Creature.obj
 0001:00008700       ??0Monster@@QAE@HHPAVBaseEngine@@HHV?$shared_ptr@VCW2TileManager@@@std@@HHHHH@Z 00409700 f   CW2Creature.obj
 0001:00008830       ??1Monster@@UAE@XZ         00409830 f   CW2Creature.obj
 0001:000088f0       ?virtDraw@Monster@@UAEXXZ  004098f0 f   CW2Creature.obj
 0001:00008980       ?virtDoUpdate@Monster@@UAEXH@Z 00409980 f   CW2Creature.obj
 0001:000089e0       ?virtDie@Monster@@UAEXXZ   004099e0 f   CW2Creature.obj
 0001:00008a30       ?checkCollisions@Monster@@QAEXPAVCW2Creature@@@Z 00409a30 f   CW2Creature.obj
 0001:00008b00       ??0AggressiveMonster@@QAE@HHPAVBaseEngine@@HHV?$shared_ptr@VCW2TileManager@@@std@@HHHHH@Z 00409b00 f   CW2Creature.obj
 0001:00008df0       ??1AggressiveMonster@@UAE@XZ 00409df0 f   CW2Creature.obj
 0001:00008e70       ?Move@AggressiveMonster@@UAEXXZ 00409e70 f   CW2Creature.obj
 0001:00008f80       ?getState@AggressiveMonster@@UAE?AV?$vector@V?$basic_string@DU?$char_traits@D@std@@V?$allocator@D@2@@std@@V?$allocator@V?$basic_string@DU?$char_traits@D@std@@V?$allocator@D@2@@std@@@2@@std@@XZ 00409f80 f   CW2Creature.obj
 0001:00009190       ??0PeacefulMonster@@QAE@HHPAVBaseEngine@@HHV?$shared_ptr@VCW2TileManager@@@std@@HHHHH@Z 0040a190 f   CW2Creature.obj
 0001:000094a0       ??1PeacefulMonster@@UAE@XZ 0040a4a0 f   CW2Creature.obj
 0001:00009520       ?Move@PeacefulMonster@@UAEXXZ 0040a520 f   CW2Creature.obj
 0001:00009930       ?getState@PeacefulMonster@@UAE?AV?$vector@V?$basic_string@DU?$char_traits@D@std@@V?$allocator@D@2@@std@@V?$allocator@V?$basic_string@DU?$char_traits@D@std@@V?$allocator@D@2@@std@@@2@@std@@XZ 0040a930 f   CW2Creature.obj
 0001:00009b40       ??0NomalMonster@@QAE@HHPAVBaseEngine@@HHV?$shared_ptr@VCW2TileManager@@@std@@HHHHH@Z 0040ab40 f   CW2Creature.obj
 0001:00009e30       ??1NomalMonster@@UAE@XZ    0040ae30 f   CW2Creature.obj
 0001:00009eb0       ?Move@NomalMonster@@UAEXXZ 0040aeb0 f   CW2Creature.obj
 0001:0000a050       ?getState@NomalMonster@@UAE?AV?$vector@V?$basic_string@DU?$char_traits@D@std@@V?$allocator@D@2@@std@@V?$allocator@V?$basic_string@DU?$char_traits@D@std@@V?$allocator@D@2@@std@@@2@@std@@XZ 0040b050 f   CW2Creature.obj
 0001:0000aba0       ??$?0$$V@?$_Compressed_pair@V?$allocator@D@std@@V?$_String_val@U?$_Simple_types@D@std@@@2@$00@std@@QAE@U_Zero_then_variadic_args_t@1@@Z 0040bba0 f i CW2Creature.obj
 0001:0000abd0       ??$?0$$V@?$_Compressed_pair@V?$allocator@U?$_Tree_node@U?$pair@$$CBV?$basic_string@DU?$char_traits@D@std@@V?$allocator@D@2@@std@@V?$shared_ptr@VRawImageData@@@2@@std@@PAX@std@@@std@@V?$_Tree_val@U?$_Tree_simple_types@U?$pair@$$CBV?$basic_string@DU?$char_traits@D@std@@V?$allocator@D@2@@std@@V?$shared_ptr@VRawImageData@@@2@@std@@@std@@@2@$00@std@@QAE@U_Zero_then_variadic_args_t@1@@Z 0040bbd0 f i CW2Creature.obj
 0001:0000ac00       ??$?0$$V@?$_Compressed_pair@V?$allocator@U?$_Tree_node@U?$pair@$$CBV?$basic_string@DU?$char_traits@D@std@@V?$allocator@D@2@@std@@V?$weak_ptr@VRawImageData@@@2@@std@@PAX@std@@@std@@V?$_Tree_val@U?$_Tree_simple_types@U?$pair@$$CBV?$basic_string@DU?$char_traits@D@std@@V?$allocator@D@2@@std@@V?$weak_ptr@VRawImageData@@@2@@std@@@std@@@2@$00@std@@QAE@U_Zero_then_variadic_args_t@1@@Z 0040bc00 f i CW2Creature.obj
 0001:0000ac30       ??$?0$$V@?$_Compressed_pair@V?$allocator@V?$basic_string@DU?$char_traits@D@std@@V?$allocator@D@2@@std@@@std@@V?$_Vector_val@U?$_Simple_types@V?$basic_string@DU?$char_traits@D@std@@V?$allocator@D@2@@std@@@std@@@2@$00@std@@QAE@U_Zero_then_variadic_args_t@1@@Z 0040bc30 f i CW2Creature.obj
 0001:0000ac60       ??$?0$$V@?$_Compressed_pair@V?$allocator@VCW2ImagePixelMapping@@@std@@V?$_Vector_val@U?$_Simple_types@VCW2ImagePixelMapping@@@std@@@2@$00@std@@QAE@U_Zero_then_variadic_args_t@1@@Z 0040bc60 f i CW2Creature.obj
 0001:0000ac90       ??$?0AAPAU?$_Tree_node@U?$pair@$$CBV?$basic_string@DU?$char_traits@D@std@@V?$allocator@D@2@@std@@V?$shared_ptr@VRawImageData@@@2@@std@@PAX@std@@_N$0A@@?$pair@PAU?$_Tree_node@U?$pair@$$CBV?$basic_string@DU?$char_traits@D@std@@V?$allocator@D@2@@std@@V?$shared_ptr@VRawImageData@@@2@@std@@PAX@std@@_N@std@@QAE@AAPAU?$_Tree_node@U?$pair@$$CBV?$basic_string@DU?$char_traits@D@std@@V?$allocator@D@2@@std@@V?$shared_ptr@VRawImageData@@@2@@std@@PAX@1@$$QA_N@Z 0040bc90 f i CW2Creature.obj
 0001:0000ace0       ??$?0AAPAU?$_Tree_node@U?$pair@$$CBV?$basic_string@DU?$char_traits@D@std@@V?$allocator@D@2@@std@@V?$weak_ptr@VRawImageData@@@2@@std@@PAX@std@@_N$0A@@?$pair@PAU?$_Tree_node@U?$pair@$$CBV?$basic_string@DU?$char_traits@D@std@@V?$allocator@D@2@@std@@V?$weak_ptr@VRawImageData@@@2@@std@@PAX@std@@_N@std@@QAE@AAPAU?$_Tree_node@U?$pair@$$CBV?$basic_string@DU?$char_traits@D@std@@V?$allocator@D@2@@std@@V?$weak_ptr@VRawImageData@@@2@@std@@PAX@1@$$QA_N@Z 0040bce0 f i CW2Creature.obj
 0001:0000ad30       ??$?0AAV?$basic_string@DU?$char_traits@D@std@@V?$allocator@D@2@@std@@AAV?$shared_ptr@VRawImageData@@@1@$0A@@?$pair@V?$basic_string@DU?$char_traits@D@std@@V?$allocator@D@2@@std@@V?$shared_ptr@VRawImageData@@@2@@std@@QAE@AAV?$basic_string@DU?$char_traits@D@std@@V?$allocator@D@2@@1@AAV?$shared_ptr@VRawImageData@@@1@@Z 0040bd30 f i CW2Creature.obj
 0001:0000ad80       ??$?0AAV?$basic_string@DU?$char_traits@D@std@@V?$allocator@D@2@@std@@AAV?$weak_ptr@VRawImageData@@@1@$0A@@?$pair@V?$basic_string@DU?$char_traits@D@std@@V?$allocator@D@2@@std@@V?$weak_ptr@VRawImageData@@@2@@std@@QAE@AAV?$basic_string@DU?$char_traits@D@std@@V?$allocator@D@2@@1@AAV?$weak_ptr@VRawImageData@@@1@@Z 0040bd80 f i CW2Creature.obj
 0001:0000add0       ??$?0ABU?$less@V?$basic_string@DU?$char_traits@D@std@@V?$allocator@D@2@@std@@@std@@U_Zero_then_variadic_args_t@1@@?$_Compressed_pair@U?$less@V?$basic_string@DU?$char_traits@D@std@@V?$allocator@D@2@@std@@@std@@V?$_Compressed_pair@V?$allocator@U?$_Tree_node@U?$pair@$$CBV?$basic_string@DU?$char_traits@D@std@@V?$allocator@D@2@@std@@V?$shared_ptr@VRawImageData@@@2@@std@@PAX@std@@@std@@V?$_Tree_val@U?$_Tree_simple_types@U?$pair@$$CBV?$basic_string@DU?$char_traits@D@std@@V?$allocator@D@2@@std@@V?$shared_ptr@VRawImageData@@@2@@std@@@std@@@2@$00@2@$00@std@@QAE@U_One_then_variadic_args_t@1@ABU?$less@V?$basic_string@DU?$char_traits@D@std@@V?$allocator@D@2@@std@@@1@$$QAU_Zero_then_variadic_args_t@1@@Z 0040bdd0 f i CW2Creature.obj
 0001:0000ae20       ??$?0ABU?$less@V?$basic_string@DU?$char_traits@D@std@@V?$allocator@D@2@@std@@@std@@U_Zero_then_variadic_args_t@1@@?$_Compressed_pair@U?$less@V?$basic_string@DU?$char_traits@D@std@@V?$allocator@D@2@@std@@@std@@V?$_Compressed_pair@V?$allocator@U?$_Tree_node@U?$pair@$$CBV?$basic_string@DU?$char_traits@D@std@@V?$allocator@D@2@@std@@V?$weak_ptr@VRawImageData@@@2@@std@@PAX@std@@@std@@V?$_Tree_val@U?$_Tree_simple_types@U?$pair@$$CBV?$basic_string@DU?$char_traits@D@std@@V?$allocator@D@2@@std@@V?$weak_ptr@VRawImageData@@@2@@std@@@std@@@2@$00@2@$00@std@@QAE@U_One_then_variadic_args_t@1@ABU?$less@V?$basic_string@DU?$char_traits@D@std@@V?$allocator@D@2@@std@@@1@$$QAU_Zero_then_variadic_args_t@1@@Z 0040be20 f i CW2Creature.obj
 0001:0000ae70       ??$?0ABV?$allocator@D@std@@$$V@?$_Compressed_pair@V?$allocator@D@std@@V?$_String_val@U?$_Simple_types@D@std@@@2@$00@std@@QAE@U_One_then_variadic_args_t@1@ABV?$allocator@D@1@@Z 0040be70 f i CW2Creature.obj
 0001:0000aea0       ??$?0ABV?$allocator@PAVDisplayableObject@@@std@@$$V@?$_Compressed_pair@V?$allocator@PAVDisplayableObject@@@std@@V?$_Vector_val@U?$_Simple_types@PAVDisplayableObject@@@std@@@2@$00@std@@QAE@U_One_then_variadic_args_t@1@ABV?$allocator@PAVDisplayableObject@@@1@@Z 0040bea0 f i CW2Creature.obj
 0001:0000aed0       ??$?0ABV?$allocator@V?$basic_string@DU?$char_traits@D@std@@V?$allocator@D@2@@std@@@std@@$$V@?$_Compressed_pair@V?$allocator@V?$basic_string@DU?$char_traits@D@std@@V?$allocator@D@2@@std@@@std@@V?$_Vector_val@U?$_Simple_types@V?$basic_string@DU?$char_traits@D@std@@V?$allocator@D@2@@std@@@std@@@2@$00@std@@QAE@U_One_then_variadic_args_t@1@ABV?$allocator@V?$basic_string@DU?$char_traits@D@std@@V?$allocator@D@2@@std@@@1@@Z 0040bed0 f i CW2Creature.obj
 0001:0000af00       ??$?0D@?$allocator@U_Container_proxy@std@@@std@@QAE@ABV?$allocator@D@1@@Z 0040bf00 f i CW2Creature.obj
 0001:0000af20       ??$?0PAD$0A@@?$basic_string@DU?$char_traits@D@std@@V?$allocator@D@2@@std@@QAE@PAD0ABV?$allocator@D@1@@Z 0040bf20 f i CW2Creature.obj
 0001:0000b030       ??$?0PAU?$_Tree_node@U?$pair@$$CBV?$basic_string@DU?$char_traits@D@std@@V?$allocator@D@2@@std@@V?$shared_ptr@VRawImageData@@@2@@std@@PAX@std@@_N$0A@@?$pair@PAU?$_Tree_node@U?$pair@$$CBV?$basic_string@DU?$char_traits@D@std@@V?$allocator@D@2@@std@@V?$shared_ptr@VRawImageData@@@2@@std@@PAX@std@@_N@std@@QAE@$$QAPAU?$_Tree_node@U?$pair@$$CBV?$basic_string@DU?$char_traits@D@std@@V?$allocator@D@2@@std@@V?$shared_ptr@VRawImageData@@@2@@std@@PAX@1@$$QA_N@Z 0040c030 f i CW2Creature.obj
 0001:0000b080       ??$?0PAU?$_Tree_node@U?$pair@$$CBV?$basic_string@DU?$char_traits@D@std@@V?$allocator@D@2@@std@@V?$weak_ptr@VRawImageData@@@2@@std@@PAX@std@@_N$0A@@?$pair@PAU?$_Tree_node@U?$pair@$$CBV?$basic_string@DU?$char_traits@D@std@@V?$allocator@D@2@@std@@V?$weak_ptr@VRawImageData@@@2@@std@@PAX@std@@_N@std@@QAE@$$QAPAU?$_Tree_node@U?$pair@$$CBV?$basic_string@DU?$char_traits@D@std@@V?$allocator@D@2@@std@@V?$weak_ptr@VRawImageData@@@2@@std@@PAX@1@$$QA_N@Z 0040c080 f i CW2Creature.obj
 0001:0000b0d0       ??$?0PAVDisplayableObject@@@?$allocator@U_Container_proxy@std@@@std@@QAE@ABV?$allocator@PAVDisplayableObject@@@1@@Z 0040c0d0 f i CW2Creature.obj
 0001:0000b0f0       ??$?0U?$_Tree_node@U?$pair@$$CBV?$basic_string@DU?$char_traits@D@std@@V?$allocator@D@2@@std@@V?$shared_ptr@VRawImageData@@@2@@std@@PAX@std@@@?$allocator@U_Container_proxy@std@@@std@@QAE@ABV?$allocator@U?$_Tree_node@U?$pair@$$CBV?$basic_string@DU?$char_traits@D@std@@V?$allocator@D@2@@std@@V?$shared_ptr@VRawImageData@@@2@@std@@PAX@std@@@1@@Z 0040c0f0 f i CW2Creature.obj
 0001:0000b110       ??$?0U?$_Tree_node@U?$pair@$$CBV?$basic_string@DU?$char_traits@D@std@@V?$allocator@D@2@@std@@V?$weak_ptr@VRawImageData@@@2@@std@@PAX@std@@@?$allocator@U_Container_proxy@std@@@std@@QAE@ABV?$allocator@U?$_Tree_node@U?$pair@$$CBV?$basic_string@DU?$char_traits@D@std@@V?$allocator@D@2@@std@@V?$weak_ptr@VRawImageData@@@2@@std@@PAX@std@@@1@@Z 0040c110 f i CW2Creature.obj
 0001:0000b130       ??$?0U?$pair@V?$basic_string@DU?$char_traits@D@std@@V?$allocator@D@2@@std@@V?$shared_ptr@VRawImageData@@@2@@std@@@?$_Tree_temp_node@V?$allocator@U?$_Tree_node@U?$pair@$$CBV?$basic_string@DU?$char_traits@D@std@@V?$allocator@D@2@@std@@V?$shared_ptr@VRawImageData@@@2@@std@@PAX@std@@@std@@@std@@QAE@AAV?$allocator@U?$_Tree_node@U?$pair@$$CBV?$basic_string@DU?$char_traits@D@std@@V?$allocator@D@2@@std@@V?$shared_ptr@VRawImageData@@@2@@std@@PAX@std@@@1@PAU?$_Tree_node@U?$pair@$$CBV?$basic_string@DU?$char_traits@D@std@@V?$allocator@D@2@@std@@V?$shared_ptr@VRawImageData@@@2@@std@@PAX@1@$$QAU?$pair@V?$basic_string@DU?$char_traits@D@std@@V?$allocator@D@2@@std@@V?$shared_ptr@VRawImageData@@@2@@1@@Z 0040c130 f i CW2Creature.obj
 0001:0000b240       ??$?0U?$pair@V?$basic_string@DU?$char_traits@D@std@@V?$allocator@D@2@@std@@V?$weak_ptr@VRawImageData@@@2@@std@@@?$_Tree_temp_node@V?$allocator@U?$_Tree_node@U?$pair@$$CBV?$basic_string@DU?$char_traits@D@std@@V?$allocator@D@2@@std@@V?$weak_ptr@VRawImageData@@@2@@std@@PAX@std@@@std@@@std@@QAE@AAV?$allocator@U?$_Tree_node@U?$pair@$$CBV?$basic_string@DU?$char_traits@D@std@@V?$allocator@D@2@@std@@V?$weak_ptr@VRawImageData@@@2@@std@@PAX@std@@@1@PAU?$_Tree_node@U?$pair@$$CBV?$basic_string@DU?$char_traits@D@std@@V?$allocator@D@2@@std@@V?$weak_ptr@VRawImageData@@@2@@std@@PAX@1@$$QAU?$pair@V?$basic_string@DU?$char_traits@D@std@@V?$allocator@D@2@@std@@V?$weak_ptr@VRawImageData@@@2@@1@@Z 0040c240 f i CW2Creature.obj
 0001:0000b350       ??$?0V?$_Tree_iterator@V?$_Tree_val@U?$_Tree_simple_types@U?$pair@$$CBV?$basic_string@DU?$char_traits@D@std@@V?$allocator@D@2@@std@@V?$shared_ptr@VRawImageData@@@2@@std@@@std@@@std@@@std@@AB_N$0A@@?$pair@V?$_Tree_iterator@V?$_Tree_val@U?$_Tree_simple_types@U?$pair@$$CBV?$basic_string@DU?$char_traits@D@std@@V?$allocator@D@2@@std@@V?$shared_ptr@VRawImageData@@@2@@std@@@std@@@std@@@std@@_N@std@@QAE@$$QAV?$_Tree_iterator@V?$_Tree_val@U?$_Tree_simple_types@U?$pair@$$CBV?$basic_string@DU?$char_traits@D@std@@V?$allocator@D@2@@std@@V?$shared_ptr@VRawImageData@@@2@@std@@@std@@@std@@@1@AB_N@Z 0040c350 f i CW2Creature.obj
 0001:0000b3a0       ??$?0V?$_Tree_iterator@V?$_Tree_val@U?$_Tree_simple_types@U?$pair@$$CBV?$basic_string@DU?$char_traits@D@std@@V?$allocator@D@2@@std@@V?$weak_ptr@VRawImageData@@@2@@std@@@std@@@std@@@std@@AB_N$0A@@?$pair@V?$_Tree_iterator@V?$_Tree_val@U?$_Tree_simple_types@U?$pair@$$CBV?$basic_string@DU?$char_traits@D@std@@V?$allocator@D@2@@std@@V?$weak_ptr@VRawImageData@@@2@@std@@@std@@@std@@@std@@_N@std@@QAE@$$QAV?$_Tree_iterator@V?$_Tree_val@U?$_Tree_simple_types@U?$pair@$$CBV?$basic_string@DU?$char_traits@D@std@@V?$allocator@D@2@@std@@V?$weak_ptr@VRawImageData@@@2@@std@@@std@@@std@@@1@AB_N@Z 0040c3a0 f i CW2Creature.obj
 0001:0000b3f0       ??$?0V?$allocator@D@std@@$$V@?$_Compressed_pair@V?$allocator@D@std@@V?$_String_val@U?$_Simple_types@D@std@@@2@$00@std@@QAE@U_One_then_variadic_args_t@1@$$QAV?$allocator@D@1@@Z 0040c3f0 f i CW2Creature.obj
 0001:0000b420       ??$?0V?$allocator@V?$basic_string@DU?$char_traits@D@std@@V?$allocator@D@2@@std@@@std@@PAV?$basic_string@DU?$char_traits@D@std@@V?$allocator@D@2@@1@PAV21@PAV21@@?$_Compressed_pair@V?$allocator@V?$basic_string@DU?$char_traits@D@std@@V?$allocator@D@2@@std@@@std@@V?$_Vector_val@U?$_Simple_types@V?$basic_string@DU?$char_traits@D@std@@V?$allocator@D@2@@std@@@std@@@2@$00@std@@QAE@U_One_then_variadic_args_t@1@$$QAV?$allocator@V?$basic_string@DU?$char_traits@D@std@@V?$allocator@D@2@@std@@@1@$$QAPAV?$basic_string@DU?$char_traits@D@std@@V?$allocator@D@2@@1@22@Z 0040c420 f i CW2Creature.obj
 0001:0000b490       ??$?0V?$basic_string@DU?$char_traits@D@std@@V?$allocator@D@2@@std@@@?$allocator@U_Container_proxy@std@@@std@@QAE@ABV?$allocator@V?$basic_string@DU?$char_traits@D@std@@V?$allocator@D@2@@std@@@1@@Z 0040c490 f i CW2Creature.obj
 0001:0000b4b0       ??$?0V?$basic_string@DU?$char_traits@D@std@@V?$allocator@D@2@@std@@V?$shared_ptr@VRawImageData@@@1@$0A@@?$pair@$$CBV?$basic_string@DU?$char_traits@D@std@@V?$allocator@D@2@@std@@V?$shared_ptr@VRawImageData@@@2@@std@@QAE@$$QAU?$pair@V?$basic_string@DU?$char_traits@D@std@@V?$allocator@D@2@@std@@V?$shared_ptr@VRawImageData@@@2@@1@@Z 0040c4b0 f i CW2Creature.obj
 0001:0000b500       ??$?0V?$basic_string@DU?$char_traits@D@std@@V?$allocator@D@2@@std@@V?$weak_ptr@VRawImageData@@@1@$0A@@?$pair@$$CBV?$basic_string@DU?$char_traits@D@std@@V?$allocator@D@2@@std@@V?$weak_ptr@VRawImageData@@@2@@std@@QAE@$$QAU?$pair@V?$basic_string@DU?$char_traits@D@std@@V?$allocator@D@2@@std@@V?$weak_ptr@VRawImageData@@@2@@1@@Z 0040c500 f i CW2Creature.obj
 0001:0000b550       ??$?0V?$shared_ptr@VRawImageData@@@std@@@?$_Ref_count_obj2@VCW2ImagePixelMapping@@@std@@QAE@$$QAV?$shared_ptr@VRawImageData@@@1@@Z 0040c550 f i CW2Creature.obj
 0001:0000b600       ??$?0VCW2ImagePixelMapping@@@?$allocator@U_Container_proxy@std@@@std@@QAE@ABV?$allocator@VCW2ImagePixelMapping@@@1@@Z 0040c600 f i CW2Creature.obj
 0001:0000b620       ??$?0VRawImageData@@$0A@@?$shared_ptr@VRawImageData@@@std@@QAE@PAVRawImageData@@@Z 0040c620 f i CW2Creature.obj
 0001:0000b710       ??$?0VRawImageData@@$0A@@?$weak_ptr@VRawImageData@@@std@@QAE@ABV?$shared_ptr@VRawImageData@@@1@@Z 0040c710 f i CW2Creature.obj
 0001:0000b740       ??$?0VSimpleImage@@H@?$_Ref_count_obj2@VCW2AnimatedManager@@@std@@QAE@$$QAVSimpleImage@@$$QAH@Z 0040c740 f i CW2Creature.obj
 0001:0000b800       ??$?6DU?$char_traits@D@std@@V?$allocator@D@1@@std@@YAAAV?$basic_ostream@DU?$char_traits@D@std@@@0@AAV10@ABV?$basic_string@DU?$char_traits@D@std@@V?$allocator@D@2@@0@@Z 0040c800 f i CW2Creature.obj
 0001:0000b830       ??$?6U?$char_traits@D@std@@@std@@YAAAV?$basic_ostream@DU?$char_traits@D@std@@@0@AAV10@PBD@Z 0040c830 f i CW2Creature.obj
 0001:0000bc30       ??$?8VCW2ImagePixelMapping@@V0@@std@@YA_NABV?$allocator@VCW2ImagePixelMapping@@@0@0@Z 0040cc30 f i CW2Creature.obj
 0001:0000bc40       ??$?9VRawImageData@@@std@@YA_NABV?$shared_ptr@VRawImageData@@@0@$$T@Z 0040cc40 f i CW2Creature.obj
 0001:0000bc70       ??$?CVCW2AnimatedManager@@$0A@@?$shared_ptr@VCW2AnimatedManager@@@std@@QBEPAVCW2AnimatedManager@@XZ 0040cc70 f i CW2Creature.obj
 0001:0000bc90       ??$?CVCW2ImagePixelMapping@@$0A@@?$shared_ptr@VCW2ImagePixelMapping@@@std@@QBEPAVCW2ImagePixelMapping@@XZ 0040cc90 f i CW2Creature.obj
 0001:0000bcb0       ??$?CVCW2TileManager@@$0A@@?$shared_ptr@VCW2TileManager@@@std@@QBEPAVCW2TileManager@@XZ 0040ccb0 f i CW2Creature.obj
 0001:0000bcd0       ??$?CVRawImageData@@$0A@@?$shared_ptr@VRawImageData@@@std@@QBEPAVRawImageData@@XZ 0040ccd0 f i CW2Creature.obj
 0001:0000bcf0       ??$?MDU?$char_traits@D@std@@V?$allocator@D@1@@std@@YA_NABV?$basic_string@DU?$char_traits@D@std@@V?$allocator@D@2@@0@0@Z 0040ccf0 f i CW2Creature.obj
 0001:0000bd30       ??$_Adl_verify_range@PADPAD@std@@YAXABQAD0@Z 0040cd30 f i CW2Creature.obj
 0001:0000bd50       ??$_Alloc_proxy@V?$allocator@U_Container_proxy@std@@@std@@@_Container_base12@std@@QAEX$$QAV?$allocator@U_Container_proxy@std@@@1@@Z 0040cd50 f i CW2Creature.obj
 0001:0000bdb0       ??$_Allocate@$07U_Default_allocate_traits@std@@$0A@@std@@YAPAXI@Z 0040cdb0 f i CW2Creature.obj
 0001:0000bdf0       ??$_Allocate_manually_vector_aligned@U_Default_allocate_traits@std@@@std@@YAPAXI@Z 0040cdf0 f i CW2Creature.obj
 0001:0000bee0       ??$_Buyheadnode@V?$allocator@U?$_Tree_node@U?$pair@$$CBV?$basic_string@DU?$char_traits@D@std@@V?$allocator@D@2@@std@@V?$shared_ptr@VRawImageData@@@2@@std@@PAX@std@@@std@@@?$_Tree_node@U?$pair@$$CBV?$basic_string@DU?$char_traits@D@std@@V?$allocator@D@2@@std@@V?$shared_ptr@VRawImageData@@@2@@std@@PAX@std@@SAPAU01@AAV?$allocator@U?$_Tree_node@U?$pair@$$CBV?$basic_string@DU?$char_traits@D@std@@V?$allocator@D@2@@std@@V?$shared_ptr@VRawImageData@@@2@@std@@PAX@std@@@1@@Z 0040cee0 f i CW2Creature.obj
 0001:0000bf60       ??$_Buyheadnode@V?$allocator@U?$_Tree_node@U?$pair@$$CBV?$basic_string@DU?$char_traits@D@std@@V?$allocator@D@2@@std@@V?$weak_ptr@VRawImageData@@@2@@std@@PAX@std@@@std@@@?$_Tree_node@U?$pair@$$CBV?$basic_string@DU?$char_traits@D@std@@V?$allocator@D@2@@std@@V?$weak_ptr@VRawImageData@@@2@@std@@PAX@std@@SAPAU01@AAV?$allocator@U?$_Tree_node@U?$pair@$$CBV?$basic_string@DU?$char_traits@D@std@@V?$allocator@D@2@@std@@V?$weak_ptr@VRawImageData@@@2@@std@@PAX@std@@@1@@Z 0040cf60 f i CW2Creature.obj
 0001:0000bfe0       ??$_Construct_from_weak@VRawImageData@@@?$_Ptr_base@VRawImageData@@@std@@IAE_NABV?$weak_ptr@VRawImageData@@@1@@Z 0040cfe0 f i CW2Creature.obj
 0001:0000c040       ??$_Construct_in_place@PADAAPAD@std@@YAXAAPAD0@Z 0040d040 f i CW2Creature.obj
 0001:0000c090       ??$_Construct_in_place@PADABQAD@std@@YAXAAPADABQAD@Z 0040d090 f i CW2Creature.obj
 0001:0000c0e0       ??$_Construct_in_place@PAU?$_Tree_node@U?$pair@$$CBV?$basic_string@DU?$char_traits@D@std@@V?$allocator@D@2@@std@@V?$shared_ptr@VRawImageData@@@2@@std@@PAX@std@@AAPAU12@@std@@YAXAAPAU?$_Tree_node@U?$pair@$$CBV?$basic_string@DU?$char_traits@D@std@@V?$allocator@D@2@@std@@V?$shared_ptr@VRawImageData@@@2@@std@@PAX@0@0@Z 0040d0e0 f i CW2Creature.obj
 0001:0000c130       ??$_Construct_in_place@PAU?$_Tree_node@U?$pair@$$CBV?$basic_string@DU?$char_traits@D@std@@V?$allocator@D@2@@std@@V?$shared_ptr@VRawImageData@@@2@@std@@PAX@std@@ABQAU12@@std@@YAXAAPAU?$_Tree_node@U?$pair@$$CBV?$basic_string@DU?$char_traits@D@std@@V?$allocator@D@2@@std@@V?$shared_ptr@VRawImageData@@@2@@std@@PAX@0@ABQAU10@@Z 0040d130 f i CW2Creature.obj
 0001:0000c180       ??$_Construct_in_place@PAU?$_Tree_node@U?$pair@$$CBV?$basic_string@DU?$char_traits@D@std@@V?$allocator@D@2@@std@@V?$weak_ptr@VRawImageData@@@2@@std@@PAX@std@@AAPAU12@@std@@YAXAAPAU?$_Tree_node@U?$pair@$$CBV?$basic_string@DU?$char_traits@D@std@@V?$allocator@D@2@@std@@V?$weak_ptr@VRawImageData@@@2@@std@@PAX@0@0@Z 0040d180 f i CW2Creature.obj
 0001:0000c1d0       ??$_Construct_in_place@PAU?$_Tree_node@U?$pair@$$CBV?$basic_string@DU?$char_traits@D@std@@V?$allocator@D@2@@std@@V?$weak_ptr@VRawImageData@@@2@@std@@PAX@std@@ABQAU12@@std@@YAXAAPAU?$_Tree_node@U?$pair@$$CBV?$basic_string@DU?$char_traits@D@std@@V?$allocator@D@2@@std@@V?$weak_ptr@VRawImageData@@@2@@std@@PAX@0@ABQAU10@@Z 0040d1d0 f i CW2Creature.obj
 0001:0000c220       ??$_Construct_in_place@U_Container_proxy@std@@PAU_Container_base12@2@@std@@YAXAAU_Container_proxy@0@$$QAPAU_Container_base12@0@@Z 0040d220 f i CW2Creature.obj
 0001:0000c280       ??$_Construct_in_place@VCW2AnimatedManager@@VSimpleImage@@H@std@@YAXAAVCW2AnimatedManager@@$$QAVSimpleImage@@$$QAH@Z 0040d280 f i CW2Creature.obj
 0001:0000c310       ??$_Construct_in_place@VCW2ImagePixelMapping@@V?$shared_ptr@VRawImageData@@@std@@@std@@YAXAAVCW2ImagePixelMapping@@$$QAV?$shared_ptr@VRawImageData@@@0@@Z 0040d310 f i CW2Creature.obj
 0001:0000c380       ??$_Construct_n_copies_of_ty@U_Value_init_tag@std@@@?$vector@PAVDisplayableObject@@V?$allocator@PAVDisplayableObject@@@std@@@std@@AAEXIABU_Value_init_tag@1@@Z 0040d380 f i CW2Creature.obj
 0001:0000c490       ??$_Convert_size@I@std@@YAII@Z 0040d490 f i CW2Creature.obj
 0001:0000c4a0       ??$_Copy_construct_from@VCW2AnimatedManager@@@?$_Ptr_base@VCW2AnimatedManager@@@std@@IAEXABV?$shared_ptr@VCW2AnimatedManager@@@1@@Z 0040d4a0 f i CW2Creature.obj
 0001:0000c4e0       ??$_Copy_construct_from@VCW2TileManager@@@?$_Ptr_base@VCW2TileManager@@@std@@IAEXABV?$shared_ptr@VCW2TileManager@@@1@@Z 0040d4e0 f i CW2Creature.obj
 0001:0000c520       ??$_Copy_construct_from@VRawImageData@@@?$_Ptr_base@VRawImageData@@@std@@IAEXABV?$shared_ptr@VRawImageData@@@1@@Z 0040d520 f i CW2Creature.obj
 0001:0000c560       ??$_Deallocate@$07$0A@@std@@YAXPAXI@Z 0040d560 f i CW2Creature.obj
 0001:0000c5e0       ??$_Deallocate_plain@V?$allocator@U_Container_proxy@std@@@std@@@std@@YAXAAV?$allocator@U_Container_proxy@std@@@0@QAU_Container_proxy@0@@Z 0040d5e0 f i CW2Creature.obj
 0001:0000c640       ??$_Debug_lt_pred@ABU?$less@V?$basic_string@DU?$char_traits@D@std@@V?$allocator@D@2@@std@@@std@@ABV?$basic_string@DU?$char_traits@D@std@@V?$allocator@D@2@@2@ABV32@$0A@@std@@YA_NABU?$less@V?$basic_string@DU?$char_traits@D@std@@V?$allocator@D@2@@std@@@0@ABV?$basic_string@DU?$char_traits@D@std@@V?$allocator@D@2@@0@1@Z 0040d640 f i CW2Creature.obj
 0001:0000c6f0       ??$_Delete_plain_internal@V?$allocator@U_Container_proxy@std@@@std@@@std@@YAXAAV?$allocator@U_Container_proxy@std@@@0@QAU_Container_proxy@0@@Z 0040d6f0 f i CW2Creature.obj
 0001:0000c710       ??$_Destroy_in_place@PAD@std@@YAXAAPAD@Z 0040d710 f i CW2Creature.obj
 0001:0000c720       ??$_Destroy_in_place@PAU?$_Tree_node@U?$pair@$$CBV?$basic_string@DU?$char_traits@D@std@@V?$allocator@D@2@@std@@V?$shared_ptr@VRawImageData@@@2@@std@@PAX@std@@@std@@YAXAAPAU?$_Tree_node@U?$pair@$$CBV?$basic_string@DU?$char_traits@D@std@@V?$allocator@D@2@@std@@V?$shared_ptr@VRawImageData@@@2@@std@@PAX@0@@Z 0040d720 f i CW2Creature.obj
 0001:0000c730       ??$_Destroy_in_place@PAU?$_Tree_node@U?$pair@$$CBV?$basic_string@DU?$char_traits@D@std@@V?$allocator@D@2@@std@@V?$weak_ptr@VRawImageData@@@2@@std@@PAX@std@@@std@@YAXAAPAU?$_Tree_node@U?$pair@$$CBV?$basic_string@DU?$char_traits@D@std@@V?$allocator@D@2@@std@@V?$weak_ptr@VRawImageData@@@2@@std@@PAX@0@@Z 0040d730 f i CW2Creature.obj
 0001:0000c740       ??$_Destroy_in_place@VCW2AnimatedManager@@@std@@YAXAAVCW2AnimatedManager@@@Z 0040d740 f i CW2Creature.obj
 0001:0000c760       ??$_Destroy_in_place@VCW2ImagePixelMapping@@@std@@YAXAAVCW2ImagePixelMapping@@@Z 0040d760 f i CW2Creature.obj
 0001:0000c780       ??$_Destroy_range@V?$allocator@PAVDisplayableObject@@@std@@@std@@YAXPAPAVDisplayableObject@@QAPAV1@AAV?$allocator@PAVDisplayableObject@@@0@@Z 0040d780 f i CW2Creature.obj
 0001:0000c790       ??$_Destroy_range@V?$allocator@V?$basic_string@DU?$char_traits@D@std@@V?$allocator@D@2@@std@@@std@@@std@@YAXPAV?$basic_string@DU?$char_traits@D@std@@V?$allocator@D@2@@0@QAV10@AAV?$allocator@V?$basic_string@DU?$char_traits@D@std@@V?$allocator@D@2@@std@@@0@@Z 0040d790 f i CW2Creature.obj
 0001:0000c810       ??$_Destroy_range@V?$allocator@VCW2ImagePixelMapping@@@std@@@std@@YAXPAVCW2ImagePixelMapping@@QAV1@AAV?$allocator@VCW2ImagePixelMapping@@@0@@Z 0040d810 f i CW2Creature.obj
 0001:0000c890       ??$_Emplace@U?$pair@V?$basic_string@DU?$char_traits@D@std@@V?$allocator@D@2@@std@@V?$shared_ptr@VRawImageData@@@2@@std@@@?$_Tree@V?$_Tmap_traits@V?$basic_string@DU?$char_traits@D@std@@V?$allocator@D@2@@std@@V?$shared_ptr@VRawImageData@@@2@U?$less@V?$basic_string@DU?$char_traits@D@std@@V?$allocator@D@2@@std@@@2@V?$allocator@U?$pair@$$CBV?$basic_string@DU?$char_traits@D@std@@V?$allocator@D@2@@std@@V?$shared_ptr@VRawImageData@@@2@@std@@@2@$0A@@std@@@std@@IAE?AU?$pair@PAU?$_Tree_node@U?$pair@$$CBV?$basic_string@DU?$char_traits@D@std@@V?$allocator@D@2@@std@@V?$shared_ptr@VRawImageData@@@2@@std@@PAX@std@@_N@1@$$QAU?$pair@V?$basic_string@DU?$char_traits@D@std@@V?$allocator@D@2@@std@@V?$shared_ptr@VRawImageData@@@2@@1@@Z 0040d890 f i CW2Creature.obj
 0001:0000c9c0       ??$_Emplace@U?$pair@V?$basic_string@DU?$char_traits@D@std@@V?$allocator@D@2@@std@@V?$weak_ptr@VRawImageData@@@2@@std@@@?$_Tree@V?$_Tmap_traits@V?$basic_string@DU?$char_traits@D@std@@V?$allocator@D@2@@std@@V?$weak_ptr@VRawImageData@@@2@U?$less@V?$basic_string@DU?$char_traits@D@std@@V?$allocator@D@2@@std@@@2@V?$allocator@U?$pair@$$CBV?$basic_string@DU?$char_traits@D@std@@V?$allocator@D@2@@std@@V?$weak_ptr@VRawImageData@@@2@@std@@@2@$0A@@std@@@std@@IAE?AU?$pair@PAU?$_Tree_node@U?$pair@$$CBV?$basic_string@DU?$char_traits@D@std@@V?$allocator@D@2@@std@@V?$weak_ptr@VRawImageData@@@2@@std@@PAX@std@@_N@1@$$QAU?$pair@V?$basic_string@DU?$char_traits@D@std@@V?$allocator@D@2@@std@@V?$weak_ptr@VRawImageData@@@2@@1@@Z 0040d9c0 f i CW2Creature.obj
 0001:0000caf0       ??$_Emplace_back@$$V@?$_Uninitialized_backout_al@V?$allocator@PAVDisplayableObject@@@std@@@std@@QAEXXZ 0040daf0 f i CW2Creature.obj
 0001:0000cb40       ??$_Emplace_back@ABV?$basic_string@DU?$char_traits@D@std@@V?$allocator@D@2@@std@@@?$_Uninitialized_backout_al@V?$allocator@V?$basic_string@DU?$char_traits@D@std@@V?$allocator@D@2@@std@@@std@@@std@@QAEXABV?$basic_string@DU?$char_traits@D@std@@V?$allocator@D@2@@1@@Z 0040db40 f i CW2Creature.obj
 0001:0000cba0       ??$_Erase_head@V?$allocator@U?$_Tree_node@U?$pair@$$CBV?$basic_string@DU?$char_traits@D@std@@V?$allocator@D@2@@std@@V?$shared_ptr@VRawImageData@@@2@@std@@PAX@std@@@std@@@?$_Tree_val@U?$_Tree_simple_types@U?$pair@$$CBV?$basic_string@DU?$char_traits@D@std@@V?$allocator@D@2@@std@@V?$shared_ptr@VRawImageData@@@2@@std@@@std@@@std@@QAEXAAV?$allocator@U?$_Tree_node@U?$pair@$$CBV?$basic_string@DU?$char_traits@D@std@@V?$allocator@D@2@@std@@V?$shared_ptr@VRawImageData@@@2@@std@@PAX@std@@@1@@Z 0040dba0 f i CW2Creature.obj
 0001:0000cbf0       ??$_Erase_head@V?$allocator@U?$_Tree_node@U?$pair@$$CBV?$basic_string@DU?$char_traits@D@std@@V?$allocator@D@2@@std@@V?$weak_ptr@VRawImageData@@@2@@std@@PAX@std@@@std@@@?$_Tree_val@U?$_Tree_simple_types@U?$pair@$$CBV?$basic_string@DU?$char_traits@D@std@@V?$allocator@D@2@@std@@V?$weak_ptr@VRawImageData@@@2@@std@@@std@@@std@@QAEXAAV?$allocator@U?$_Tree_node@U?$pair@$$CBV?$basic_string@DU?$char_traits@D@std@@V?$allocator@D@2@@std@@V?$weak_ptr@VRawImageData@@@2@@std@@PAX@std@@@1@@Z 0040dbf0 f i CW2Creature.obj
 0001:0000cc40       ??$_Erase_tree@V?$allocator@U?$_Tree_node@U?$pair@$$CBV?$basic_string@DU?$char_traits@D@std@@V?$allocator@D@2@@std@@V?$shared_ptr@VRawImageData@@@2@@std@@PAX@std@@@std@@@?$_Tree_val@U?$_Tree_simple_types@U?$pair@$$CBV?$basic_string@DU?$char_traits@D@std@@V?$allocator@D@2@@std@@V?$shared_ptr@VRawImageData@@@2@@std@@@std@@@std@@QAEXAAV?$allocator@U?$_Tree_node@U?$pair@$$CBV?$basic_string@DU?$char_traits@D@std@@V?$allocator@D@2@@std@@V?$shared_ptr@VRawImageData@@@2@@std@@PAX@std@@@1@PAU?$_Tree_node@U?$pair@$$CBV?$basic_string@DU?$char_traits@D@std@@V?$allocator@D@2@@std@@V?$shared_ptr@VRawImageData@@@2@@std@@PAX@1@@Z 0040dc40 f i CW2Creature.obj
 0001:0000cca0       ??$_Erase_tree@V?$allocator@U?$_Tree_node@U?$pair@$$CBV?$basic_string@DU?$char_traits@D@std@@V?$allocator@D@2@@std@@V?$weak_ptr@VRawImageData@@@2@@std@@PAX@std@@@std@@@?$_Tree_val@U?$_Tree_simple_types@U?$pair@$$CBV?$basic_string@DU?$char_traits@D@std@@V?$allocator@D@2@@std@@V?$weak_ptr@VRawImageData@@@2@@std@@@std@@@std@@QAEXAAV?$allocator@U?$_Tree_node@U?$pair@$$CBV?$basic_string@DU?$char_traits@D@std@@V?$allocator@D@2@@std@@V?$weak_ptr@VRawImageData@@@2@@std@@PAX@std@@@1@PAU?$_Tree_node@U?$pair@$$CBV?$basic_string@DU?$char_traits@D@std@@V?$allocator@D@2@@std@@V?$weak_ptr@VRawImageData@@@2@@std@@PAX@1@@Z 0040dca0 f i CW2Creature.obj
 0001:0000cd00       ??$_Find@V?$basic_string@DU?$char_traits@D@std@@V?$allocator@D@2@@std@@@?$_Tree@V?$_Tmap_traits@V?$basic_string@DU?$char_traits@D@std@@V?$allocator@D@2@@std@@V?$weak_ptr@VRawImageData@@@2@U?$less@V?$basic_string@DU?$char_traits@D@std@@V?$allocator@D@2@@std@@@2@V?$allocator@U?$pair@$$CBV?$basic_string@DU?$char_traits@D@std@@V?$allocator@D@2@@std@@V?$weak_ptr@VRawImageData@@@2@@std@@@2@$0A@@std@@@std@@ABEPAU?$_Tree_node@U?$pair@$$CBV?$basic_string@DU?$char_traits@D@std@@V?$allocator@D@2@@std@@V?$weak_ptr@VRawImageData@@@2@@std@@PAX@1@ABV?$basic_string@DU?$char_traits@D@std@@V?$allocator@D@2@@1@@Z 0040dd00 f i CW2Creature.obj
 0001:0000cd60       ??$_Find_lower_bound@V?$basic_string@DU?$char_traits@D@std@@V?$allocator@D@2@@std@@@?$_Tree@V?$_Tmap_traits@V?$basic_string@DU?$char_traits@D@std@@V?$allocator@D@2@@std@@V?$shared_ptr@VRawImageData@@@2@U?$less@V?$basic_string@DU?$char_traits@D@std@@V?$allocator@D@2@@std@@@2@V?$allocator@U?$pair@$$CBV?$basic_string@DU?$char_traits@D@std@@V?$allocator@D@2@@std@@V?$shared_ptr@VRawImageData@@@2@@std@@@2@$0A@@std@@@std@@IBE?AU?$_Tree_find_result@PAU?$_Tree_node@U?$pair@$$CBV?$basic_string@DU?$char_traits@D@std@@V?$allocator@D@2@@std@@V?$shared_ptr@VRawImageData@@@2@@std@@PAX@std@@@1@ABV?$basic_string@DU?$char_traits@D@std@@V?$allocator@D@2@@1@@Z 0040dd60 f i CW2Creature.obj
 0001:0000ce50       ??$_Find_lower_bound@V?$basic_string@DU?$char_traits@D@std@@V?$allocator@D@2@@std@@@?$_Tree@V?$_Tmap_traits@V?$basic_string@DU?$char_traits@D@std@@V?$allocator@D@2@@std@@V?$weak_ptr@VRawImageData@@@2@U?$less@V?$basic_string@DU?$char_traits@D@std@@V?$allocator@D@2@@std@@@2@V?$allocator@U?$pair@$$CBV?$basic_string@DU?$char_traits@D@std@@V?$allocator@D@2@@std@@V?$weak_ptr@VRawImageData@@@2@@std@@@2@$0A@@std@@@std@@IBE?AU?$_Tree_find_result@PAU?$_Tree_node@U?$pair@$$CBV?$basic_string@DU?$char_traits@D@std@@V?$allocator@D@2@@std@@V?$weak_ptr@VRawImageData@@@2@@std@@PAX@std@@@1@ABV?$basic_string@DU?$char_traits@D@std@@V?$allocator@D@2@@1@@Z 0040de50 f i CW2Creature.obj
 0001:0000cf40       ??$_Freenode0@V?$allocator@U?$_Tree_node@U?$pair@$$CBV?$basic_string@DU?$char_traits@D@std@@V?$allocator@D@2@@std@@V?$shared_ptr@VRawImageData@@@2@@std@@PAX@std@@@std@@@?$_Tree_node@U?$pair@$$CBV?$basic_string@DU?$char_traits@D@std@@V?$allocator@D@2@@std@@V?$shared_ptr@VRawImageData@@@2@@std@@PAX@std@@SAXAAV?$allocator@U?$_Tree_node@U?$pair@$$CBV?$basic_string@DU?$char_traits@D@std@@V?$allocator@D@2@@std@@V?$shared_ptr@VRawImageData@@@2@@std@@PAX@std@@@1@PAU01@@Z 0040df40 f i CW2Creature.obj
 0001:0000cfd0       ??$_Freenode0@V?$allocator@U?$_Tree_node@U?$pair@$$CBV?$basic_string@DU?$char_traits@D@std@@V?$allocator@D@2@@std@@V?$weak_ptr@VRawImageData@@@2@@std@@PAX@std@@@std@@@?$_Tree_node@U?$pair@$$CBV?$basic_string@DU?$char_traits@D@std@@V?$allocator@D@2@@std@@V?$weak_ptr@VRawImageData@@@2@@std@@PAX@std@@SAXAAV?$allocator@U?$_Tree_node@U?$pair@$$CBV?$basic_string@DU?$char_traits@D@std@@V?$allocator@D@2@@std@@V?$weak_ptr@VRawImageData@@@2@@std@@PAX@std@@@1@PAU01@@Z 0040dfd0 f i CW2Creature.obj
 0001:0000d060       ??$_Freenode@V?$allocator@U?$_Tree_node@U?$pair@$$CBV?$basic_string@DU?$char_traits@D@std@@V?$allocator@D@2@@std@@V?$shared_ptr@VRawImageData@@@2@@std@@PAX@std@@@std@@@?$_Tree_node@U?$pair@$$CBV?$basic_string@DU?$char_traits@D@std@@V?$allocator@D@2@@std@@V?$shared_ptr@VRawImageData@@@2@@std@@PAX@std@@SAXAAV?$allocator@U?$_Tree_node@U?$pair@$$CBV?$basic_string@DU?$char_traits@D@std@@V?$allocator@D@2@@std@@V?$shared_ptr@VRawImageData@@@2@@std@@PAX@std@@@1@PAU01@@Z 0040e060 f i CW2Creature.obj
 0001:0000d0e0       ??$_Freenode@V?$allocator@U?$_Tree_node@U?$pair@$$CBV?$basic_string@DU?$char_traits@D@std@@V?$allocator@D@2@@std@@V?$weak_ptr@VRawImageData@@@2@@std@@PAX@std@@@std@@@?$_Tree_node@U?$pair@$$CBV?$basic_string@DU?$char_traits@D@std@@V?$allocator@D@2@@std@@V?$weak_ptr@VRawImageData@@@2@@std@@PAX@std@@SAXAAV?$allocator@U?$_Tree_node@U?$pair@$$CBV?$basic_string@DU?$char_traits@D@std@@V?$allocator@D@2@@std@@V?$weak_ptr@VRawImageData@@@2@@std@@PAX@std@@@1@PAU01@@Z 0040e0e0 f i CW2Creature.obj
 0001:0000d160       ??$_Get_size_of_n@$00@std@@YAII@Z 0040e160 f i CW2Creature.obj
 0001:0000d180       ??$_Get_size_of_n@$03@std@@YAII@Z 0040e180 f i CW2Creature.obj
 0001:0000d1c0       ??$_Get_size_of_n@$07@std@@YAII@Z 0040e1c0 f i CW2Creature.obj
 0001:0000d200       ??$_Get_size_of_n@$0BM@@std@@YAII@Z 0040e200 f i CW2Creature.obj
 0001:0000d230       ??$_Get_size_of_n@$0DE@@std@@YAII@Z 0040e230 f i CW2Creature.obj
 0001:0000d260       ??$_Get_unwrapped@AAPAD@std@@YA?A_TAAPAD@Z 0040e260 f i CW2Creature.obj
 0001:0000d270       ??$_Get_unwrapped@ABQBV?$basic_string@DU?$char_traits@D@std@@V?$allocator@D@2@@std@@@std@@YA?A_TABQBV?$basic_string@DU?$char_traits@D@std@@V?$allocator@D@2@@0@@Z 0040e270 f i CW2Creature.obj
 0001:0000d280       ??$_Insert_string@DU?$char_traits@D@std@@I@std@@YAAAV?$basic_ostream@DU?$char_traits@D@std@@@0@AAV10@QBDI@Z 0040e280 f i CW2Creature.obj
 0001:0000d600       ??$_Integral_to_string@DH@std@@YA?AV?$basic_string@DU?$char_traits@D@std@@V?$allocator@D@2@@0@H@Z 0040e600 f i CW2Creature.obj
 0001:0000d6d0       ??$_Kfn@$$CBV?$basic_string@DU?$char_traits@D@std@@V?$allocator@D@2@@std@@V?$shared_ptr@VRawImageData@@@2@@?$_Tmap_traits@V?$basic_string@DU?$char_traits@D@std@@V?$allocator@D@2@@std@@V?$shared_ptr@VRawImageData@@@2@U?$less@V?$basic_string@DU?$char_traits@D@std@@V?$allocator@D@2@@std@@@2@V?$allocator@U?$pair@$$CBV?$basic_string@DU?$char_traits@D@std@@V?$allocator@D@2@@std@@V?$shared_ptr@VRawImageData@@@2@@std@@@2@$0A@@std@@SAABV?$basic_string@DU?$char_traits@D@std@@V?$allocator@D@2@@1@ABU?$pair@$$CBV?$basic_string@DU?$char_traits@D@std@@V?$allocator@D@2@@std@@V?$shared_ptr@VRawImageData@@@2@@1@@Z 0040e6d0 f i CW2Creature.obj
 0001:0000d6e0       ??$_Kfn@$$CBV?$basic_string@DU?$char_traits@D@std@@V?$allocator@D@2@@std@@V?$weak_ptr@VRawImageData@@@2@@?$_Tmap_traits@V?$basic_string@DU?$char_traits@D@std@@V?$allocator@D@2@@std@@V?$weak_ptr@VRawImageData@@@2@U?$less@V?$basic_string@DU?$char_traits@D@std@@V?$allocator@D@2@@std@@@2@V?$allocator@U?$pair@$$CBV?$basic_string@DU?$char_traits@D@std@@V?$allocator@D@2@@std@@V?$weak_ptr@VRawImageData@@@2@@std@@@2@$0A@@std@@SAABV?$basic_string@DU?$char_traits@D@std@@V?$allocator@D@2@@1@ABU?$pair@$$CBV?$basic_string@DU?$char_traits@D@std@@V?$allocator@D@2@@std@@V?$weak_ptr@VRawImageData@@@2@@1@@Z 0040e6e0 f i CW2Creature.obj
 0001:0000d6f0       ??$_Lower_bound_duplicate@V?$basic_string@DU?$char_traits@D@std@@V?$allocator@D@2@@std@@@?$_Tree@V?$_Tmap_traits@V?$basic_string@DU?$char_traits@D@std@@V?$allocator@D@2@@std@@V?$shared_ptr@VRawImageData@@@2@U?$less@V?$basic_string@DU?$char_traits@D@std@@V?$allocator@D@2@@std@@@2@V?$allocator@U?$pair@$$CBV?$basic_string@DU?$char_traits@D@std@@V?$allocator@D@2@@std@@V?$shared_ptr@VRawImageData@@@2@@std@@@2@$0A@@std@@@std@@IBE_NQAU?$_Tree_node@U?$pair@$$CBV?$basic_string@DU?$char_traits@D@std@@V?$allocator@D@2@@std@@V?$shared_ptr@VRawImageData@@@2@@std@@PAX@1@ABV?$basic_string@DU?$char_traits@D@std@@V?$allocator@D@2@@1@@Z 0040e6f0 f i CW2Creature.obj
 0001:0000d760       ??$_Lower_bound_duplicate@V?$basic_string@DU?$char_traits@D@std@@V?$allocator@D@2@@std@@@?$_Tree@V?$_Tmap_traits@V?$basic_string@DU?$char_traits@D@std@@V?$allocator@D@2@@std@@V?$weak_ptr@VRawImageData@@@2@U?$less@V?$basic_string@DU?$char_traits@D@std@@V?$allocator@D@2@@std@@@2@V?$allocator@U?$pair@$$CBV?$basic_string@DU?$char_traits@D@std@@V?$allocator@D@2@@std@@V?$weak_ptr@VRawImageData@@@2@@std@@@2@$0A@@std@@@std@@IBE_NQAU?$_Tree_node@U?$pair@$$CBV?$basic_string@DU?$char_traits@D@std@@V?$allocator@D@2@@std@@V?$weak_ptr@VRawImageData@@@2@@std@@PAX@1@ABV?$basic_string@DU?$char_traits@D@std@@V?$allocator@D@2@@1@@Z 0040e760 f i CW2Creature.obj
 0001:0000d7d0       ??$_Move_construct_from@VCW2AnimatedManager@@@?$_Ptr_base@VCW2AnimatedManager@@@std@@IAEX$$QAV01@@Z 0040e7d0 f i CW2Creature.obj
 0001:0000d820       ??$_Move_construct_from@VCW2ImagePixelMapping@@@?$_Ptr_base@VCW2ImagePixelMapping@@@std@@IAEX$$QAV01@@Z 0040e820 f i CW2Creature.obj
 0001:0000d870       ??$_Move_construct_from@VRawImageData@@@?$_Ptr_base@VRawImageData@@@std@@IAEX$$QAV01@@Z 0040e870 f i CW2Creature.obj
 0001:0000d8c0       ??$_Pocs@V?$allocator@VCW2ImagePixelMapping@@@std@@@std@@YAXAAV?$allocator@VCW2ImagePixelMapping@@@0@0@Z 0040e8c0 f i CW2Creature.obj
 0001:0000d950       ??$_Range_construct_or_tidy@PBV?$basic_string@DU?$char_traits@D@std@@V?$allocator@D@2@@std@@@?$vector@V?$basic_string@DU?$char_traits@D@std@@V?$allocator@D@2@@std@@V?$allocator@V?$basic_string@DU?$char_traits@D@std@@V?$allocator@D@2@@std@@@2@@std@@AAEXPBV?$basic_string@DU?$char_traits@D@std@@V?$allocator@D@2@@1@0Uforward_iterator_tag@1@@Z 0040e950 f i CW2Creature.obj
 0001:0000da30       ??$_Reallocate_for@V<lambda_9366063389c5f42a00a5088cf24e69de>@@PBD@?$basic_string@DU?$char_traits@D@std@@V?$allocator@D@2@@std@@AAEAAV01@IV<lambda_9366063389c5f42a00a5088cf24e69de>@@PBD@Z 0040ea30 f i CW2Creature.obj
 0001:0000db30       ??$_Set_ptr_rep_and_enable_shared@VCW2AnimatedManager@@@?$shared_ptr@VCW2AnimatedManager@@@std@@AAEXQAVCW2AnimatedManager@@QAV_Ref_count_base@1@@Z 0040eb30 f i CW2Creature.obj
 0001:0000db60       ??$_Set_ptr_rep_and_enable_shared@VCW2ImagePixelMapping@@@?$shared_ptr@VCW2ImagePixelMapping@@@std@@AAEXQAVCW2ImagePixelMapping@@QAV_Ref_count_base@1@@Z 0040eb60 f i CW2Creature.obj
 0001:0000db90       ??$_Set_ptr_rep_and_enable_shared@VRawImageData@@@?$shared_ptr@VRawImageData@@@std@@AAEXQAVRawImageData@@QAV_Ref_count_base@1@@Z 0040eb90 f i CW2Creature.obj
 0001:0000dbc0       ??$_Swap_adl@PAVCW2ImagePixelMapping@@@std@@YAXAAPAVCW2ImagePixelMapping@@0@Z 0040ebc0 f i CW2Creature.obj
 0001:0000dbe0       ??$_To_address@PAPAVDisplayableObject@@@std@@YA?A_PABQAPAVDisplayableObject@@@Z 0040ebe0 f i CW2Creature.obj
 0001:0000dbf0       ??$_Traits_compare@U?$char_traits@D@std@@@std@@YAHQBDI0I@Z 0040ebf0 f i CW2Creature.obj
 0001:0000dc60       ??$_UIntegral_to_buff@DI@std@@YAPADPADI@Z 0040ec60 f i CW2Creature.obj
 0001:0000dcc0       ??$_Ucopy@PBV?$basic_string@DU?$char_traits@D@std@@V?$allocator@D@2@@std@@@?$vector@V?$basic_string@DU?$char_traits@D@std@@V?$allocator@D@2@@std@@V?$allocator@V?$basic_string@DU?$char_traits@D@std@@V?$allocator@D@2@@std@@@2@@std@@AAEPAV?$basic_string@DU?$char_traits@D@std@@V?$allocator@D@2@@1@PBV21@0PAV21@@Z 0040ecc0 f i CW2Creature.obj
 0001:0000dd00       ??$_Unfancy@D@std@@YAPADPAD@Z 0040ed00 f i CW2Creature.obj
 0001:0000dd10       ??$_Unfancy@PAVDisplayableObject@@@std@@YAPAPAVDisplayableObject@@PAPAV1@@Z 0040ed10 f i CW2Creature.obj
 0001:0000dd20       ??$_Unfancy@U_Container_proxy@std@@@std@@YAPAU_Container_proxy@0@PAU10@@Z 0040ed20 f i CW2Creature.obj
 0001:0000dd30       ??$_Unfancy@V?$basic_string@DU?$char_traits@D@std@@V?$allocator@D@2@@std@@@std@@YAPAV?$basic_string@DU?$char_traits@D@std@@V?$allocator@D@2@@0@PAV10@@Z 0040ed30 f i CW2Creature.obj
 0001:0000dd40       ??$_Unfancy@VCW2ImagePixelMapping@@@std@@YAPAVCW2ImagePixelMapping@@PAV1@@Z 0040ed40 f i CW2Creature.obj
 0001:0000dd50       ??$_Uninitialized_copy@PBV?$basic_string@DU?$char_traits@D@std@@V?$allocator@D@2@@std@@V?$allocator@V?$basic_string@DU?$char_traits@D@std@@V?$allocator@D@2@@std@@@2@@std@@YAPAV?$basic_string@DU?$char_traits@D@std@@V?$allocator@D@2@@0@QBV10@0PAV10@AAV?$allocator@V?$basic_string@DU?$char_traits@D@std@@V?$allocator@D@2@@std@@@0@@Z 0040ed50 f i CW2Creature.obj
 0001:0000de20       ??$_Uninitialized_value_construct_n@V?$allocator@PAVDisplayableObject@@@std@@@std@@YAPAPAVDisplayableObject@@PAPAV1@IAAV?$allocator@PAVDisplayableObject@@@0@@Z 0040ee20 f i CW2Creature.obj
 0001:0000df00       ??$_Verify_range@D@std@@YAXQBD0@Z 0040ef00 f i CW2Creature.obj
 0001:0000df80       ??$_Voidify_iter@PAPAD@std@@YAPAXPAPAD@Z 0040ef80 f i CW2Creature.obj
 0001:0000df90       ??$_Voidify_iter@PAPAU?$_Tree_node@U?$pair@$$CBV?$basic_string@DU?$char_traits@D@std@@V?$allocator@D@2@@std@@V?$shared_ptr@VRawImageData@@@2@@std@@PAX@std@@@std@@YAPAXPAPAU?$_Tree_node@U?$pair@$$CBV?$basic_string@DU?$char_traits@D@std@@V?$allocator@D@2@@std@@V?$shared_ptr@VRawImageData@@@2@@std@@PAX@0@@Z 0040ef90 f i CW2Creature.obj
 0001:0000dfa0       ??$_Voidify_iter@PAPAU?$_Tree_node@U?$pair@$$CBV?$basic_string@DU?$char_traits@D@std@@V?$allocator@D@2@@std@@V?$weak_ptr@VRawImageData@@@2@@std@@PAX@std@@@std@@YAPAXPAPAU?$_Tree_node@U?$pair@$$CBV?$basic_string@DU?$char_traits@D@std@@V?$allocator@D@2@@std@@V?$weak_ptr@VRawImageData@@@2@@std@@PAX@0@@Z 0040efa0 f i CW2Creature.obj
 0001:0000dfb0       ??$_Voidify_iter@PAPAVDisplayableObject@@@std@@YAPAXPAPAVDisplayableObject@@@Z 0040efb0 f i CW2Creature.obj
 0001:0000dfc0       ??$_Voidify_iter@PAU?$pair@$$CBV?$basic_string@DU?$char_traits@D@std@@V?$allocator@D@2@@std@@V?$shared_ptr@VRawImageData@@@2@@std@@@std@@YAPAXPAU?$pair@$$CBV?$basic_string@DU?$char_traits@D@std@@V?$allocator@D@2@@std@@V?$shared_ptr@VRawImageData@@@2@@0@@Z 0040efc0 f i CW2Creature.obj
 0001:0000dfd0       ??$_Voidify_iter@PAU?$pair@$$CBV?$basic_string@DU?$char_traits@D@std@@V?$allocator@D@2@@std@@V?$weak_ptr@VRawImageData@@@2@@std@@@std@@YAPAXPAU?$pair@$$CBV?$basic_string@DU?$char_traits@D@std@@V?$allocator@D@2@@std@@V?$weak_ptr@VRawImageData@@@2@@0@@Z 0040efd0 f i CW2Creature.obj
 0001:0000dfe0       ??$_Voidify_iter@PAU_Container_proxy@std@@@std@@YAPAXPAU_Container_proxy@0@@Z 0040efe0 f i CW2Creature.obj
 0001:0000dff0       ??$_Voidify_iter@PAV?$basic_string@DU?$char_traits@D@std@@V?$allocator@D@2@@std@@@std@@YAPAXPAV?$basic_string@DU?$char_traits@D@std@@V?$allocator@D@2@@0@@Z 0040eff0 f i CW2Creature.obj
 0001:0000e000       ??$_Voidify_iter@PAVCW2AnimatedManager@@@std@@YAPAXPAVCW2AnimatedManager@@@Z 0040f000 f i CW2Creature.obj
 0001:0000e010       ??$_Voidify_iter@PAVCW2ImagePixelMapping@@@std@@YAPAXPAVCW2ImagePixelMapping@@@Z 0040f010 f i CW2Creature.obj
 0001:0000e020       ??$_Weakly_construct_from@VRawImageData@@@?$_Ptr_base@VRawImageData@@@std@@IAEXABV01@@Z 0040f020 f i CW2Creature.obj
 0001:0000e070       ??$_Zero_range@PAPAVDisplayableObject@@@std@@YAPAPAVDisplayableObject@@QAPAV1@0@Z 0040f070 f i CW2Creature.obj
 0001:0000e0c0       ??$addressof@$$CBV?$_String_val@U?$_Simple_types@D@std@@@std@@@std@@YAPBV?$_String_val@U?$_Simple_types@D@std@@@0@ABV10@@Z 0040f0c0 f i CW2Creature.obj
 0001:0000e0d0       ??$addressof@$$CBV?$_Tree_val@U?$_Tree_simple_types@U?$pair@$$CBV?$basic_string@DU?$char_traits@D@std@@V?$allocator@D@2@@std@@V?$shared_ptr@VRawImageData@@@2@@std@@@std@@@std@@@std@@YAPBV?$_Tree_val@U?$_Tree_simple_types@U?$pair@$$CBV?$basic_string@DU?$char_traits@D@std@@V?$allocator@D@2@@std@@V?$shared_ptr@VRawImageData@@@2@@std@@@std@@@0@ABV10@@Z 0040f0d0 f i CW2Creature.obj
 0001:0000e0e0       ??$addressof@$$CBV?$_Tree_val@U?$_Tree_simple_types@U?$pair@$$CBV?$basic_string@DU?$char_traits@D@std@@V?$allocator@D@2@@std@@V?$weak_ptr@VRawImageData@@@2@@std@@@std@@@std@@@std@@YAPBV?$_Tree_val@U?$_Tree_simple_types@U?$pair@$$CBV?$basic_string@DU?$char_traits@D@std@@V?$allocator@D@2@@std@@V?$weak_ptr@VRawImageData@@@2@@std@@@std@@@0@ABV10@@Z 0040f0e0 f i CW2Creature.obj
 0001:0000e0f0       ??$addressof@PAD@std@@YAPAPADAAPAD@Z 0040f0f0 f i CW2Creature.obj
 0001:0000e100       ??$addressof@PAU?$_Tree_node@U?$pair@$$CBV?$basic_string@DU?$char_traits@D@std@@V?$allocator@D@2@@std@@V?$shared_ptr@VRawImageData@@@2@@std@@PAX@std@@@std@@YAPAPAU?$_Tree_node@U?$pair@$$CBV?$basic_string@DU?$char_traits@D@std@@V?$allocator@D@2@@std@@V?$shared_ptr@VRawImageData@@@2@@std@@PAX@0@AAPAU10@@Z 0040f100 f i CW2Creature.obj
 0001:0000e110       ??$addressof@PAU?$_Tree_node@U?$pair@$$CBV?$basic_string@DU?$char_traits@D@std@@V?$allocator@D@2@@std@@V?$weak_ptr@VRawImageData@@@2@@std@@PAX@std@@@std@@YAPAPAU?$_Tree_node@U?$pair@$$CBV?$basic_string@DU?$char_traits@D@std@@V?$allocator@D@2@@std@@V?$weak_ptr@VRawImageData@@@2@@std@@PAX@0@AAPAU10@@Z 0040f110 f i CW2Creature.obj
 0001:0000e120       ??$addressof@U?$pair@$$CBV?$basic_string@DU?$char_traits@D@std@@V?$allocator@D@2@@std@@V?$shared_ptr@VRawImageData@@@2@@std@@@std@@YAPAU?$pair@$$CBV?$basic_string@DU?$char_traits@D@std@@V?$allocator@D@2@@std@@V?$shared_ptr@VRawImageData@@@2@@0@AAU10@@Z 0040f120 f i CW2Creature.obj
 0001:0000e130       ??$addressof@U?$pair@$$CBV?$basic_string@DU?$char_traits@D@std@@V?$allocator@D@2@@std@@V?$weak_ptr@VRawImageData@@@2@@std@@@std@@YAPAU?$pair@$$CBV?$basic_string@DU?$char_traits@D@std@@V?$allocator@D@2@@std@@V?$weak_ptr@VRawImageData@@@2@@0@AAU10@@Z 0040f130 f i CW2Creature.obj
 0001:0000e140       ??$addressof@U_Container_base12@std@@@std@@YAPAU_Container_base12@0@AAU10@@Z 0040f140 f i CW2Creature.obj
 0001:0000e150       ??$addressof@U_Container_proxy@std@@@std@@YAPAU_Container_proxy@0@AAU10@@Z 0040f150 f i CW2Creature.obj
 0001:0000e160       ??$addressof@V?$_String_val@U?$_Simple_types@D@std@@@std@@@std@@YAPAV?$_String_val@U?$_Simple_types@D@std@@@0@AAV10@@Z 0040f160 f i CW2Creature.obj
 0001:0000e170       ??$addressof@V?$_Tree_val@U?$_Tree_simple_types@U?$pair@$$CBV?$basic_string@DU?$char_traits@D@std@@V?$allocator@D@2@@std@@V?$shared_ptr@VRawImageData@@@2@@std@@@std@@@std@@@std@@YAPAV?$_Tree_val@U?$_Tree_simple_types@U?$pair@$$CBV?$basic_string@DU?$char_traits@D@std@@V?$allocator@D@2@@std@@V?$shared_ptr@VRawImageData@@@2@@std@@@std@@@0@AAV10@@Z 0040f170 f i CW2Creature.obj
 0001:0000e180       ??$addressof@V?$_Tree_val@U?$_Tree_simple_types@U?$pair@$$CBV?$basic_string@DU?$char_traits@D@std@@V?$allocator@D@2@@std@@V?$weak_ptr@VRawImageData@@@2@@std@@@std@@@std@@@std@@YAPAV?$_Tree_val@U?$_Tree_simple_types@U?$pair@$$CBV?$basic_string@DU?$char_traits@D@std@@V?$allocator@D@2@@std@@V?$weak_ptr@VRawImageData@@@2@@std@@@std@@@0@AAV10@@Z 0040f180 f i CW2Creature.obj
 0001:0000e190       ??$addressof@V?$vector@VCW2ImagePixelMapping@@V?$allocator@VCW2ImagePixelMapping@@@std@@@std@@@std@@YAPAV?$vector@VCW2ImagePixelMapping@@V?$allocator@VCW2ImagePixelMapping@@@std@@@0@AAV10@@Z 0040f190 f i CW2Creature.obj
 0001:0000e1a0       ??$addressof@VCW2AnimatedManager@@@std@@YAPAVCW2AnimatedManager@@AAV1@@Z 0040f1a0 f i CW2Creature.obj
 0001:0000e1b0       ??$addressof@VCW2ImagePixelMapping@@@std@@YAPAVCW2ImagePixelMapping@@AAV1@@Z 0040f1b0 f i CW2Creature.obj
 0001:0000e1c0       ??$construct@PAVDisplayableObject@@$$V@?$_Default_allocator_traits@V?$allocator@PAVDisplayableObject@@@std@@@std@@SAXAAV?$allocator@PAVDisplayableObject@@@1@QAPAVDisplayableObject@@@Z 0040f1c0 f i CW2Creature.obj
 0001:0000e210       ??$construct@U?$pair@$$CBV?$basic_string@DU?$char_traits@D@std@@V?$allocator@D@2@@std@@V?$shared_ptr@VRawImageData@@@2@@std@@U?$pair@V?$basic_string@DU?$char_traits@D@std@@V?$allocator@D@2@@std@@V?$shared_ptr@VRawImageData@@@2@@2@@?$_Default_allocator_traits@V?$allocator@U?$_Tree_node@U?$pair@$$CBV?$basic_string@DU?$char_traits@D@std@@V?$allocator@D@2@@std@@V?$shared_ptr@VRawImageData@@@2@@std@@PAX@std@@@std@@@std@@SAXAAV?$allocator@U?$_Tree_node@U?$pair@$$CBV?$basic_string@DU?$char_traits@D@std@@V?$allocator@D@2@@std@@V?$shared_ptr@VRawImageData@@@2@@std@@PAX@std@@@1@QAU?$pair@$$CBV?$basic_string@DU?$char_traits@D@std@@V?$allocator@D@2@@std@@V?$shared_ptr@VRawImageData@@@2@@1@$$QAU?$pair@V?$basic_string@DU?$char_traits@D@std@@V?$allocator@D@2@@std@@V?$shared_ptr@VRawImageData@@@2@@1@@Z 0040f210 f i CW2Creature.obj
 0001:0000e260       ??$construct@U?$pair@$$CBV?$basic_string@DU?$char_traits@D@std@@V?$allocator@D@2@@std@@V?$weak_ptr@VRawImageData@@@2@@std@@U?$pair@V?$basic_string@DU?$char_traits@D@std@@V?$allocator@D@2@@std@@V?$weak_ptr@VRawImageData@@@2@@2@@?$_Default_allocator_traits@V?$allocator@U?$_Tree_node@U?$pair@$$CBV?$basic_string@DU?$char_traits@D@std@@V?$allocator@D@2@@std@@V?$weak_ptr@VRawImageData@@@2@@std@@PAX@std@@@std@@@std@@SAXAAV?$allocator@U?$_Tree_node@U?$pair@$$CBV?$basic_string@DU?$char_traits@D@std@@V?$allocator@D@2@@std@@V?$weak_ptr@VRawImageData@@@2@@std@@PAX@std@@@1@QAU?$pair@$$CBV?$basic_string@DU?$char_traits@D@std@@V?$allocator@D@2@@std@@V?$weak_ptr@VRawImageData@@@2@@1@$$QAU?$pair@V?$basic_string@DU?$char_traits@D@std@@V?$allocator@D@2@@std@@V?$weak_ptr@VRawImageData@@@2@@1@@Z 0040f260 f i CW2Creature.obj
 0001:0000e2b0       ??$construct@V?$basic_string@DU?$char_traits@D@std@@V?$allocator@D@2@@std@@ABV12@@?$_Default_allocator_traits@V?$allocator@V?$basic_string@DU?$char_traits@D@std@@V?$allocator@D@2@@std@@@std@@@std@@SAXAAV?$allocator@V?$basic_string@DU?$char_traits@D@std@@V?$allocator@D@2@@std@@@1@QAV?$basic_string@DU?$char_traits@D@std@@V?$allocator@D@2@@1@ABV31@@Z 0040f2b0 f i CW2Creature.obj
 0001:0000e300       ??$destroy@U?$pair@$$CBV?$basic_string@DU?$char_traits@D@std@@V?$allocator@D@2@@std@@V?$shared_ptr@VRawImageData@@@2@@std@@@?$_Default_allocator_traits@V?$allocator@U?$_Tree_node@U?$pair@$$CBV?$basic_string@DU?$char_traits@D@std@@V?$allocator@D@2@@std@@V?$shared_ptr@VRawImageData@@@2@@std@@PAX@std@@@std@@@std@@SAXAAV?$allocator@U?$_Tree_node@U?$pair@$$CBV?$basic_string@DU?$char_traits@D@std@@V?$allocator@D@2@@std@@V?$shared_ptr@VRawImageData@@@2@@std@@PAX@std@@@1@QAU?$pair@$$CBV?$basic_string@DU?$char_traits@D@std@@V?$allocator@D@2@@std@@V?$shared_ptr@VRawImageData@@@2@@1@@Z 0040f300 f i CW2Creature.obj
 0001:0000e320       ??$destroy@U?$pair@$$CBV?$basic_string@DU?$char_traits@D@std@@V?$allocator@D@2@@std@@V?$weak_ptr@VRawImageData@@@2@@std@@@?$_Default_allocator_traits@V?$allocator@U?$_Tree_node@U?$pair@$$CBV?$basic_string@DU?$char_traits@D@std@@V?$allocator@D@2@@std@@V?$weak_ptr@VRawImageData@@@2@@std@@PAX@std@@@std@@@std@@SAXAAV?$allocator@U?$_Tree_node@U?$pair@$$CBV?$basic_string@DU?$char_traits@D@std@@V?$allocator@D@2@@std@@V?$weak_ptr@VRawImageData@@@2@@std@@PAX@std@@@1@QAU?$pair@$$CBV?$basic_string@DU?$char_traits@D@std@@V?$allocator@D@2@@std@@V?$weak_ptr@VRawImageData@@@2@@1@@Z 0040f320 f i CW2Creature.obj
 0001:0000e340       ??$destroy@V?$basic_string@DU?$char_traits@D@std@@V?$allocator@D@2@@std@@@?$_Default_allocator_traits@V?$allocator@V?$basic_string@DU?$char_traits@D@std@@V?$allocator@D@2@@std@@@std@@@std@@SAXAAV?$allocator@V?$basic_string@DU?$char_traits@D@std@@V?$allocator@D@2@@std@@@1@QAV?$basic_string@DU?$char_traits@D@std@@V?$allocator@D@2@@1@@Z 0040f340 f i CW2Creature.obj
 0001:0000e360       ??$destroy@VCW2ImagePixelMapping@@@?$_Default_allocator_traits@V?$allocator@VCW2ImagePixelMapping@@@std@@@std@@SAXAAV?$allocator@VCW2ImagePixelMapping@@@1@QAVCW2ImagePixelMapping@@@Z 0040f360 f i CW2Creature.obj
 0001:0000e380       ??$distance@PBV?$basic_string@DU?$char_traits@D@std@@V?$allocator@D@2@@std@@@std@@YAHPBV?$basic_string@DU?$char_traits@D@std@@V?$allocator@D@2@@0@0@Z 0040f380 f i CW2Creature.obj
 0001:0000e3a0       ??$emplace@U?$pair@V?$basic_string@DU?$char_traits@D@std@@V?$allocator@D@2@@std@@V?$shared_ptr@VRawImageData@@@2@@std@@@?$_Tree@V?$_Tmap_traits@V?$basic_string@DU?$char_traits@D@std@@V?$allocator@D@2@@std@@V?$shared_ptr@VRawImageData@@@2@U?$less@V?$basic_string@DU?$char_traits@D@std@@V?$allocator@D@2@@std@@@2@V?$allocator@U?$pair@$$CBV?$basic_string@DU?$char_traits@D@std@@V?$allocator@D@2@@std@@V?$shared_ptr@VRawImageData@@@2@@std@@@2@$0A@@std@@@std@@QAE?AU?$pair@V?$_Tree_iterator@V?$_Tree_val@U?$_Tree_simple_types@U?$pair@$$CBV?$basic_string@DU?$char_traits@D@std@@V?$allocator@D@2@@std@@V?$shared_ptr@VRawImageData@@@2@@std@@@std@@@std@@@std@@_N@1@$$QAU?$pair@V?$basic_string@DU?$char_traits@D@std@@V?$allocator@D@2@@std@@V?$shared_ptr@VRawImageData@@@2@@1@@Z 0040f3a0 f i CW2Creature.obj
 0001:0000e430       ??$emplace@U?$pair@V?$basic_string@DU?$char_traits@D@std@@V?$allocator@D@2@@std@@V?$weak_ptr@VRawImageData@@@2@@std@@@?$_Tree@V?$_Tmap_traits@V?$basic_string@DU?$char_traits@D@std@@V?$allocator@D@2@@std@@V?$weak_ptr@VRawImageData@@@2@U?$less@V?$basic_string@DU?$char_traits@D@std@@V?$allocator@D@2@@std@@@2@V?$allocator@U?$pair@$$CBV?$basic_string@DU?$char_traits@D@std@@V?$allocator@D@2@@std@@V?$weak_ptr@VRawImageData@@@2@@std@@@2@$0A@@std@@@std@@QAE?AU?$pair@V?$_Tree_iterator@V?$_Tree_val@U?$_Tree_simple_types@U?$pair@$$CBV?$basic_string@DU?$char_traits@D@std@@V?$allocator@D@2@@std@@V?$weak_ptr@VRawImageData@@@2@@std@@@std@@@std@@@std@@_N@1@$$QAU?$pair@V?$basic_string@DU?$char_traits@D@std@@V?$allocator@D@2@@std@@V?$weak_ptr@VRawImageData@@@2@@1@@Z 0040f430 f i CW2Creature.obj
 0001:0000e4c0       ??$end@D$0BF@@std@@YAPADAAY0BF@D@Z 0040f4c0 f i CW2Creature.obj
 0001:0000e4d0       ??$endl@DU?$char_traits@D@std@@@std@@YAAAV?$basic_ostream@DU?$char_traits@D@std@@@0@AAV10@@Z 0040f4d0 f i CW2Creature.obj
 0001:0000e510       ??$erase@V?$_Tree_iterator@V?$_Tree_val@U?$_Tree_simple_types@U?$pair@$$CBV?$basic_string@DU?$char_traits@D@std@@V?$allocator@D@2@@std@@V?$weak_ptr@VRawImageData@@@2@@std@@@std@@@std@@@std@@$0A@@?$_Tree@V?$_Tmap_traits@V?$basic_string@DU?$char_traits@D@std@@V?$allocator@D@2@@std@@V?$weak_ptr@VRawImageData@@@2@U?$less@V?$basic_string@DU?$char_traits@D@std@@V?$allocator@D@2@@std@@@2@V?$allocator@U?$pair@$$CBV?$basic_string@DU?$char_traits@D@std@@V?$allocator@D@2@@std@@V?$weak_ptr@VRawImageData@@@2@@std@@@2@$0A@@std@@@std@@QAE?AV?$_Tree_iterator@V?$_Tree_val@U?$_Tree_simple_types@U?$pair@$$CBV?$basic_string@DU?$char_traits@D@std@@V?$allocator@D@2@@std@@V?$weak_ptr@VRawImageData@@@2@@std@@@std@@@std@@@1@V21@@Z 0040f510 f i CW2Creature.obj
 0001:0000e660       ??$exchange@PAU?$_Tree_node@U?$pair@$$CBV?$basic_string@DU?$char_traits@D@std@@V?$allocator@D@2@@std@@V?$shared_ptr@VRawImageData@@@2@@std@@PAX@std@@$$T@std@@YAPAU?$_Tree_node@U?$pair@$$CBV?$basic_string@DU?$char_traits@D@std@@V?$allocator@D@2@@std@@V?$shared_ptr@VRawImageData@@@2@@std@@PAX@0@AAPAU10@$$QA$$T@Z 0040f660 f i CW2Creature.obj
 0001:0000e690       ??$exchange@PAU?$_Tree_node@U?$pair@$$CBV?$basic_string@DU?$char_traits@D@std@@V?$allocator@D@2@@std@@V?$shared_ptr@VRawImageData@@@2@@std@@PAX@std@@AAPAU12@@std@@YAPAU?$_Tree_node@U?$pair@$$CBV?$basic_string@DU?$char_traits@D@std@@V?$allocator@D@2@@std@@V?$shared_ptr@VRawImageData@@@2@@std@@PAX@0@AAPAU10@0@Z 0040f690 f i CW2Creature.obj
 0001:0000e6c0       ??$exchange@PAU?$_Tree_node@U?$pair@$$CBV?$basic_string@DU?$char_traits@D@std@@V?$allocator@D@2@@std@@V?$weak_ptr@VRawImageData@@@2@@std@@PAX@std@@$$T@std@@YAPAU?$_Tree_node@U?$pair@$$CBV?$basic_string@DU?$char_traits@D@std@@V?$allocator@D@2@@std@@V?$weak_ptr@VRawImageData@@@2@@std@@PAX@0@AAPAU10@$$QA$$T@Z 0040f6c0 f i CW2Creature.obj
 0001:0000e6f0       ??$exchange@PAU?$_Tree_node@U?$pair@$$CBV?$basic_string@DU?$char_traits@D@std@@V?$allocator@D@2@@std@@V?$weak_ptr@VRawImageData@@@2@@std@@PAX@std@@AAPAU12@@std@@YAPAU?$_Tree_node@U?$pair@$$CBV?$basic_string@DU?$char_traits@D@std@@V?$allocator@D@2@@std@@V?$weak_ptr@VRawImageData@@@2@@std@@PAX@0@AAPAU10@0@Z 0040f6f0 f i CW2Creature.obj
 0001:0000e720       ??$exchange@PAU_Container_proxy@std@@$$T@std@@YAPAU_Container_proxy@0@AAPAU10@$$QA$$T@Z 0040f720 f i CW2Creature.obj
 0001:0000e750       ??$exchange@PAV?$basic_string@DU?$char_traits@D@std@@V?$allocator@D@2@@std@@$$T@std@@YAPAV?$basic_string@DU?$char_traits@D@std@@V?$allocator@D@2@@0@AAPAV10@$$QA$$T@Z 0040f750 f i CW2Creature.obj
 0001:0000e780       ??$forward@AAPAD@std@@YAAAPADAAPAD@Z 0040f780 f i CW2Creature.obj
 0001:0000e790       ??$forward@AAPAU?$_Tree_node@U?$pair@$$CBV?$basic_string@DU?$char_traits@D@std@@V?$allocator@D@2@@std@@V?$shared_ptr@VRawImageData@@@2@@std@@PAX@std@@@std@@YAAAPAU?$_Tree_node@U?$pair@$$CBV?$basic_string@DU?$char_traits@D@std@@V?$allocator@D@2@@std@@V?$shared_ptr@VRawImageData@@@2@@std@@PAX@0@AAPAU10@@Z 0040f790 f i CW2Creature.obj
 0001:0000e7a0       ??$forward@AAPAU?$_Tree_node@U?$pair@$$CBV?$basic_string@DU?$char_traits@D@std@@V?$allocator@D@2@@std@@V?$weak_ptr@VRawImageData@@@2@@std@@PAX@std@@@std@@YAAAPAU?$_Tree_node@U?$pair@$$CBV?$basic_string@DU?$char_traits@D@std@@V?$allocator@D@2@@std@@V?$weak_ptr@VRawImageData@@@2@@std@@PAX@0@AAPAU10@@Z 0040f7a0 f i CW2Creature.obj
 0001:0000e7b0       ??$forward@AAV?$basic_string@DU?$char_traits@D@std@@V?$allocator@D@2@@std@@@std@@YAAAV?$basic_string@DU?$char_traits@D@std@@V?$allocator@D@2@@0@AAV10@@Z 0040f7b0 f i CW2Creature.obj
 0001:0000e7c0       ??$forward@AAV?$shared_ptr@VRawImageData@@@std@@@std@@YAAAV?$shared_ptr@VRawImageData@@@0@AAV10@@Z 0040f7c0 f i CW2Creature.obj
 0001:0000e7d0       ??$forward@AAV?$weak_ptr@VRawImageData@@@std@@@std@@YAAAV?$weak_ptr@VRawImageData@@@0@AAV10@@Z 0040f7d0 f i CW2Creature.obj
 0001:0000e7e0       ??$forward@ABQAD@std@@YAABQADABQAD@Z 0040f7e0 f i CW2Creature.obj
 0001:0000e7f0       ??$forward@ABQAU?$_Tree_node@U?$pair@$$CBV?$basic_string@DU?$char_traits@D@std@@V?$allocator@D@2@@std@@V?$shared_ptr@VRawImageData@@@2@@std@@PAX@std@@@std@@YAABQAU?$_Tree_node@U?$pair@$$CBV?$basic_string@DU?$char_traits@D@std@@V?$allocator@D@2@@std@@V?$shared_ptr@VRawImageData@@@2@@std@@PAX@0@ABQAU10@@Z 0040f7f0 f i CW2Creature.obj
 0001:0000e800       ??$forward@ABQAU?$_Tree_node@U?$pair@$$CBV?$basic_string@DU?$char_traits@D@std@@V?$allocator@D@2@@std@@V?$weak_ptr@VRawImageData@@@2@@std@@PAX@std@@@std@@YAABQAU?$_Tree_node@U?$pair@$$CBV?$basic_string@DU?$char_traits@D@std@@V?$allocator@D@2@@std@@V?$weak_ptr@VRawImageData@@@2@@std@@PAX@0@ABQAU10@@Z 0040f800 f i CW2Creature.obj
 0001:0000e810       ??$forward@ABU?$less@V?$basic_string@DU?$char_traits@D@std@@V?$allocator@D@2@@std@@@std@@@std@@YAABU?$less@V?$basic_string@DU?$char_traits@D@std@@V?$allocator@D@2@@std@@@0@ABU10@@Z 0040f810 f i CW2Creature.obj
 0001:0000e820       ??$forward@ABV?$allocator@D@std@@@std@@YAABV?$allocator@D@0@ABV10@@Z 0040f820 f i CW2Creature.obj
 0001:0000e830       ??$forward@ABV?$allocator@PAVDisplayableObject@@@std@@@std@@YAABV?$allocator@PAVDisplayableObject@@@0@ABV10@@Z 0040f830 f i CW2Creature.obj
 0001:0000e840       ??$forward@ABV?$allocator@V?$basic_string@DU?$char_traits@D@std@@V?$allocator@D@2@@std@@@std@@@std@@YAABV?$allocator@V?$basic_string@DU?$char_traits@D@std@@V?$allocator@D@2@@std@@@0@ABV10@@Z 0040f840 f i CW2Creature.obj
 0001:0000e850       ??$forward@ABV?$basic_string@DU?$char_traits@D@std@@V?$allocator@D@2@@std@@@std@@YAABV?$basic_string@DU?$char_traits@D@std@@V?$allocator@D@2@@0@ABV10@@Z 0040f850 f i CW2Creature.obj
 0001:0000e860       ??$forward@AB_N@std@@YAAB_NAB_N@Z 0040f860 f i CW2Creature.obj
 0001:0000e870       ??$forward@H@std@@YA$$QAHAAH@Z 0040f870 f i CW2Creature.obj
 0001:0000e880       ??$forward@PAU?$_Tree_node@U?$pair@$$CBV?$basic_string@DU?$char_traits@D@std@@V?$allocator@D@2@@std@@V?$shared_ptr@VRawImageData@@@2@@std@@PAX@std@@@std@@YA$$QAPAU?$_Tree_node@U?$pair@$$CBV?$basic_string@DU?$char_traits@D@std@@V?$allocator@D@2@@std@@V?$shared_ptr@VRawImageData@@@2@@std@@PAX@0@AAPAU10@@Z 0040f880 f i CW2Creature.obj
 0001:0000e890       ??$forward@PAU?$_Tree_node@U?$pair@$$CBV?$basic_string@DU?$char_traits@D@std@@V?$allocator@D@2@@std@@V?$weak_ptr@VRawImageData@@@2@@std@@PAX@std@@@std@@YA$$QAPAU?$_Tree_node@U?$pair@$$CBV?$basic_string@DU?$char_traits@D@std@@V?$allocator@D@2@@std@@V?$weak_ptr@VRawImageData@@@2@@std@@PAX@0@AAPAU10@@Z 0040f890 f i CW2Creature.obj
 0001:0000e8a0       ??$forward@PAU_Container_base12@std@@@std@@YA$$QAPAU_Container_base12@0@AAPAU10@@Z 0040f8a0 f i CW2Creature.obj
 0001:0000e8b0       ??$forward@PAV?$basic_string@DU?$char_traits@D@std@@V?$allocator@D@2@@std@@@std@@YA$$QAPAV?$basic_string@DU?$char_traits@D@std@@V?$allocator@D@2@@0@AAPAV10@@Z 0040f8b0 f i CW2Creature.obj
 0001:0000e8c0       ??$forward@U?$pair@V?$basic_string@DU?$char_traits@D@std@@V?$allocator@D@2@@std@@V?$shared_ptr@VRawImageData@@@2@@std@@@std@@YA$$QAU?$pair@V?$basic_string@DU?$char_traits@D@std@@V?$allocator@D@2@@std@@V?$shared_ptr@VRawImageData@@@2@@0@AAU10@@Z 0040f8c0 f i CW2Creature.obj
 0001:0000e8d0       ??$forward@U?$pair@V?$basic_string@DU?$char_traits@D@std@@V?$allocator@D@2@@std@@V?$weak_ptr@VRawImageData@@@2@@std@@@std@@YA$$QAU?$pair@V?$basic_string@DU?$char_traits@D@std@@V?$allocator@D@2@@std@@V?$weak_ptr@VRawImageData@@@2@@0@AAU10@@Z 0040f8d0 f i CW2Creature.obj
 0001:0000e8e0       ??$forward@U_Zero_then_variadic_args_t@std@@@std@@YA$$QAU_Zero_then_variadic_args_t@0@AAU10@@Z 0040f8e0 f i CW2Creature.obj
 0001:0000e8f0       ??$forward@V?$_Tree_iterator@V?$_Tree_val@U?$_Tree_simple_types@U?$pair@$$CBV?$basic_string@DU?$char_traits@D@std@@V?$allocator@D@2@@std@@V?$shared_ptr@VRawImageData@@@2@@std@@@std@@@std@@@std@@@std@@YA$$QAV?$_Tree_iterator@V?$_Tree_val@U?$_Tree_simple_types@U?$pair@$$CBV?$basic_string@DU?$char_traits@D@std@@V?$allocator@D@2@@std@@V?$shared_ptr@VRawImageData@@@2@@std@@@std@@@std@@@0@AAV10@@Z 0040f8f0 f i CW2Creature.obj
 0001:0000e900       ??$forward@V?$_Tree_iterator@V?$_Tree_val@U?$_Tree_simple_types@U?$pair@$$CBV?$basic_string@DU?$char_traits@D@std@@V?$allocator@D@2@@std@@V?$weak_ptr@VRawImageData@@@2@@std@@@std@@@std@@@std@@@std@@YA$$QAV?$_Tree_iterator@V?$_Tree_val@U?$_Tree_simple_types@U?$pair@$$CBV?$basic_string@DU?$char_traits@D@std@@V?$allocator@D@2@@std@@V?$weak_ptr@VRawImageData@@@2@@std@@@std@@@std@@@0@AAV10@@Z 0040f900 f i CW2Creature.obj
 0001:0000e910       ??$forward@V?$allocator@D@std@@@std@@YA$$QAV?$allocator@D@0@AAV10@@Z 0040f910 f i CW2Creature.obj
 0001:0000e920       ??$forward@V?$allocator@V?$basic_string@DU?$char_traits@D@std@@V?$allocator@D@2@@std@@@std@@@std@@YA$$QAV?$allocator@V?$basic_string@DU?$char_traits@D@std@@V?$allocator@D@2@@std@@@0@AAV10@@Z 0040f920 f i CW2Creature.obj
 0001:0000e930       ??$forward@V?$basic_string@DU?$char_traits@D@std@@V?$allocator@D@2@@std@@@std@@YA$$QAV?$basic_string@DU?$char_traits@D@std@@V?$allocator@D@2@@0@AAV10@@Z 0040f930 f i CW2Creature.obj
 0001:0000e940       ??$forward@V?$shared_ptr@VRawImageData@@@std@@@std@@YA$$QAV?$shared_ptr@VRawImageData@@@0@AAV10@@Z 0040f940 f i CW2Creature.obj
 0001:0000e950       ??$forward@V?$weak_ptr@VRawImageData@@@std@@@std@@YA$$QAV?$weak_ptr@VRawImageData@@@0@AAV10@@Z 0040f950 f i CW2Creature.obj
 0001:0000e960       ??$forward@VSimpleImage@@@std@@YA$$QAVSimpleImage@@AAV1@@Z 0040f960 f i CW2Creature.obj
 0001:0000e970       ??$forward@_N@std@@YA$$QA_NAA_N@Z 0040f970 f i CW2Creature.obj
 0001:0000e980       ??$getObjectByType@VPlayer@@@CW2Engine@@QAEPAVPlayer@@XZ 0040f980 f i CW2Creature.obj
 0001:0000ead0       ??$insert@U?$pair@V?$basic_string@DU?$char_traits@D@std@@V?$allocator@D@2@@std@@V?$shared_ptr@VRawImageData@@@2@@std@@$0A@@?$map@V?$basic_string@DU?$char_traits@D@std@@V?$allocator@D@2@@std@@V?$shared_ptr@VRawImageData@@@2@U?$less@V?$basic_string@DU?$char_traits@D@std@@V?$allocator@D@2@@std@@@2@V?$allocator@U?$pair@$$CBV?$basic_string@DU?$char_traits@D@std@@V?$allocator@D@2@@std@@V?$shared_ptr@VRawImageData@@@2@@std@@@2@@std@@QAE?AU?$pair@V?$_Tree_iterator@V?$_Tree_val@U?$_Tree_simple_types@U?$pair@$$CBV?$basic_string@DU?$char_traits@D@std@@V?$allocator@D@2@@std@@V?$shared_ptr@VRawImageData@@@2@@std@@@std@@@std@@@std@@_N@1@$$QAU?$pair@V?$basic_string@DU?$char_traits@D@std@@V?$allocator@D@2@@std@@V?$shared_ptr@VRawImageData@@@2@@1@@Z 0040fad0 f i CW2Creature.obj
 0001:0000eb20       ??$insert@U?$pair@V?$basic_string@DU?$char_traits@D@std@@V?$allocator@D@2@@std@@V?$weak_ptr@VRawImageData@@@2@@std@@$0A@@?$map@V?$basic_string@DU?$char_traits@D@std@@V?$allocator@D@2@@std@@V?$weak_ptr@VRawImageData@@@2@U?$less@V?$basic_string@DU?$char_traits@D@std@@V?$allocator@D@2@@std@@@2@V?$allocator@U?$pair@$$CBV?$basic_string@DU?$char_traits@D@std@@V?$allocator@D@2@@std@@V?$weak_ptr@VRawImageData@@@2@@std@@@2@@std@@QAE?AU?$pair@V?$_Tree_iterator@V?$_Tree_val@U?$_Tree_simple_types@U?$pair@$$CBV?$basic_string@DU?$char_traits@D@std@@V?$allocator@D@2@@std@@V?$weak_ptr@VRawImageData@@@2@@std@@@std@@@std@@@std@@_N@1@$$QAU?$pair@V?$basic_string@DU?$char_traits@D@std@@V?$allocator@D@2@@std@@V?$weak_ptr@VRawImageData@@@2@@1@@Z 0040fb20 f i CW2Creature.obj
 0001:0000eb70       ??$make_shared@VCW2AnimatedManager@@VSimpleImage@@H@std@@YA?AV?$shared_ptr@VCW2AnimatedManager@@@0@$$QAVSimpleImage@@$$QAH@Z 0040fb70 f i CW2Creature.obj
 0001:0000ec90       ??$make_shared@VCW2ImagePixelMapping@@V?$shared_ptr@VRawImageData@@@std@@@std@@YA?AV?$shared_ptr@VCW2ImagePixelMapping@@@0@$$QAV?$shared_ptr@VRawImageData@@@0@@Z 0040fc90 f i CW2Creature.obj
 0001:0000ed90       ??$max@I@std@@YAABIABI0@Z  0040fd90 f i CW2Creature.obj
 0001:0000edd0       ??$min@I@std@@YAABIABI0@Z  0040fdd0 f i CW2Creature.obj
 0001:0000ee10       ??$move@AAD@std@@YA$$QADAAD@Z 0040fe10 f i CW2Creature.obj
 0001:0000ee20       ??$move@AAPAVCW2AnimatedManager@@@std@@YA$$QAPAVCW2AnimatedManager@@AAPAV1@@Z 0040fe20 f i CW2Creature.obj
 0001:0000ee30       ??$move@AAPAVCW2ImagePixelMapping@@@std@@YA$$QAPAVCW2ImagePixelMapping@@AAPAV1@@Z 0040fe30 f i CW2Creature.obj
 0001:0000ee40       ??$move@AAPAV_Ref_count_base@std@@@std@@YA$$QAPAV_Ref_count_base@0@AAPAV10@@Z 0040fe40 f i CW2Creature.obj
 0001:0000ee50       ??$move@AAV?$allocator@D@std@@@std@@YA$$QAV?$allocator@D@0@AAV10@@Z 0040fe50 f i CW2Creature.obj
 0001:0000ee60       ??$move@AAV?$allocator@V?$basic_string@DU?$char_traits@D@std@@V?$allocator@D@2@@std@@@std@@@std@@YA$$QAV?$allocator@V?$basic_string@DU?$char_traits@D@std@@V?$allocator@D@2@@std@@@0@AAV10@@Z 0040fe60 f i CW2Creature.obj
 0001:0000ee70       ??$move@AAV?$shared_ptr@VCW2AnimatedManager@@@std@@@std@@YA$$QAV?$shared_ptr@VCW2AnimatedManager@@@0@AAV10@@Z 0040fe70 f i CW2Creature.obj
 0001:0000ee80       ??$move@AAV?$shared_ptr@VCW2ImagePixelMapping@@@std@@@std@@YA$$QAV?$shared_ptr@VCW2ImagePixelMapping@@@0@AAV10@@Z 0040fe80 f i CW2Creature.obj
 0001:0000ee90       ??$move@AAV?$shared_ptr@VRawImageData@@@std@@@std@@YA$$QAV?$shared_ptr@VRawImageData@@@0@AAV10@@Z 0040fe90 f i CW2Creature.obj
 0001:0000eea0       ??$move@AAV?$weak_ptr@VRawImageData@@@std@@@std@@YA$$QAV?$weak_ptr@VRawImageData@@@0@AAV10@@Z 0040fea0 f i CW2Creature.obj
 0001:0000eeb0       ??$pow@HH$0A@@@YANHH@Z     0040feb0 f i CW2Creature.obj
 0001:0000eee0       ??$swap@D$0A@@std@@YAXAAD0@Z 0040fee0 f i CW2Creature.obj
 0001:0000ef30       ??$swap@PAVCW2AnimatedManager@@$0A@@std@@YAXAAPAVCW2AnimatedManager@@0@Z 0040ff30 f i CW2Creature.obj
 0001:0000ef80       ??$swap@PAVCW2ImagePixelMapping@@$0A@@std@@YAXAAPAVCW2ImagePixelMapping@@0@Z 0040ff80 f i CW2Creature.obj
 0001:0000efd0       ??$swap@PAV_Ref_count_base@std@@$0A@@std@@YAXAAPAV_Ref_count_base@0@0@Z 0040ffd0 f i CW2Creature.obj
 0001:0000f020       ??0?$_Alloc_construct_ptr@V?$allocator@U?$_Tree_node@U?$pair@$$CBV?$basic_string@DU?$char_traits@D@std@@V?$allocator@D@2@@std@@V?$shared_ptr@VRawImageData@@@2@@std@@PAX@std@@@std@@@std@@QAE@AAV?$allocator@U?$_Tree_node@U?$pair@$$CBV?$basic_string@DU?$char_traits@D@std@@V?$allocator@D@2@@std@@V?$shared_ptr@VRawImageData@@@2@@std@@PAX@std@@@1@@Z 00410020 f i CW2Creature.obj
 0001:0000f050       ??0?$_Alloc_construct_ptr@V?$allocator@U?$_Tree_node@U?$pair@$$CBV?$basic_string@DU?$char_traits@D@std@@V?$allocator@D@2@@std@@V?$weak_ptr@VRawImageData@@@2@@std@@PAX@std@@@std@@@std@@QAE@AAV?$allocator@U?$_Tree_node@U?$pair@$$CBV?$basic_string@DU?$char_traits@D@std@@V?$allocator@D@2@@std@@V?$weak_ptr@VRawImageData@@@2@@std@@PAX@std@@@1@@Z 00410050 f i CW2Creature.obj
 0001:0000f080       ??0?$_Container_proxy_ptr12@V?$allocator@U_Container_proxy@std@@@std@@@std@@QAE@AAV?$allocator@U_Container_proxy@std@@@1@AAU_Container_base12@1@@Z 00410080 f i CW2Creature.obj
 0001:0000f100       ??0?$_Ptr_base@VCW2AnimatedManager@@@std@@IAE@XZ 00410100 f i CW2Creature.obj
 0001:0000f130       ??0?$_Ptr_base@VCW2ImagePixelMapping@@@std@@IAE@XZ 00410130 f i CW2Creature.obj
 0001:0000f160       ??0?$_Ptr_base@VCW2TileManager@@@std@@IAE@XZ 00410160 f i CW2Creature.obj
 0001:0000f190       ??0?$_Ptr_base@VRawImageData@@@std@@IAE@XZ 00410190 f i CW2Creature.obj
 0001:0000f1c0       ??0?$_Ref_count@VRawImageData@@@std@@QAE@PAVRawImageData@@@Z 004101c0 f i CW2Creature.obj
 0001:0000f210       ??0?$_String_val@U?$_Simple_types@D@std@@@std@@QAE@XZ 00410210 f i CW2Creature.obj
 0001:0000f260       ??0?$_Temporary_owner@VRawImageData@@@std@@QAE@QAVRawImageData@@@Z 00410260 f i CW2Creature.obj
 0001:0000f280       ??0?$_Tree@V?$_Tmap_traits@V?$basic_string@DU?$char_traits@D@std@@V?$allocator@D@2@@std@@V?$shared_ptr@VRawImageData@@@2@U?$less@V?$basic_string@DU?$char_traits@D@std@@V?$allocator@D@2@@std@@@2@V?$allocator@U?$pair@$$CBV?$basic_string@DU?$char_traits@D@std@@V?$allocator@D@2@@std@@V?$shared_ptr@VRawImageData@@@2@@std@@@2@$0A@@std@@@std@@QAE@ABU?$less@V?$basic_string@DU?$char_traits@D@std@@V?$allocator@D@2@@std@@@1@@Z 00410280 f i CW2Creature.obj
 0001:0000f2c0       ??0?$_Tree@V?$_Tmap_traits@V?$basic_string@DU?$char_traits@D@std@@V?$allocator@D@2@@std@@V?$weak_ptr@VRawImageData@@@2@U?$less@V?$basic_string@DU?$char_traits@D@std@@V?$allocator@D@2@@std@@@2@V?$allocator@U?$pair@$$CBV?$basic_string@DU?$char_traits@D@std@@V?$allocator@D@2@@std@@V?$weak_ptr@VRawImageData@@@2@@std@@@2@$0A@@std@@@std@@QAE@ABU?$less@V?$basic_string@DU?$char_traits@D@std@@V?$allocator@D@2@@std@@@1@@Z 004102c0 f i CW2Creature.obj
 0001:0000f300       ??0?$_Tree_const_iterator@V?$_Tree_val@U?$_Tree_simple_types@U?$pair@$$CBV?$basic_string@DU?$char_traits@D@std@@V?$allocator@D@2@@std@@V?$shared_ptr@VRawImageData@@@2@@std@@@std@@@std@@@std@@QAE@$$QAV01@@Z 00410300 f i CW2Creature.obj
 0001:0000f330       ??0?$_Tree_const_iterator@V?$_Tree_val@U?$_Tree_simple_types@U?$pair@$$CBV?$basic_string@DU?$char_traits@D@std@@V?$allocator@D@2@@std@@V?$shared_ptr@VRawImageData@@@2@@std@@@std@@@std@@@std@@QAE@PAU?$_Tree_node@U?$pair@$$CBV?$basic_string@DU?$char_traits@D@std@@V?$allocator@D@2@@std@@V?$shared_ptr@VRawImageData@@@2@@std@@PAX@1@PBV?$_Tree_val@U?$_Tree_simple_types@U?$pair@$$CBV?$basic_string@DU?$char_traits@D@std@@V?$allocator@D@2@@std@@V?$shared_ptr@VRawImageData@@@2@@std@@@std@@@1@@Z 00410330 f i CW2Creature.obj
 0001:0000f360       ??0?$_Tree_const_iterator@V?$_Tree_val@U?$_Tree_simple_types@U?$pair@$$CBV?$basic_string@DU?$char_traits@D@std@@V?$allocator@D@2@@std@@V?$weak_ptr@VRawImageData@@@2@@std@@@std@@@std@@@std@@QAE@$$QAV01@@Z 00410360 f i CW2Creature.obj
 0001:0000f390       ??0?$_Tree_const_iterator@V?$_Tree_val@U?$_Tree_simple_types@U?$pair@$$CBV?$basic_string@DU?$char_traits@D@std@@V?$allocator@D@2@@std@@V?$weak_ptr@VRawImageData@@@2@@std@@@std@@@std@@@std@@QAE@ABV01@@Z 00410390 f i CW2Creature.obj
 0001:0000f3c0       ??0?$_Tree_const_iterator@V?$_Tree_val@U?$_Tree_simple_types@U?$pair@$$CBV?$basic_string@DU?$char_traits@D@std@@V?$allocator@D@2@@std@@V?$weak_ptr@VRawImageData@@@2@@std@@@std@@@std@@@std@@QAE@PAU?$_Tree_node@U?$pair@$$CBV?$basic_string@DU?$char_traits@D@std@@V?$allocator@D@2@@std@@V?$weak_ptr@VRawImageData@@@2@@std@@PAX@1@PBV?$_Tree_val@U?$_Tree_simple_types@U?$pair@$$CBV?$basic_string@DU?$char_traits@D@std@@V?$allocator@D@2@@std@@V?$weak_ptr@VRawImageData@@@2@@std@@@std@@@1@@Z 004103c0 f i CW2Creature.obj
 0001:0000f3f0       ??0?$_Tree_iterator@V?$_Tree_val@U?$_Tree_simple_types@U?$pair@$$CBV?$basic_string@DU?$char_traits@D@std@@V?$allocator@D@2@@std@@V?$shared_ptr@VRawImageData@@@2@@std@@@std@@@std@@@std@@QAE@$$QAV01@@Z 004103f0 f i CW2Creature.obj
 0001:0000f420       ??0?$_Tree_iterator@V?$_Tree_val@U?$_Tree_simple_types@U?$pair@$$CBV?$basic_string@DU?$char_traits@D@std@@V?$allocator@D@2@@std@@V?$shared_ptr@VRawImageData@@@2@@std@@@std@@@std@@@std@@QAE@PAU?$_Tree_node@U?$pair@$$CBV?$basic_string@DU?$char_traits@D@std@@V?$allocator@D@2@@std@@V?$shared_ptr@VRawImageData@@@2@@std@@PAX@1@PBV?$_Tree_val@U?$_Tree_simple_types@U?$pair@$$CBV?$basic_string@DU?$char_traits@D@std@@V?$allocator@D@2@@std@@V?$shared_ptr@VRawImageData@@@2@@std@@@std@@@1@@Z 00410420 f i CW2Creature.obj
 0001:0000f450       ??0?$_Tree_iterator@V?$_Tree_val@U?$_Tree_simple_types@U?$pair@$$CBV?$basic_string@DU?$char_traits@D@std@@V?$allocator@D@2@@std@@V?$weak_ptr@VRawImageData@@@2@@std@@@std@@@std@@@std@@QAE@$$QAV01@@Z 00410450 f i CW2Creature.obj
 0001:0000f480       ??0?$_Tree_iterator@V?$_Tree_val@U?$_Tree_simple_types@U?$pair@$$CBV?$basic_string@DU?$char_traits@D@std@@V?$allocator@D@2@@std@@V?$weak_ptr@VRawImageData@@@2@@std@@@std@@@std@@@std@@QAE@ABV01@@Z 00410480 f i CW2Creature.obj
 0001:0000f4b0       ??0?$_Tree_iterator@V?$_Tree_val@U?$_Tree_simple_types@U?$pair@$$CBV?$basic_string@DU?$char_traits@D@std@@V?$allocator@D@2@@std@@V?$weak_ptr@VRawImageData@@@2@@std@@@std@@@std@@@std@@QAE@PAU?$_Tree_node@U?$pair@$$CBV?$basic_string@DU?$char_traits@D@std@@V?$allocator@D@2@@std@@V?$weak_ptr@VRawImageData@@@2@@std@@PAX@1@PBV?$_Tree_val@U?$_Tree_simple_types@U?$pair@$$CBV?$basic_string@DU?$char_traits@D@std@@V?$allocator@D@2@@std@@V?$weak_ptr@VRawImageData@@@2@@std@@@std@@@1@@Z 004104b0 f i CW2Creature.obj
 0001:0000f4e0       ??0?$_Tree_temp_node_alloc@V?$allocator@U?$_Tree_node@U?$pair@$$CBV?$basic_string@DU?$char_traits@D@std@@V?$allocator@D@2@@std@@V?$shared_ptr@VRawImageData@@@2@@std@@PAX@std@@@std@@@std@@QAE@AAV?$allocator@U?$_Tree_node@U?$pair@$$CBV?$basic_string@DU?$char_traits@D@std@@V?$allocator@D@2@@std@@V?$shared_ptr@VRawImageData@@@2@@std@@PAX@std@@@1@@Z 004104e0 f i CW2Creature.obj
 0001:0000f560       ??0?$_Tree_temp_node_alloc@V?$allocator@U?$_Tree_node@U?$pair@$$CBV?$basic_string@DU?$char_traits@D@std@@V?$allocator@D@2@@std@@V?$weak_ptr@VRawImageData@@@2@@std@@PAX@std@@@std@@@std@@QAE@AAV?$allocator@U?$_Tree_node@U?$pair@$$CBV?$basic_string@DU?$char_traits@D@std@@V?$allocator@D@2@@std@@V?$weak_ptr@VRawImageData@@@2@@std@@PAX@std@@@1@@Z 00410560 f i CW2Creature.obj
 0001:0000f5e0       ??0?$_Tree_unchecked_const_iterator@V?$_Tree_val@U?$_Tree_simple_types@U?$pair@$$CBV?$basic_string@DU?$char_traits@D@std@@V?$allocator@D@2@@std@@V?$shared_ptr@VRawImageData@@@2@@std@@@std@@@std@@U_Iterator_base12@2@@std@@QAE@$$QAV01@@Z 004105e0 f i CW2Creature.obj
 0001:0000f620       ??0?$_Tree_unchecked_const_iterator@V?$_Tree_val@U?$_Tree_simple_types@U?$pair@$$CBV?$basic_string@DU?$char_traits@D@std@@V?$allocator@D@2@@std@@V?$shared_ptr@VRawImageData@@@2@@std@@@std@@@std@@U_Iterator_base12@2@@std@@QAE@PAU?$_Tree_node@U?$pair@$$CBV?$basic_string@DU?$char_traits@D@std@@V?$allocator@D@2@@std@@V?$shared_ptr@VRawImageData@@@2@@std@@PAX@1@PBV?$_Tree_val@U?$_Tree_simple_types@U?$pair@$$CBV?$basic_string@DU?$char_traits@D@std@@V?$allocator@D@2@@std@@V?$shared_ptr@VRawImageData@@@2@@std@@@std@@@1@@Z 00410620 f i CW2Creature.obj
 0001:0000f660       ??0?$_Tree_unchecked_const_iterator@V?$_Tree_val@U?$_Tree_simple_types@U?$pair@$$CBV?$basic_string@DU?$char_traits@D@std@@V?$allocator@D@2@@std@@V?$weak_ptr@VRawImageData@@@2@@std@@@std@@@std@@U_Iterator_base0@2@@std@@QAE@PAU?$_Tree_node@U?$pair@$$CBV?$basic_string@DU?$char_traits@D@std@@V?$allocator@D@2@@std@@V?$weak_ptr@VRawImageData@@@2@@std@@PAX@1@PBV?$_Tree_val@U?$_Tree_simple_types@U?$pair@$$CBV?$basic_string@DU?$char_traits@D@std@@V?$allocator@D@2@@std@@V?$weak_ptr@VRawImageData@@@2@@std@@@std@@@1@@Z 00410660 f i CW2Creature.obj
 0001:0000f690       ??0?$_Tree_unchecked_const_iterator@V?$_Tree_val@U?$_Tree_simple_types@U?$pair@$$CBV?$basic_string@DU?$char_traits@D@std@@V?$allocator@D@2@@std@@V?$weak_ptr@VRawImageData@@@2@@std@@@std@@@std@@U_Iterator_base12@2@@std@@QAE@$$QAV01@@Z 00410690 f i CW2Creature.obj
 0001:0000f6d0       ??0?$_Tree_unchecked_const_iterator@V?$_Tree_val@U?$_Tree_simple_types@U?$pair@$$CBV?$basic_string@DU?$char_traits@D@std@@V?$allocator@D@2@@std@@V?$weak_ptr@VRawImageData@@@2@@std@@@std@@@std@@U_Iterator_base12@2@@std@@QAE@ABV01@@Z 004106d0 f i CW2Creature.obj
 0001:0000f710       ??0?$_Tree_unchecked_const_iterator@V?$_Tree_val@U?$_Tree_simple_types@U?$pair@$$CBV?$basic_string@DU?$char_traits@D@std@@V?$allocator@D@2@@std@@V?$weak_ptr@VRawImageData@@@2@@std@@@std@@@std@@U_Iterator_base12@2@@std@@QAE@PAU?$_Tree_node@U?$pair@$$CBV?$basic_string@DU?$char_traits@D@std@@V?$allocator@D@2@@std@@V?$weak_ptr@VRawImageData@@@2@@std@@PAX@1@PBV?$_Tree_val@U?$_Tree_simple_types@U?$pair@$$CBV?$basic_string@DU?$char_traits@D@std@@V?$allocator@D@2@@std@@V?$weak_ptr@VRawImageData@@@2@@std@@@std@@@1@@Z 00410710 f i CW2Creature.obj
 0001:0000f750       ??0?$_Tree_unchecked_iterator@V?$_Tree_val@U?$_Tree_simple_types@U?$pair@$$CBV?$basic_string@DU?$char_traits@D@std@@V?$allocator@D@2@@std@@V?$weak_ptr@VRawImageData@@@2@@std@@@std@@@std@@@std@@QAE@PAU?$_Tree_node@U?$pair@$$CBV?$basic_string@DU?$char_traits@D@std@@V?$allocator@D@2@@std@@V?$weak_ptr@VRawImageData@@@2@@std@@PAX@1@PBV?$_Tree_val@U?$_Tree_simple_types@U?$pair@$$CBV?$basic_string@DU?$char_traits@D@std@@V?$allocator@D@2@@std@@V?$weak_ptr@VRawImageData@@@2@@std@@@std@@@1@@Z 00410750 f i CW2Creature.obj
 0001:0000f780       ??0?$_Tree_val@U?$_Tree_simple_types@U?$pair@$$CBV?$basic_string@DU?$char_traits@D@std@@V?$allocator@D@2@@std@@V?$shared_ptr@VRawImageData@@@2@@std@@@std@@@std@@QAE@XZ 00410780 f i CW2Creature.obj
 0001:0000f7c0       ??0?$_Tree_val@U?$_Tree_simple_types@U?$pair@$$CBV?$basic_string@DU?$char_traits@D@std@@V?$allocator@D@2@@std@@V?$weak_ptr@VRawImageData@@@2@@std@@@std@@@std@@QAE@XZ 004107c0 f i CW2Creature.obj
 0001:0000f800       ??0?$_Uninitialized_backout_al@V?$allocator@PAVDisplayableObject@@@std@@@std@@QAE@PAPAVDisplayableObject@@AAV?$allocator@PAVDisplayableObject@@@1@@Z 00410800 f i CW2Creature.obj
 0001:0000f840       ??0?$_Uninitialized_backout_al@V?$allocator@V?$basic_string@DU?$char_traits@D@std@@V?$allocator@D@2@@std@@@std@@@std@@QAE@PAV?$basic_string@DU?$char_traits@D@std@@V?$allocator@D@2@@1@AAV?$allocator@V?$basic_string@DU?$char_traits@D@std@@V?$allocator@D@2@@std@@@1@@Z 00410840 f i CW2Creature.obj
 0001:0000f880       ??0?$_Vector_val@U?$_Simple_types@PAVDisplayableObject@@@std@@@std@@QAE@XZ 00410880 f i CW2Creature.obj
 0001:0000f8d0       ??0?$_Vector_val@U?$_Simple_types@V?$basic_string@DU?$char_traits@D@std@@V?$allocator@D@2@@std@@@std@@@std@@QAE@PAV?$basic_string@DU?$char_traits@D@std@@V?$allocator@D@2@@1@00@Z 004108d0 f i CW2Creature.obj
 0001:0000f910       ??0?$_Vector_val@U?$_Simple_types@V?$basic_string@DU?$char_traits@D@std@@V?$allocator@D@2@@std@@@std@@@std@@QAE@XZ 00410910 f i CW2Creature.obj
 0001:0000f960       ??0?$_Vector_val@U?$_Simple_types@VCW2ImagePixelMapping@@@std@@@std@@QAE@XZ 00410960 f i CW2Creature.obj
 0001:0000f9b0       ??0?$allocator@D@std@@QAE@XZ 004109b0 f i CW2Creature.obj
 0001:0000f9d0       ??0?$allocator@PAVDisplayableObject@@@std@@QAE@XZ 004109d0 f i CW2Creature.obj
 0001:0000f9f0       ??0?$allocator@U?$_Tree_node@U?$pair@$$CBV?$basic_string@DU?$char_traits@D@std@@V?$allocator@D@2@@std@@V?$shared_ptr@VRawImageData@@@2@@std@@PAX@std@@@std@@QAE@XZ 004109f0 f i CW2Creature.obj
 0001:0000fa10       ??0?$allocator@U?$_Tree_node@U?$pair@$$CBV?$basic_string@DU?$char_traits@D@std@@V?$allocator@D@2@@std@@V?$weak_ptr@VRawImageData@@@2@@std@@PAX@std@@@std@@QAE@XZ 00410a10 f i CW2Creature.obj
 0001:0000fa30       ??0?$allocator@V?$basic_string@DU?$char_traits@D@std@@V?$allocator@D@2@@std@@@std@@QAE@XZ 00410a30 f i CW2Creature.obj
 0001:0000fa50       ??0?$allocator@VCW2ImagePixelMapping@@@std@@QAE@XZ 00410a50 f i CW2Creature.obj
 0001:0000fa70       ??0?$basic_string@DU?$char_traits@D@std@@V?$allocator@D@2@@std@@QAE@$$QAV01@@Z 00410a70 f i CW2Creature.obj
 0001:0000fb20       ??0?$basic_string@DU?$char_traits@D@std@@V?$allocator@D@2@@std@@QAE@ABV01@@Z 00410b20 f i CW2Creature.obj
 0001:0000fc10       ??0?$basic_string@DU?$char_traits@D@std@@V?$allocator@D@2@@std@@QAE@QBD@Z 00410c10 f i CW2Creature.obj
 0001:0000fcf0       ??0?$initializer_list@V?$basic_string@DU?$char_traits@D@std@@V?$allocator@D@2@@std@@@std@@QAE@PBV?$basic_string@DU?$char_traits@D@std@@V?$allocator@D@2@@1@0@Z 00410cf0 f i CW2Creature.obj
 0001:0000fd20       ??0?$map@V?$basic_string@DU?$char_traits@D@std@@V?$allocator@D@2@@std@@V?$shared_ptr@VRawImageData@@@2@U?$less@V?$basic_string@DU?$char_traits@D@std@@V?$allocator@D@2@@std@@@2@V?$allocator@U?$pair@$$CBV?$basic_string@DU?$char_traits@D@std@@V?$allocator@D@2@@std@@V?$shared_ptr@VRawImageData@@@2@@std@@@2@@std@@QAE@XZ 00410d20 f i CW2Creature.obj
 0001:0000fd50       ??0?$map@V?$basic_string@DU?$char_traits@D@std@@V?$allocator@D@2@@std@@V?$weak_ptr@VRawImageData@@@2@U?$less@V?$basic_string@DU?$char_traits@D@std@@V?$allocator@D@2@@std@@@2@V?$allocator@U?$pair@$$CBV?$basic_string@DU?$char_traits@D@std@@V?$allocator@D@2@@std@@V?$weak_ptr@VRawImageData@@@2@@std@@@2@@std@@QAE@XZ 00410d50 f i CW2Creature.obj
 0001:0000fd80       ??0?$shared_ptr@VCW2AnimatedManager@@@std@@QAE@$$QAV01@@Z 00410d80 f i CW2Creature.obj
 0001:0000fdc0       ??0?$shared_ptr@VCW2AnimatedManager@@@std@@QAE@ABV01@@Z 00410dc0 f i CW2Creature.obj
 0001:0000fdf0       ??0?$shared_ptr@VCW2AnimatedManager@@@std@@QAE@XZ 00410df0 f i CW2Creature.obj
 0001:0000fe10       ??0?$shared_ptr@VCW2ImagePixelMapping@@@std@@QAE@$$QAV01@@Z 00410e10 f i CW2Creature.obj
 0001:0000fe50       ??0?$shared_ptr@VCW2ImagePixelMapping@@@std@@QAE@XZ 00410e50 f i CW2Creature.obj
 0001:0000fe70       ??0?$shared_ptr@VCW2TileManager@@@std@@QAE@ABV01@@Z 00410e70 f i CW2Creature.obj
 0001:0000fea0       ??0?$shared_ptr@VRawImageData@@@std@@QAE@$$QAV01@@Z 00410ea0 f i CW2Creature.obj
 0001:0000fee0       ??0?$shared_ptr@VRawImageData@@@std@@QAE@$$T@Z 00410ee0 f i CW2Creature.obj
 0001:0000ff00       ??0?$shared_ptr@VRawImageData@@@std@@QAE@ABV01@@Z 00410f00 f i CW2Creature.obj
 0001:0000ff30       ??0?$shared_ptr@VRawImageData@@@std@@QAE@XZ 00410f30 f i CW2Creature.obj
 0001:0000ff50       ??0?$vector@PAVDisplayableObject@@V?$allocator@PAVDisplayableObject@@@std@@@std@@QAE@IABV?$allocator@PAVDisplayableObject@@@1@@Z 00410f50 f i CW2Creature.obj
 0001:0000ff90       ??0?$vector@V?$basic_string@DU?$char_traits@D@std@@V?$allocator@D@2@@std@@V?$allocator@V?$basic_string@DU?$char_traits@D@std@@V?$allocator@D@2@@std@@@2@@std@@QAE@$$QAV01@@Z 00410f90 f i CW2Creature.obj
 0001:000100c0       ??0?$vector@V?$basic_string@DU?$char_traits@D@std@@V?$allocator@D@2@@std@@V?$allocator@V?$basic_string@DU?$char_traits@D@std@@V?$allocator@D@2@@std@@@2@@std@@QAE@V?$initializer_list@V?$basic_string@DU?$char_traits@D@std@@V?$allocator@D@2@@std@@@1@ABV?$allocator@V?$basic_string@DU?$char_traits@D@std@@V?$allocator@D@2@@std@@@1@@Z 004110c0 f i CW2Creature.obj
 0001:000101a0       ??0?$vector@V?$basic_string@DU?$char_traits@D@std@@V?$allocator@D@2@@std@@V?$allocator@V?$basic_string@DU?$char_traits@D@std@@V?$allocator@D@2@@std@@@2@@std@@QAE@XZ 004111a0 f i CW2Creature.obj
 0001:00010220       ??0?$vector@VCW2ImagePixelMapping@@V?$allocator@VCW2ImagePixelMapping@@@std@@@std@@QAE@XZ 00411220 f i CW2Creature.obj
 0001:000102a0       ??0?$weak_ptr@VRawImageData@@@std@@QAE@$$QAV01@@Z 004112a0 f i CW2Creature.obj
 0001:000102e0       ??0?$weak_ptr@VRawImageData@@@std@@QAE@ABV01@@Z 004112e0 f i CW2Creature.obj
 0001:00010310       ??0CW2AnimatedManager@@QAE@VSimpleImage@@HH_N@Z 00411310 f i CW2Creature.obj
 0001:00010500       ??0CW2Creature@@IAE@HHPAVBaseEngine@@HHHHV?$shared_ptr@VCW2TileManager@@@std@@@Z 00411500 f i CW2Creature.obj
 0001:000105e0       ??0CW2ImagePixelMapping@@QAE@ABV0@@Z 004115e0 f i CW2Creature.obj
 0001:00010630       ??0CW2ImagePixelMapping@@QAE@NN@Z 00411630 f i CW2Creature.obj
 0001:00010690       ??0CW2ImagePixelMapping@@QAE@V?$shared_ptr@VRawImageData@@@std@@@Z 00411690 f i CW2Creature.obj
 0001:00010750       ??0CW2Object@@IAE@HHPAVBaseEngine@@HH@Z 00411750 f i CW2Creature.obj
 0001:00010870       ??0DisplayableObjectContainer@@QAE@H@Z 00411870 f i CW2Creature.obj
 0001:000108d0       ??0ImageManager@@QAE@XZ    004118d0 f i CW2Creature.obj
 0001:00010940       ??0ImagePixelMapping@@QAE@ABV0@@Z 00411940 f i CW2Creature.obj
 0001:00010960       ??0ImagePixelMapping@@QAE@XZ 00411960 f i CW2Creature.obj
 0001:00010980       ??0ImagePixelMappingShiftXY@@QAE@ABV0@@Z 00411980 f i CW2Creature.obj
 0001:000109e0       ??0ImagePixelMappingShiftXY@@QAE@NN@Z 004119e0 f i CW2Creature.obj
 0001:00010a30       ??0RawImageData@@QAE@V?$basic_string@DU?$char_traits@D@std@@V?$allocator@D@2@@std@@@Z 00411a30 f i CW2Creature.obj
 0001:00010ae0       ??0SimpleImage@@QAE@ABV0@@Z 00411ae0 f i CW2Creature.obj
 0001:00010b30       ??0_Basic_container_proxy_ptr12@std@@IAE@XZ 00411b30 f i CW2Creature.obj
 0001:00010b50       ??0_Bxty@?$_String_val@U?$_Simple_types@D@std@@@std@@QAE@XZ 00411b50 f i CW2Creature.obj
 0001:00010b70       ??0_Container_base12@std@@QAE@XZ 00411b70 f i CW2Creature.obj
 0001:00010b90       ??0_Container_proxy@std@@QAE@PAU_Container_base12@1@@Z 00411b90 f i CW2Creature.obj
 0001:00010bc0       ??0_Iterator_base12@std@@QAE@ABU01@@Z 00411bc0 f i CW2Creature.obj
 0001:00010c00       ??0_Iterator_base12@std@@QAE@XZ 00411c00 f i CW2Creature.obj
 0001:00010c30       ??0_Ref_count_base@std@@IAE@XZ 00411c30 f i CW2Creature.obj
 0001:00010c60       ??0_Sentry_base@?$basic_ostream@DU?$char_traits@D@std@@@std@@QAE@AAV12@@Z 00411c60 f i CW2Creature.obj
 0001:00010cc0       ??0bad_alloc@std@@AAE@QBD@Z 00411cc0 f i CW2Creature.obj
 0001:00010cf0       ??0bad_alloc@std@@QAE@ABV01@@Z 00411cf0 f i CW2Creature.obj
 0001:00010d20       ??0bad_array_new_length@std@@QAE@ABV01@@Z 00411d20 f i CW2Creature.obj
 0001:00010d50       ??0bad_array_new_length@std@@QAE@XZ 00411d50 f i CW2Creature.obj
 0001:00010d80       ??0exception@std@@QAE@ABV01@@Z 00411d80 f i CW2Creature.obj
 0001:00010dd0       ??0exception@std@@QAE@QBDH@Z 00411dd0 f i CW2Creature.obj
 0001:00010e10       ??0sentry@?$basic_ostream@DU?$char_traits@D@std@@@std@@QAE@AAV12@@Z 00411e10 f i CW2Creature.obj
 0001:00010f10       ??1?$_Alloc_construct_ptr@V?$allocator@U?$_Tree_node@U?$pair@$$CBV?$basic_string@DU?$char_traits@D@std@@V?$allocator@D@2@@std@@V?$shared_ptr@VRawImageData@@@2@@std@@PAX@std@@@std@@@std@@QAE@XZ 00411f10 f i CW2Creature.obj
 0001:00010f80       ??1?$_Alloc_construct_ptr@V?$allocator@U?$_Tree_node@U?$pair@$$CBV?$basic_string@DU?$char_traits@D@std@@V?$allocator@D@2@@std@@V?$weak_ptr@VRawImageData@@@2@@std@@PAX@std@@@std@@@std@@QAE@XZ 00411f80 f i CW2Creature.obj
 0001:00010ff0       ??1?$_Compressed_pair@V?$allocator@D@std@@V?$_String_val@U?$_Simple_types@D@std@@@2@$00@std@@QAE@XZ 00411ff0 f i CW2Creature.obj
 0001:00011010       ??1?$_Container_proxy_ptr12@V?$allocator@U_Container_proxy@std@@@std@@@std@@QAE@XZ 00412010 f i CW2Creature.obj
 0001:00011050       ??1?$_Ref_count@VRawImageData@@@std@@UAE@XZ 00412050 f i CW2Creature.obj
 0001:00011070       ??1?$_Ref_count_obj2@VCW2AnimatedManager@@@std@@UAE@XZ 00412070 f i CW2Creature.obj
 0001:000110a0       ??1?$_Ref_count_obj2@VCW2ImagePixelMapping@@@std@@UAE@XZ 004120a0 f i CW2Creature.obj
 0001:000110d0       ??1?$_String_val@U?$_Simple_types@D@std@@@std@@QAE@XZ 004120d0 f i CW2Creature.obj
 0001:000110f0       ??1?$_Temporary_owner@VRawImageData@@@std@@QAE@XZ 004120f0 f i CW2Creature.obj
 0001:00011130       ??1?$_Tidy_guard@V?$vector@PAVDisplayableObject@@V?$allocator@PAVDisplayableObject@@@std@@@std@@@std@@QAE@XZ 00412130 f i CW2Creature.obj
 0001:00011160       ??1?$_Tidy_guard@V?$vector@V?$basic_string@DU?$char_traits@D@std@@V?$allocator@D@2@@std@@V?$allocator@V?$basic_string@DU?$char_traits@D@std@@V?$allocator@D@2@@std@@@2@@std@@@std@@QAE@XZ 00412160 f i CW2Creature.obj
 0001:00011190       ??1?$_Tree@V?$_Tmap_traits@V?$basic_string@DU?$char_traits@D@std@@V?$allocator@D@2@@std@@V?$shared_ptr@VRawImageData@@@2@U?$less@V?$basic_string@DU?$char_traits@D@std@@V?$allocator@D@2@@std@@@2@V?$allocator@U?$pair@$$CBV?$basic_string@DU?$char_traits@D@std@@V?$allocator@D@2@@std@@V?$shared_ptr@VRawImageData@@@2@@std@@@2@$0A@@std@@@std@@QAE@XZ 00412190 f i CW2Creature.obj
 0001:00011200       ??1?$_Tree@V?$_Tmap_traits@V?$basic_string@DU?$char_traits@D@std@@V?$allocator@D@2@@std@@V?$weak_ptr@VRawImageData@@@2@U?$less@V?$basic_string@DU?$char_traits@D@std@@V?$allocator@D@2@@std@@@2@V?$allocator@U?$pair@$$CBV?$basic_string@DU?$char_traits@D@std@@V?$allocator@D@2@@std@@V?$weak_ptr@VRawImageData@@@2@@std@@@2@$0A@@std@@@std@@QAE@XZ 00412200 f i CW2Creature.obj
 0001:00011270       ??1?$_Tree_const_iterator@V?$_Tree_val@U?$_Tree_simple_types@U?$pair@$$CBV?$basic_string@DU?$char_traits@D@std@@V?$allocator@D@2@@std@@V?$shared_ptr@VRawImageData@@@2@@std@@@std@@@std@@@std@@QAE@XZ 00412270 f i CW2Creature.obj
 0001:00011290       ??1?$_Tree_const_iterator@V?$_Tree_val@U?$_Tree_simple_types@U?$pair@$$CBV?$basic_string@DU?$char_traits@D@std@@V?$allocator@D@2@@std@@V?$weak_ptr@VRawImageData@@@2@@std@@@std@@@std@@@std@@QAE@XZ 00412290 f i CW2Creature.obj
 0001:000112b0       ??1?$_Tree_iterator@V?$_Tree_val@U?$_Tree_simple_types@U?$pair@$$CBV?$basic_string@DU?$char_traits@D@std@@V?$allocator@D@2@@std@@V?$shared_ptr@VRawImageData@@@2@@std@@@std@@@std@@@std@@QAE@XZ 004122b0 f i CW2Creature.obj
 0001:000112d0       ??1?$_Tree_iterator@V?$_Tree_val@U?$_Tree_simple_types@U?$pair@$$CBV?$basic_string@DU?$char_traits@D@std@@V?$allocator@D@2@@std@@V?$weak_ptr@VRawImageData@@@2@@std@@@std@@@std@@@std@@QAE@XZ 004122d0 f i CW2Creature.obj
 0001:000112f0       ??1?$_Tree_temp_node@V?$allocator@U?$_Tree_node@U?$pair@$$CBV?$basic_string@DU?$char_traits@D@std@@V?$allocator@D@2@@std@@V?$shared_ptr@VRawImageData@@@2@@std@@PAX@std@@@std@@@std@@QAE@XZ 004122f0 f i CW2Creature.obj
 0001:000113c0       ??1?$_Tree_temp_node@V?$allocator@U?$_Tree_node@U?$pair@$$CBV?$basic_string@DU?$char_traits@D@std@@V?$allocator@D@2@@std@@V?$weak_ptr@VRawImageData@@@2@@std@@PAX@std@@@std@@@std@@QAE@XZ 004123c0 f i CW2Creature.obj
 0001:00011490       ??1?$_Tree_temp_node_alloc@V?$allocator@U?$_Tree_node@U?$pair@$$CBV?$basic_string@DU?$char_traits@D@std@@V?$allocator@D@2@@std@@V?$shared_ptr@VRawImageData@@@2@@std@@PAX@std@@@std@@@std@@QAE@XZ 00412490 f i CW2Creature.obj
 0001:000114b0       ??1?$_Tree_temp_node_alloc@V?$allocator@U?$_Tree_node@U?$pair@$$CBV?$basic_string@DU?$char_traits@D@std@@V?$allocator@D@2@@std@@V?$weak_ptr@VRawImageData@@@2@@std@@PAX@std@@@std@@@std@@QAE@XZ 004124b0 f i CW2Creature.obj
 0001:000114d0       ??1?$_Tree_unchecked_const_iterator@V?$_Tree_val@U?$_Tree_simple_types@U?$pair@$$CBV?$basic_string@DU?$char_traits@D@std@@V?$allocator@D@2@@std@@V?$shared_ptr@VRawImageData@@@2@@std@@@std@@@std@@U_Iterator_base12@2@@std@@QAE@XZ 004124d0 f i CW2Creature.obj
 0001:000114f0       ??1?$_Tree_unchecked_const_iterator@V?$_Tree_val@U?$_Tree_simple_types@U?$pair@$$CBV?$basic_string@DU?$char_traits@D@std@@V?$allocator@D@2@@std@@V?$weak_ptr@VRawImageData@@@2@@std@@@std@@@std@@U_Iterator_base12@2@@std@@QAE@XZ 004124f0 f i CW2Creature.obj
 0001:00011510       ??1?$_Uninitialized_backout_al@V?$allocator@PAVDisplayableObject@@@std@@@std@@QAE@XZ 00412510 f i CW2Creature.obj
 0001:00011540       ??1?$_Uninitialized_backout_al@V?$allocator@V?$basic_string@DU?$char_traits@D@std@@V?$allocator@D@2@@std@@@std@@@std@@QAE@XZ 00412540 f i CW2Creature.obj
 0001:00011570       ??1?$basic_string@DU?$char_traits@D@std@@V?$allocator@D@2@@std@@QAE@XZ 00412570 f i CW2Creature.obj
 0001:000115e0       ??1?$map@V?$basic_string@DU?$char_traits@D@std@@V?$allocator@D@2@@std@@V?$shared_ptr@VRawImageData@@@2@U?$less@V?$basic_string@DU?$char_traits@D@std@@V?$allocator@D@2@@std@@@2@V?$allocator@U?$pair@$$CBV?$basic_string@DU?$char_traits@D@std@@V?$allocator@D@2@@std@@V?$shared_ptr@VRawImageData@@@2@@std@@@2@@std@@QAE@XZ 004125e0 f i CW2Creature.obj
 0001:00011600       ??1?$map@V?$basic_string@DU?$char_traits@D@std@@V?$allocator@D@2@@std@@V?$weak_ptr@VRawImageData@@@2@U?$less@V?$basic_string@DU?$char_traits@D@std@@V?$allocator@D@2@@std@@@2@V?$allocator@U?$pair@$$CBV?$basic_string@DU?$char_traits@D@std@@V?$allocator@D@2@@std@@V?$weak_ptr@VRawImageData@@@2@@std@@@2@@std@@QAE@XZ 00412600 f i CW2Creature.obj
 0001:00011620       ??1?$pair@$$CBV?$basic_string@DU?$char_traits@D@std@@V?$allocator@D@2@@std@@V?$shared_ptr@VRawImageData@@@2@@std@@QAE@XZ 00412620 f i CW2Creature.obj
 0001:00011650       ??1?$pair@$$CBV?$basic_string@DU?$char_traits@D@std@@V?$allocator@D@2@@std@@V?$weak_ptr@VRawImageData@@@2@@std@@QAE@XZ 00412650 f i CW2Creature.obj
 0001:00011680       ??1?$pair@V?$_Tree_iterator@V?$_Tree_val@U?$_Tree_simple_types@U?$pair@$$CBV?$basic_string@DU?$char_traits@D@std@@V?$allocator@D@2@@std@@V?$shared_ptr@VRawImageData@@@2@@std@@@std@@@std@@@std@@_N@std@@QAE@XZ 00412680 f i CW2Creature.obj
 0001:000116a0       ??1?$pair@V?$_Tree_iterator@V?$_Tree_val@U?$_Tree_simple_types@U?$pair@$$CBV?$basic_string@DU?$char_traits@D@std@@V?$allocator@D@2@@std@@V?$weak_ptr@VRawImageData@@@2@@std@@@std@@@std@@@std@@_N@std@@QAE@XZ 004126a0 f i CW2Creature.obj
 0001:000116c0       ??1?$pair@V?$basic_string@DU?$char_traits@D@std@@V?$allocator@D@2@@std@@V?$shared_ptr@VRawImageData@@@2@@std@@QAE@XZ 004126c0 f i CW2Creature.obj
 0001:000116f0       ??1?$pair@V?$basic_string@DU?$char_traits@D@std@@V?$allocator@D@2@@std@@V?$weak_ptr@VRawImageData@@@2@@std@@QAE@XZ 004126f0 f i CW2Creature.obj
 0001:00011720       ??1?$shared_ptr@VCW2AnimatedManager@@@std@@QAE@XZ 00412720 f i CW2Creature.obj
 0001:00011740       ??1?$shared_ptr@VCW2ImagePixelMapping@@@std@@QAE@XZ 00412740 f i CW2Creature.obj
 0001:00011760       ??1?$shared_ptr@VCW2TileManager@@@std@@QAE@XZ 00412760 f i CW2Creature.obj
 0001:00011780       ??1?$shared_ptr@VRawImageData@@@std@@QAE@XZ 00412780 f i CW2Creature.obj
 0001:000117a0       ??1?$vector@PAVDisplayableObject@@V?$allocator@PAVDisplayableObject@@@std@@@std@@QAE@XZ 004127a0 f i CW2Creature.obj
 0001:00011810       ??1?$vector@V?$basic_string@DU?$char_traits@D@std@@V?$allocator@D@2@@std@@V?$allocator@V?$basic_string@DU?$char_traits@D@std@@V?$allocator@D@2@@std@@@2@@std@@QAE@XZ 00412810 f i CW2Creature.obj
 0001:00011880       ??1?$vector@VCW2ImagePixelMapping@@V?$allocator@VCW2ImagePixelMapping@@@std@@@std@@QAE@XZ 00412880 f i CW2Creature.obj
 0001:000118f0       ??1?$weak_ptr@VRawImageData@@@std@@QAE@XZ 004128f0 f i CW2Creature.obj
 0001:00011910       ??1CW2AnimatedManager@@QAE@XZ 00412910 f i CW2Creature.obj
 0001:000119d0       ??1CW2Creature@@MAE@XZ     004129d0 f i CW2Creature.obj
 0001:00011a10       ??1CW2ImagePixelMapping@@QAE@XZ 00412a10 f i CW2Creature.obj
 0001:00011a30       ??1CW2Object@@MAE@XZ       00412a30 f i CW2Creature.obj
 0001:00011a70       ??1DisplayableObjectContainer@@UAE@XZ 00412a70 f i CW2Creature.obj
 0001:00011ae0       ??1ImageManager@@QAE@XZ    00412ae0 f i CW2Creature.obj
 0001:00011b10       ??1RawImageData@@QAE@XZ    00412b10 f i CW2Creature.obj
 0001:00011b70       ??1SimpleImage@@QAE@XZ     00412b70 f i CW2Creature.obj
 0001:00011bc0       ??1_Bxty@?$_String_val@U?$_Simple_types@D@std@@@std@@QAE@XZ 00412bc0 f i CW2Creature.obj
 0001:00011bd0       ??1_Iterator_base12@std@@QAE@XZ 00412bd0 f i CW2Creature.obj
 0001:00011bf0       ??1_Ref_count_base@std@@UAE@XZ 00412bf0 f i CW2Creature.obj
 0001:00011c00       ??1_Sentry_base@?$basic_ostream@DU?$char_traits@D@std@@@std@@QAE@XZ 00412c00 f i CW2Creature.obj
 0001:00011c90       ??1bad_alloc@std@@UAE@XZ   00412c90 f i CW2Creature.obj
 0001:00011cb0       ??1bad_array_new_length@std@@UAE@XZ 00412cb0 f i CW2Creature.obj
 0001:00011cd0       ??1exception@std@@UAE@XZ   00412cd0 f i CW2Creature.obj
 0001:00011d00       ??1sentry@?$basic_ostream@DU?$char_traits@D@std@@@std@@QAE@XZ 00412d00 f i CW2Creature.obj
 0001:00011d90       ??2@YAPAXIPAX@Z            00412d90 f i CW2Creature.obj
 0001:00011da0       ??4?$shared_ptr@VCW2AnimatedManager@@@std@@QAEAAV01@$$QAV01@@Z 00412da0 f i CW2Creature.obj
 0001:00011df0       ??4?$shared_ptr@VCW2AnimatedManager@@@std@@QAEAAV01@ABV01@@Z 00412df0 f i CW2Creature.obj
 0001:00011e30       ??4?$shared_ptr@VCW2ImagePixelMapping@@@std@@QAEAAV01@$$QAV01@@Z 00412e30 f i CW2Creature.obj
 0001:00011e80       ??4_Iterator_base12@std@@QAEAAU01@ABU01@@Z 00412e80 f i CW2Creature.obj
 0001:00011eb0       ??8?$_Tree_const_iterator@V?$_Tree_val@U?$_Tree_simple_types@U?$pair@$$CBV?$basic_string@DU?$char_traits@D@std@@V?$allocator@D@2@@std@@V?$weak_ptr@VRawImageData@@@2@@std@@@std@@@std@@@std@@QBE_NABV01@@Z 00412eb0 f i CW2Creature.obj
 0001:00011f70       ??9?$_Tree_const_iterator@V?$_Tree_val@U?$_Tree_simple_types@U?$pair@$$CBV?$basic_string@DU?$char_traits@D@std@@V?$allocator@D@2@@std@@V?$weak_ptr@VRawImageData@@@2@@std@@@std@@@std@@@std@@QBE_NABV01@@Z 00412f70 f i CW2Creature.obj
 0001:00011fc0       ??A?$vector@PAVDisplayableObject@@V?$allocator@PAVDisplayableObject@@@std@@@std@@QAEAAPAVDisplayableObject@@I@Z 00412fc0 f i CW2Creature.obj
 0001:00012070       ??A?$vector@VCW2ImagePixelMapping@@V?$allocator@VCW2ImagePixelMapping@@@std@@@std@@QAEAAVCW2ImagePixelMapping@@I@Z 00413070 f i CW2Creature.obj
 0001:00012120       ??Bsentry@?$basic_ostream@DU?$char_traits@D@std@@@std@@QBE_NXZ 00413120 f i CW2Creature.obj
 0001:00012140       ??C?$_Tree_iterator@V?$_Tree_val@U?$_Tree_simple_types@U?$pair@$$CBV?$basic_string@DU?$char_traits@D@std@@V?$allocator@D@2@@std@@V?$weak_ptr@VRawImageData@@@2@@std@@@std@@@std@@@std@@QBEPAU?$pair@$$CBV?$basic_string@DU?$char_traits@D@std@@V?$allocator@D@2@@std@@V?$weak_ptr@VRawImageData@@@2@@1@XZ 00413140 f i CW2Creature.obj
 0001:00012170       ??D?$_Tree_const_iterator@V?$_Tree_val@U?$_Tree_simple_types@U?$pair@$$CBV?$basic_string@DU?$char_traits@D@std@@V?$allocator@D@2@@std@@V?$weak_ptr@VRawImageData@@@2@@std@@@std@@@std@@@std@@QBEABU?$pair@$$CBV?$basic_string@DU?$char_traits@D@std@@V?$allocator@D@2@@std@@V?$weak_ptr@VRawImageData@@@2@@1@XZ 00413170 f i CW2Creature.obj
 0001:00012280       ??D?$_Tree_iterator@V?$_Tree_val@U?$_Tree_simple_types@U?$pair@$$CBV?$basic_string@DU?$char_traits@D@std@@V?$allocator@D@2@@std@@V?$weak_ptr@VRawImageData@@@2@@std@@@std@@@std@@@std@@QBEAAU?$pair@$$CBV?$basic_string@DU?$char_traits@D@std@@V?$allocator@D@2@@std@@V?$weak_ptr@VRawImageData@@@2@@1@XZ 00413280 f i CW2Creature.obj
 0001:000122a0       ??E?$_Tree_unchecked_const_iterator@V?$_Tree_val@U?$_Tree_simple_types@U?$pair@$$CBV?$basic_string@DU?$char_traits@D@std@@V?$allocator@D@2@@std@@V?$weak_ptr@VRawImageData@@@2@@std@@@std@@@std@@U_Iterator_base0@2@@std@@QAEAAV01@XZ 004132a0 f i CW2Creature.obj
 0001:00012330       ??R<lambda_9366063389c5f42a00a5088cf24e69de>@@QBE@QADIQBD@Z 00413330 f i CW2Creature.obj
 0001:00012380       ??R?$less@V?$basic_string@DU?$char_traits@D@std@@V?$allocator@D@2@@std@@@std@@QBE_NABV?$basic_string@DU?$char_traits@D@std@@V?$allocator@D@2@@1@0@Z 00413380 f i CW2Creature.obj
 0001:000123a4       ??_EAggressiveMonster@@WCI@AEPAXI@Z 004133a4 f i CW2Creature.obj
 0001:000123ae       ??_ECW2Creature@@OCI@AEPAXI@Z 004133ae f i CW2Creature.obj
 0001:000123b8       ??_ECW2Object@@OCI@AEPAXI@Z 004133b8 f i CW2Creature.obj
 0001:000123c2       ??_EMonster@@WCI@AEPAXI@Z  004133c2 f i CW2Creature.obj
 0001:000123cc       ??_ENomalMonster@@WCI@AEPAXI@Z 004133cc f i CW2Creature.obj
 0001:000123d6       ??_EPeacefulMonster@@WCI@AEPAXI@Z 004133d6 f i CW2Creature.obj
 0001:000123e0       ??_EPlayer@@WCI@AEPAXI@Z   004133e0 f i CW2Creature.obj
 0001:000123f0       ??_G?$_Ref_count@VRawImageData@@@std@@UAEPAXI@Z 004133f0 f i CW2Creature.obj
 0001:000123f0       ??_E?$_Ref_count@VRawImageData@@@std@@UAEPAXI@Z 004133f0 f i CW2Creature.obj
 0001:00012430       ??_E?$_Ref_count_obj2@VCW2AnimatedManager@@@std@@UAEPAXI@Z 00413430 f i CW2Creature.obj
 0001:00012430       ??_G?$_Ref_count_obj2@VCW2AnimatedManager@@@std@@UAEPAXI@Z 00413430 f i CW2Creature.obj
 0001:00012470       ??_E?$_Ref_count_obj2@VCW2ImagePixelMapping@@@std@@UAEPAXI@Z 00413470 f i CW2Creature.obj
 0001:00012470       ??_G?$_Ref_count_obj2@VCW2ImagePixelMapping@@@std@@UAEPAXI@Z 00413470 f i CW2Creature.obj
 0001:000124b0       ??_G?$basic_string@DU?$char_traits@D@std@@V?$allocator@D@2@@std@@QAEPAXI@Z 004134b0 f i CW2Creature.obj
 0001:000124f0       ??_G?$pair@$$CBV?$basic_string@DU?$char_traits@D@std@@V?$allocator@D@2@@std@@V?$shared_ptr@VRawImageData@@@2@@std@@QAEPAXI@Z 004134f0 f i CW2Creature.obj
 0001:00012530       ??_G?$pair@$$CBV?$basic_string@DU?$char_traits@D@std@@V?$allocator@D@2@@std@@V?$weak_ptr@VRawImageData@@@2@@std@@QAEPAXI@Z 00413530 f i CW2Creature.obj
 0001:00012570       ??_GAggressiveMonster@@UAEPAXI@Z 00413570 f i CW2Creature.obj
 0001:00012570       ??_EAggressiveMonster@@UAEPAXI@Z 00413570 f i CW2Creature.obj
 0001:000125b0       ??_GCW2AnimatedManager@@QAEPAXI@Z 004135b0 f i CW2Creature.obj
 0001:000125f0       ??_ECW2Creature@@MAEPAXI@Z 004135f0 f i CW2Creature.obj
 0001:000125f0       ??_GCW2Creature@@MAEPAXI@Z 004135f0 f i CW2Creature.obj
 0001:00012630       ??_GCW2ImagePixelMapping@@QAEPAXI@Z 00413630 f i CW2Creature.obj
 0001:00012670       ??_ECW2Object@@MAEPAXI@Z   00413670 f i CW2Creature.obj
 0001:00012670       ??_GCW2Object@@MAEPAXI@Z   00413670 f i CW2Creature.obj
 0001:000126b0       ??_EDisplayableObjectContainer@@UAEPAXI@Z 004136b0 f i CW2Creature.obj
 0001:000126b0       ??_GDisplayableObjectContainer@@UAEPAXI@Z 004136b0 f i CW2Creature.obj
 0001:000126f0       ??_GImageManager@@QAEPAXI@Z 004136f0 f i CW2Creature.obj
 0001:00012730       ??_EMonster@@UAEPAXI@Z     00413730 f i CW2Creature.obj
 0001:00012730       ??_GMonster@@UAEPAXI@Z     00413730 f i CW2Creature.obj
 0001:00012770       ??_ENomalMonster@@UAEPAXI@Z 00413770 f i CW2Creature.obj
 0001:00012770       ??_GNomalMonster@@UAEPAXI@Z 00413770 f i CW2Creature.obj
 0001:000127b0       ??_EPeacefulMonster@@UAEPAXI@Z 004137b0 f i CW2Creature.obj
 0001:000127b0       ??_GPeacefulMonster@@UAEPAXI@Z 004137b0 f i CW2Creature.obj
 0001:000127f0       ??_GPlayer@@UAEPAXI@Z      004137f0 f i CW2Creature.obj
 0001:000127f0       ??_EPlayer@@UAEPAXI@Z      004137f0 f i CW2Creature.obj
 0001:00012830       ??_GRawImageData@@QAEPAXI@Z 00413830 f i CW2Creature.obj
 0001:00012870       ??_Gbad_alloc@std@@UAEPAXI@Z 00413870 f i CW2Creature.obj
 0001:00012870       ??_Ebad_alloc@std@@UAEPAXI@Z 00413870 f i CW2Creature.obj
 0001:000128b0       ??_Gbad_array_new_length@std@@UAEPAXI@Z 004138b0 f i CW2Creature.obj
 0001:000128b0       ??_Ebad_array_new_length@std@@UAEPAXI@Z 004138b0 f i CW2Creature.obj
 0001:000128f0       ??_Gexception@std@@UAEPAXI@Z 004138f0 f i CW2Creature.obj
 0001:000128f0       ??_Eexception@std@@UAEPAXI@Z 004138f0 f i CW2Creature.obj
 0001:00012930       ?Move@Monster@@UAEXXZ      00413930 f i CW2Creature.obj
 0001:00012940       ?_Adjust_manually_vector_aligned@std@@YAXAAPAXAAI@Z 00413940 f i CW2Creature.obj
 0001:00012a90       ?_Adopt@_Iterator_base0@std@@QAEXPBX@Z 00413a90 f i CW2Creature.obj
 0001:00012aa0       ?_Adopt@_Iterator_base12@std@@QAEXPBU_Container_base12@2@@Z 00413aa0 f i CW2Creature.obj
 0001:00012ac0       ?_Adopt_locked@_Iterator_base12@std@@AAEXPBU_Container_base12@2@@Z 00413ac0 f i CW2Creature.obj
 0001:00012b00       ?_Adopt_unlocked@_Iterator_base12@std@@AAEXPBU_Container_base12@2@@Z 00413b00 f i CW2Creature.obj
 0001:00012b80       ?_Alloc_sentinel_and_proxy@?$_Tree@V?$_Tmap_traits@V?$basic_string@DU?$char_traits@D@std@@V?$allocator@D@2@@std@@V?$shared_ptr@VRawImageData@@@2@U?$less@V?$basic_string@DU?$char_traits@D@std@@V?$allocator@D@2@@std@@@2@V?$allocator@U?$pair@$$CBV?$basic_string@DU?$char_traits@D@std@@V?$allocator@D@2@@std@@V?$shared_ptr@VRawImageData@@@2@@std@@@2@$0A@@std@@@std@@IAEXXZ 00413b80 f i CW2Creature.obj
 0001:00012c50       ?_Alloc_sentinel_and_proxy@?$_Tree@V?$_Tmap_traits@V?$basic_string@DU?$char_traits@D@std@@V?$allocator@D@2@@std@@V?$weak_ptr@VRawImageData@@@2@U?$less@V?$basic_string@DU?$char_traits@D@std@@V?$allocator@D@2@@std@@@2@V?$allocator@U?$pair@$$CBV?$basic_string@DU?$char_traits@D@std@@V?$allocator@D@2@@std@@V?$weak_ptr@VRawImageData@@@2@@std@@@2@$0A@@std@@@std@@IAEXXZ 00413c50 f i CW2Creature.obj
 0001:00012d20       ?_Allocate@?$_Alloc_construct_ptr@V?$allocator@U?$_Tree_node@U?$pair@$$CBV?$basic_string@DU?$char_traits@D@std@@V?$allocator@D@2@@std@@V?$shared_ptr@VRawImageData@@@2@@std@@PAX@std@@@std@@@std@@QAEXXZ 00413d20 f i CW2Creature.obj
 0001:00012d50       ?_Allocate@?$_Alloc_construct_ptr@V?$allocator@U?$_Tree_node@U?$pair@$$CBV?$basic_string@DU?$char_traits@D@std@@V?$allocator@D@2@@std@@V?$weak_ptr@VRawImageData@@@2@@std@@PAX@std@@@std@@@std@@QAEXXZ 00413d50 f i CW2Creature.obj
 0001:00012d80       ?_Allocate@_Default_allocate_traits@std@@SAPAXI@Z 00413d80 f i CW2Creature.obj
 0001:00012da0       ?_Assign_locked@_Iterator_base12@std@@AAEXABU12@@Z 00413da0 f i CW2Creature.obj
 0001:00012de0       ?_Assign_unlocked@_Iterator_base12@std@@AAEXABU12@@Z 00413de0 f i CW2Creature.obj
 0001:00012e30       ?_Buy_nonzero@?$vector@PAVDisplayableObject@@V?$allocator@PAVDisplayableObject@@@std@@@std@@AAEXI@Z 00413e30 f i CW2Creature.obj
 0001:00012e70       ?_Buy_nonzero@?$vector@V?$basic_string@DU?$char_traits@D@std@@V?$allocator@D@2@@std@@V?$allocator@V?$basic_string@DU?$char_traits@D@std@@V?$allocator@D@2@@std@@@2@@std@@AAEXI@Z 00413e70 f i CW2Creature.obj
 0001:00012eb0       ?_Buy_raw@?$vector@PAVDisplayableObject@@V?$allocator@PAVDisplayableObject@@@std@@@std@@AAEXI@Z 00413eb0 f i CW2Creature.obj
 0001:00012f30       ?_Buy_raw@?$vector@V?$basic_string@DU?$char_traits@D@std@@V?$allocator@D@2@@std@@V?$allocator@V?$basic_string@DU?$char_traits@D@std@@V?$allocator@D@2@@std@@@2@@std@@AAEXI@Z 00413f30 f i CW2Creature.obj
 0001:00012fb0       ?_Calculate_growth@?$basic_string@DU?$char_traits@D@std@@V?$allocator@D@2@@std@@ABEII@Z 00413fb0 f i CW2Creature.obj
 0001:00012ff0       ?_Calculate_growth@?$basic_string@DU?$char_traits@D@std@@V?$allocator@D@2@@std@@CAIIII@Z 00413ff0 f i CW2Creature.obj
 0001:00013060       ?_Check_grow_by_1@?$_Tree@V?$_Tmap_traits@V?$basic_string@DU?$char_traits@D@std@@V?$allocator@D@2@@std@@V?$shared_ptr@VRawImageData@@@2@U?$less@V?$basic_string@DU?$char_traits@D@std@@V?$allocator@D@2@@std@@@2@V?$allocator@U?$pair@$$CBV?$basic_string@DU?$char_traits@D@std@@V?$allocator@D@2@@std@@V?$shared_ptr@VRawImageData@@@2@@std@@@2@$0A@@std@@@std@@IAEXXZ 00414060 f i CW2Creature.obj
 0001:000130a0       ?_Check_grow_by_1@?$_Tree@V?$_Tmap_traits@V?$basic_string@DU?$char_traits@D@std@@V?$allocator@D@2@@std@@V?$weak_ptr@VRawImageData@@@2@U?$less@V?$basic_string@DU?$char_traits@D@std@@V?$allocator@D@2@@std@@@2@V?$allocator@U?$pair@$$CBV?$basic_string@DU?$char_traits@D@std@@V?$allocator@D@2@@std@@V?$weak_ptr@VRawImageData@@@2@@std@@@2@$0A@@std@@@std@@IAEXXZ 004140a0 f i CW2Creature.obj
 0001:000130e0       ?_Construct@?$basic_string@DU?$char_traits@D@std@@V?$allocator@D@2@@std@@QAEXQAD0Urandom_access_iterator_tag@2@@Z 004140e0 f i CW2Creature.obj
 0001:00013120       ?_Construct_lv_contents@?$basic_string@DU?$char_traits@D@std@@V?$allocator@D@2@@std@@AAEXABV12@@Z 00414120 f i CW2Creature.obj
 0001:00013270       ?_Decref@?$_Ptr_base@VCW2AnimatedManager@@@std@@IAEXXZ 00414270 f i CW2Creature.obj
 0001:000132a0       ?_Decref@?$_Ptr_base@VCW2ImagePixelMapping@@@std@@IAEXXZ 004142a0 f i CW2Creature.obj
 0001:000132d0       ?_Decref@?$_Ptr_base@VCW2TileManager@@@std@@IAEXXZ 004142d0 f i CW2Creature.obj
 0001:00013300       ?_Decref@?$_Ptr_base@VRawImageData@@@std@@IAEXXZ 00414300 f i CW2Creature.obj
 0001:00013330       ?_Decref@_Ref_count_base@std@@QAEXXZ 00414330 f i CW2Creature.obj
 0001:00013370       ?_Decwref@?$_Ptr_base@VRawImageData@@@std@@IAEXXZ 00414370 f i CW2Creature.obj
 0001:000133a0       ?_Decwref@_Ref_count_base@std@@QAEXXZ 004143a0 f i CW2Creature.obj
 0001:000133e0       ?_Delete_this@?$_Ref_count@VRawImageData@@@std@@EAEXXZ 004143e0 f i CW2Creature.obj
 0001:00013430       ?_Delete_this@?$_Ref_count_obj2@VCW2AnimatedManager@@@std@@EAEXXZ 00414430 f i CW2Creature.obj
 0001:00013480       ?_Delete_this@?$_Ref_count_obj2@VCW2ImagePixelMapping@@@std@@EAEXXZ 00414480 f i CW2Creature.obj
 0001:000134d0       ?_Destroy@?$_Ref_count@VRawImageData@@@std@@EAEXXZ 004144d0 f i CW2Creature.obj
 0001:00013510       ?_Destroy@?$_Ref_count_obj2@VCW2AnimatedManager@@@std@@EAEXXZ 00414510 f i CW2Creature.obj
 0001:00013530       ?_Destroy@?$_Ref_count_obj2@VCW2ImagePixelMapping@@@std@@EAEXXZ 00414530 f i CW2Creature.obj
 0001:00013550       ?_Destroy@?$vector@PAVDisplayableObject@@V?$allocator@PAVDisplayableObject@@@std@@@std@@AAEXPAPAVDisplayableObject@@0@Z 00414550 f i CW2Creature.obj
 0001:00013580       ?_Destroy@?$vector@V?$basic_string@DU?$char_traits@D@std@@V?$allocator@D@2@@std@@V?$allocator@V?$basic_string@DU?$char_traits@D@std@@V?$allocator@D@2@@std@@@2@@std@@AAEXPAV?$basic_string@DU?$char_traits@D@std@@V?$allocator@D@2@@2@0@Z 00414580 f i CW2Creature.obj
 0001:000135b0       ?_Destroy@?$vector@VCW2ImagePixelMapping@@V?$allocator@VCW2ImagePixelMapping@@@std@@@std@@AAEXPAVCW2ImagePixelMapping@@0@Z 004145b0 f i CW2Creature.obj
 0001:000135e0       ?_Erase_unchecked@?$_Tree@V?$_Tmap_traits@V?$basic_string@DU?$char_traits@D@std@@V?$allocator@D@2@@std@@V?$weak_ptr@VRawImageData@@@2@U?$less@V?$basic_string@DU?$char_traits@D@std@@V?$allocator@D@2@@std@@@2@V?$allocator@U?$pair@$$CBV?$basic_string@DU?$char_traits@D@std@@V?$allocator@D@2@@std@@V?$weak_ptr@VRawImageData@@@2@@std@@@2@$0A@@std@@@std@@AAEPAU?$_Tree_node@U?$pair@$$CBV?$basic_string@DU?$char_traits@D@std@@V?$allocator@D@2@@std@@V?$weak_ptr@VRawImageData@@@2@@std@@PAX@2@V?$_Tree_unchecked_const_iterator@V?$_Tree_val@U?$_Tree_simple_types@U?$pair@$$CBV?$basic_string@DU?$char_traits@D@std@@V?$allocator@D@2@@std@@V?$weak_ptr@VRawImageData@@@2@@std@@@std@@@std@@U_Iterator_base0@2@@2@@Z 004145e0 f i CW2Creature.obj
 0001:00013660       ?_Extract@?$_In_place_key_extract_map@V?$basic_string@DU?$char_traits@D@std@@V?$allocator@D@2@@std@@U?$pair@V?$basic_string@DU?$char_traits@D@std@@V?$allocator@D@2@@std@@V?$shared_ptr@VRawImageData@@@2@@2@@std@@SAABV?$basic_string@DU?$char_traits@D@std@@V?$allocator@D@2@@2@ABU?$pair@V?$basic_string@DU?$char_traits@D@std@@V?$allocator@D@2@@std@@V?$shared_ptr@VRawImageData@@@2@@2@@Z 00414660 f i CW2Creature.obj
 0001:00013670       ?_Extract@?$_In_place_key_extract_map@V?$basic_string@DU?$char_traits@D@std@@V?$allocator@D@2@@std@@U?$pair@V?$basic_string@DU?$char_traits@D@std@@V?$allocator@D@2@@std@@V?$weak_ptr@VRawImageData@@@2@@2@@std@@SAABV?$basic_string@DU?$char_traits@D@std@@V?$allocator@D@2@@2@ABU?$pair@V?$basic_string@DU?$char_traits@D@std@@V?$allocator@D@2@@std@@V?$weak_ptr@VRawImageData@@@2@@2@@Z 00414670 f i CW2Creature.obj
 0001:00013680       ?_Extract@?$_Tree_val@U?$_Tree_simple_types@U?$pair@$$CBV?$basic_string@DU?$char_traits@D@std@@V?$allocator@D@2@@std@@V?$weak_ptr@VRawImageData@@@2@@std@@@std@@@std@@QAEPAU?$_Tree_node@U?$pair@$$CBV?$basic_string@DU?$char_traits@D@std@@V?$allocator@D@2@@std@@V?$weak_ptr@VRawImageData@@@2@@std@@PAX@2@V?$_Tree_unchecked_const_iterator@V?$_Tree_val@U?$_Tree_simple_types@U?$pair@$$CBV?$basic_string@DU?$char_traits@D@std@@V?$allocator@D@2@@std@@V?$weak_ptr@VRawImageData@@@2@@std@@@std@@@std@@U_Iterator_base0@2@@2@@Z 00414680 f i CW2Creature.obj
 0001:00013bc0       ?_Get_deleter@_Ref_count_base@std@@UBEPAXABVtype_info@@@Z 00414bc0 f i CW2Creature.obj
 0001:00013be0       ?_Get_first@?$_Compressed_pair@U?$less@V?$basic_string@DU?$char_traits@D@std@@V?$allocator@D@2@@std@@@std@@V?$_Compressed_pair@V?$allocator@U?$_Tree_node@U?$pair@$$CBV?$basic_string@DU?$char_traits@D@std@@V?$allocator@D@2@@std@@V?$shared_ptr@VRawImageData@@@2@@std@@PAX@std@@@std@@V?$_Tree_val@U?$_Tree_simple_types@U?$pair@$$CBV?$basic_string@DU?$char_traits@D@std@@V?$allocator@D@2@@std@@V?$shared_ptr@VRawImageData@@@2@@std@@@std@@@2@$00@2@$00@std@@QBEABU?$less@V?$basic_string@DU?$char_traits@D@std@@V?$allocator@D@2@@std@@@2@XZ 00414be0 f i CW2Creature.obj
 0001:00013c00       ?_Get_first@?$_Compressed_pair@U?$less@V?$basic_string@DU?$char_traits@D@std@@V?$allocator@D@2@@std@@@std@@V?$_Compressed_pair@V?$allocator@U?$_Tree_node@U?$pair@$$CBV?$basic_string@DU?$char_traits@D@std@@V?$allocator@D@2@@std@@V?$weak_ptr@VRawImageData@@@2@@std@@PAX@std@@@std@@V?$_Tree_val@U?$_Tree_simple_types@U?$pair@$$CBV?$basic_string@DU?$char_traits@D@std@@V?$allocator@D@2@@std@@V?$weak_ptr@VRawImageData@@@2@@std@@@std@@@2@$00@2@$00@std@@QBEABU?$less@V?$basic_string@DU?$char_traits@D@std@@V?$allocator@D@2@@std@@@2@XZ 00414c00 f i CW2Creature.obj
 0001:00013c20       ?_Get_first@?$_Compressed_pair@V?$allocator@D@std@@V?$_String_val@U?$_Simple_types@D@std@@@2@$00@std@@QAEAAV?$allocator@D@2@XZ 00414c20 f i CW2Creature.obj
 0001:00013c40       ?_Get_first@?$_Compressed_pair@V?$allocator@D@std@@V?$_String_val@U?$_Simple_types@D@std@@@2@$00@std@@QBEABV?$allocator@D@2@XZ 00414c40 f i CW2Creature.obj
 0001:00013c60       ?_Get_first@?$_Compressed_pair@V?$allocator@PAVDisplayableObject@@@std@@V?$_Vector_val@U?$_Simple_types@PAVDisplayableObject@@@std@@@2@$00@std@@QAEAAV?$allocator@PAVDisplayableObject@@@2@XZ 00414c60 f i CW2Creature.obj
 0001:00013c80       ?_Get_first@?$_Compressed_pair@V?$allocator@PAVDisplayableObject@@@std@@V?$_Vector_val@U?$_Simple_types@PAVDisplayableObject@@@std@@@2@$00@std@@QBEABV?$allocator@PAVDisplayableObject@@@2@XZ 00414c80 f i CW2Creature.obj
 0001:00013ca0       ?_Get_first@?$_Compressed_pair@V?$allocator@U?$_Tree_node@U?$pair@$$CBV?$basic_string@DU?$char_traits@D@std@@V?$allocator@D@2@@std@@V?$shared_ptr@VRawImageData@@@2@@std@@PAX@std@@@std@@V?$_Tree_val@U?$_Tree_simple_types@U?$pair@$$CBV?$basic_string@DU?$char_traits@D@std@@V?$allocator@D@2@@std@@V?$shared_ptr@VRawImageData@@@2@@std@@@std@@@2@$00@std@@QAEAAV?$allocator@U?$_Tree_node@U?$pair@$$CBV?$basic_string@DU?$char_traits@D@std@@V?$allocator@D@2@@std@@V?$shared_ptr@VRawImageData@@@2@@std@@PAX@std@@@2@XZ 00414ca0 f i CW2Creature.obj
 0001:00013cc0       ?_Get_first@?$_Compressed_pair@V?$allocator@U?$_Tree_node@U?$pair@$$CBV?$basic_string@DU?$char_traits@D@std@@V?$allocator@D@2@@std@@V?$shared_ptr@VRawImageData@@@2@@std@@PAX@std@@@std@@V?$_Tree_val@U?$_Tree_simple_types@U?$pair@$$CBV?$basic_string@DU?$char_traits@D@std@@V?$allocator@D@2@@std@@V?$shared_ptr@VRawImageData@@@2@@std@@@std@@@2@$00@std@@QBEABV?$allocator@U?$_Tree_node@U?$pair@$$CBV?$basic_string@DU?$char_traits@D@std@@V?$allocator@D@2@@std@@V?$shared_ptr@VRawImageData@@@2@@std@@PAX@std@@@2@XZ 00414cc0 f i CW2Creature.obj
 0001:00013ce0       ?_Get_first@?$_Compressed_pair@V?$allocator@U?$_Tree_node@U?$pair@$$CBV?$basic_string@DU?$char_traits@D@std@@V?$allocator@D@2@@std@@V?$weak_ptr@VRawImageData@@@2@@std@@PAX@std@@@std@@V?$_Tree_val@U?$_Tree_simple_types@U?$pair@$$CBV?$basic_string@DU?$char_traits@D@std@@V?$allocator@D@2@@std@@V?$weak_ptr@VRawImageData@@@2@@std@@@std@@@2@$00@std@@QAEAAV?$allocator@U?$_Tree_node@U?$pair@$$CBV?$basic_string@DU?$char_traits@D@std@@V?$allocator@D@2@@std@@V?$weak_ptr@VRawImageData@@@2@@std@@PAX@std@@@2@XZ 00414ce0 f i CW2Creature.obj
 0001:00013d00       ?_Get_first@?$_Compressed_pair@V?$allocator@U?$_Tree_node@U?$pair@$$CBV?$basic_string@DU?$char_traits@D@std@@V?$allocator@D@2@@std@@V?$weak_ptr@VRawImageData@@@2@@std@@PAX@std@@@std@@V?$_Tree_val@U?$_Tree_simple_types@U?$pair@$$CBV?$basic_string@DU?$char_traits@D@std@@V?$allocator@D@2@@std@@V?$weak_ptr@VRawImageData@@@2@@std@@@std@@@2@$00@std@@QBEABV?$allocator@U?$_Tree_node@U?$pair@$$CBV?$basic_string@DU?$char_traits@D@std@@V?$allocator@D@2@@std@@V?$weak_ptr@VRawImageData@@@2@@std@@PAX@std@@@2@XZ 00414d00 f i CW2Creature.obj
 0001:00013d20       ?_Get_first@?$_Compressed_pair@V?$allocator@V?$basic_string@DU?$char_traits@D@std@@V?$allocator@D@2@@std@@@std@@V?$_Vector_val@U?$_Simple_types@V?$basic_string@DU?$char_traits@D@std@@V?$allocator@D@2@@std@@@std@@@2@$00@std@@QAEAAV?$allocator@V?$basic_string@DU?$char_traits@D@std@@V?$allocator@D@2@@std@@@2@XZ 00414d20 f i CW2Creature.obj
 0001:00013d40       ?_Get_first@?$_Compressed_pair@V?$allocator@V?$basic_string@DU?$char_traits@D@std@@V?$allocator@D@2@@std@@@std@@V?$_Vector_val@U?$_Simple_types@V?$basic_string@DU?$char_traits@D@std@@V?$allocator@D@2@@std@@@std@@@2@$00@std@@QBEABV?$allocator@V?$basic_string@DU?$char_traits@D@std@@V?$allocator@D@2@@std@@@2@XZ 00414d40 f i CW2Creature.obj
 0001:00013d60       ?_Get_first@?$_Compressed_pair@V?$allocator@VCW2ImagePixelMapping@@@std@@V?$_Vector_val@U?$_Simple_types@VCW2ImagePixelMapping@@@std@@@2@$00@std@@QAEAAV?$allocator@VCW2ImagePixelMapping@@@2@XZ 00414d60 f i CW2Creature.obj
 0001:00013d80       ?_Get_scary@?$_Tree@V?$_Tmap_traits@V?$basic_string@DU?$char_traits@D@std@@V?$allocator@D@2@@std@@V?$shared_ptr@VRawImageData@@@2@U?$less@V?$basic_string@DU?$char_traits@D@std@@V?$allocator@D@2@@std@@@2@V?$allocator@U?$pair@$$CBV?$basic_string@DU?$char_traits@D@std@@V?$allocator@D@2@@std@@V?$shared_ptr@VRawImageData@@@2@@std@@@2@$0A@@std@@@std@@IAEPAV?$_Tree_val@U?$_Tree_simple_types@U?$pair@$$CBV?$basic_string@DU?$char_traits@D@std@@V?$allocator@D@2@@std@@V?$shared_ptr@VRawImageData@@@2@@std@@@std@@@2@XZ 00414d80 f i CW2Creature.obj
 0001:00013da0       ?_Get_scary@?$_Tree@V?$_Tmap_traits@V?$basic_string@DU?$char_traits@D@std@@V?$allocator@D@2@@std@@V?$shared_ptr@VRawImageData@@@2@U?$less@V?$basic_string@DU?$char_traits@D@std@@V?$allocator@D@2@@std@@@2@V?$allocator@U?$pair@$$CBV?$basic_string@DU?$char_traits@D@std@@V?$allocator@D@2@@std@@V?$shared_ptr@VRawImageData@@@2@@std@@@2@$0A@@std@@@std@@IBEPBV?$_Tree_val@U?$_Tree_simple_types@U?$pair@$$CBV?$basic_string@DU?$char_traits@D@std@@V?$allocator@D@2@@std@@V?$shared_ptr@VRawImageData@@@2@@std@@@std@@@2@XZ 00414da0 f i CW2Creature.obj
 0001:00013dc0       ?_Get_scary@?$_Tree@V?$_Tmap_traits@V?$basic_string@DU?$char_traits@D@std@@V?$allocator@D@2@@std@@V?$weak_ptr@VRawImageData@@@2@U?$less@V?$basic_string@DU?$char_traits@D@std@@V?$allocator@D@2@@std@@@2@V?$allocator@U?$pair@$$CBV?$basic_string@DU?$char_traits@D@std@@V?$allocator@D@2@@std@@V?$weak_ptr@VRawImageData@@@2@@std@@@2@$0A@@std@@@std@@IAEPAV?$_Tree_val@U?$_Tree_simple_types@U?$pair@$$CBV?$basic_string@DU?$char_traits@D@std@@V?$allocator@D@2@@std@@V?$weak_ptr@VRawImageData@@@2@@std@@@std@@@2@XZ 00414dc0 f i CW2Creature.obj
 0001:00013de0       ?_Get_scary@?$_Tree@V?$_Tmap_traits@V?$basic_string@DU?$char_traits@D@std@@V?$allocator@D@2@@std@@V?$weak_ptr@VRawImageData@@@2@U?$less@V?$basic_string@DU?$char_traits@D@std@@V?$allocator@D@2@@std@@@2@V?$allocator@U?$pair@$$CBV?$basic_string@DU?$char_traits@D@std@@V?$allocator@D@2@@std@@V?$weak_ptr@VRawImageData@@@2@@std@@@2@$0A@@std@@@std@@IBEPBV?$_Tree_val@U?$_Tree_simple_types@U?$pair@$$CBV?$basic_string@DU?$char_traits@D@std@@V?$allocator@D@2@@std@@V?$weak_ptr@VRawImageData@@@2@@std@@@std@@@2@XZ 00414de0 f i CW2Creature.obj
 0001:00013e00       ?_Getal@?$_Tree@V?$_Tmap_traits@V?$basic_string@DU?$char_traits@D@std@@V?$allocator@D@2@@std@@V?$shared_ptr@VRawImageData@@@2@U?$less@V?$basic_string@DU?$char_traits@D@std@@V?$allocator@D@2@@std@@@2@V?$allocator@U?$pair@$$CBV?$basic_string@DU?$char_traits@D@std@@V?$allocator@D@2@@std@@V?$shared_ptr@VRawImageData@@@2@@std@@@2@$0A@@std@@@std@@IAEAAV?$allocator@U?$_Tree_node@U?$pair@$$CBV?$basic_string@DU?$char_traits@D@std@@V?$allocator@D@2@@std@@V?$shared_ptr@VRawImageData@@@2@@std@@PAX@std@@@2@XZ 00414e00 f i CW2Creature.obj
 0001:00013e20       ?_Getal@?$_Tree@V?$_Tmap_traits@V?$basic_string@DU?$char_traits@D@std@@V?$allocator@D@2@@std@@V?$shared_ptr@VRawImageData@@@2@U?$less@V?$basic_string@DU?$char_traits@D@std@@V?$allocator@D@2@@std@@@2@V?$allocator@U?$pair@$$CBV?$basic_string@DU?$char_traits@D@std@@V?$allocator@D@2@@std@@V?$shared_ptr@VRawImageData@@@2@@std@@@2@$0A@@std@@@std@@IBEABV?$allocator@U?$_Tree_node@U?$pair@$$CBV?$basic_string@DU?$char_traits@D@std@@V?$allocator@D@2@@std@@V?$shared_ptr@VRawImageData@@@2@@std@@PAX@std@@@2@XZ 00414e20 f i CW2Creature.obj
 0001:00013e40       ?_Getal@?$_Tree@V?$_Tmap_traits@V?$basic_string@DU?$char_traits@D@std@@V?$allocator@D@2@@std@@V?$weak_ptr@VRawImageData@@@2@U?$less@V?$basic_string@DU?$char_traits@D@std@@V?$allocator@D@2@@std@@@2@V?$allocator@U?$pair@$$CBV?$basic_string@DU?$char_traits@D@std@@V?$allocator@D@2@@std@@V?$weak_ptr@VRawImageData@@@2@@std@@@2@$0A@@std@@@std@@IAEAAV?$allocator@U?$_Tree_node@U?$pair@$$CBV?$basic_string@DU?$char_traits@D@std@@V?$allocator@D@2@@std@@V?$weak_ptr@VRawImageData@@@2@@std@@PAX@std@@@2@XZ 00414e40 f i CW2Creature.obj
 0001:00013e60       ?_Getal@?$_Tree@V?$_Tmap_traits@V?$basic_string@DU?$char_traits@D@std@@V?$allocator@D@2@@std@@V?$weak_ptr@VRawImageData@@@2@U?$less@V?$basic_string@DU?$char_traits@D@std@@V?$allocator@D@2@@std@@@2@V?$allocator@U?$pair@$$CBV?$basic_string@DU?$char_traits@D@std@@V?$allocator@D@2@@std@@V?$weak_ptr@VRawImageData@@@2@@std@@@2@$0A@@std@@@std@@IBEABV?$allocator@U?$_Tree_node@U?$pair@$$CBV?$basic_string@DU?$char_traits@D@std@@V?$allocator@D@2@@std@@V?$weak_ptr@VRawImageData@@@2@@std@@PAX@std@@@2@XZ 00414e60 f i CW2Creature.obj
 0001:00013e80       ?_Getal@?$basic_string@DU?$char_traits@D@std@@V?$allocator@D@2@@std@@AAEAAV?$allocator@D@2@XZ 00414e80 f i CW2Creature.obj
 0001:00013ea0       ?_Getal@?$basic_string@DU?$char_traits@D@std@@V?$allocator@D@2@@std@@ABEABV?$allocator@D@2@XZ 00414ea0 f i CW2Creature.obj
 0001:00013ec0       ?_Getal@?$vector@PAVDisplayableObject@@V?$allocator@PAVDisplayableObject@@@std@@@std@@AAEAAV?$allocator@PAVDisplayableObject@@@2@XZ 00414ec0 f i CW2Creature.obj
 0001:00013ee0       ?_Getal@?$vector@PAVDisplayableObject@@V?$allocator@PAVDisplayableObject@@@std@@@std@@ABEABV?$allocator@PAVDisplayableObject@@@2@XZ 00414ee0 f i CW2Creature.obj
 0001:00013f00       ?_Getal@?$vector@V?$basic_string@DU?$char_traits@D@std@@V?$allocator@D@2@@std@@V?$allocator@V?$basic_string@DU?$char_traits@D@std@@V?$allocator@D@2@@std@@@2@@std@@AAEAAV?$allocator@V?$basic_string@DU?$char_traits@D@std@@V?$allocator@D@2@@std@@@2@XZ 00414f00 f i CW2Creature.obj
 0001:00013f20       ?_Getal@?$vector@V?$basic_string@DU?$char_traits@D@std@@V?$allocator@D@2@@std@@V?$allocator@V?$basic_string@DU?$char_traits@D@std@@V?$allocator@D@2@@std@@@2@@std@@ABEABV?$allocator@V?$basic_string@DU?$char_traits@D@std@@V?$allocator@D@2@@std@@@2@XZ 00414f20 f i CW2Creature.obj
 0001:00013f40       ?_Getal@?$vector@VCW2ImagePixelMapping@@V?$allocator@VCW2ImagePixelMapping@@@std@@@std@@AAEAAV?$allocator@VCW2ImagePixelMapping@@@2@XZ 00414f40 f i CW2Creature.obj
 0001:00013f60       ?_Getcomp@?$_Tree@V?$_Tmap_traits@V?$basic_string@DU?$char_traits@D@std@@V?$allocator@D@2@@std@@V?$shared_ptr@VRawImageData@@@2@U?$less@V?$basic_string@DU?$char_traits@D@std@@V?$allocator@D@2@@std@@@2@V?$allocator@U?$pair@$$CBV?$basic_string@DU?$char_traits@D@std@@V?$allocator@D@2@@std@@V?$shared_ptr@VRawImageData@@@2@@std@@@2@$0A@@std@@@std@@IBEABU?$less@V?$basic_string@DU?$char_traits@D@std@@V?$allocator@D@2@@std@@@2@XZ 00414f60 f i CW2Creature.obj
 0001:00013f80       ?_Getcomp@?$_Tree@V?$_Tmap_traits@V?$basic_string@DU?$char_traits@D@std@@V?$allocator@D@2@@std@@V?$weak_ptr@VRawImageData@@@2@U?$less@V?$basic_string@DU?$char_traits@D@std@@V?$allocator@D@2@@std@@@2@V?$allocator@U?$pair@$$CBV?$basic_string@DU?$char_traits@D@std@@V?$allocator@D@2@@std@@V?$weak_ptr@VRawImageData@@@2@@std@@@2@$0A@@std@@@std@@IBEABU?$less@V?$basic_string@DU?$char_traits@D@std@@V?$allocator@D@2@@std@@@2@XZ 00414f80 f i CW2Creature.obj
 0001:00013fa0       ?_Getcont@_Iterator_base12@std@@QBEPBU_Container_base12@2@XZ 00414fa0 f i CW2Creature.obj
 0001:00013fe0       ?_Incref@?$_Ptr_base@VCW2AnimatedManager@@@std@@IBEXXZ 00414fe0 f i CW2Creature.obj
 0001:00014010       ?_Incref@?$_Ptr_base@VCW2TileManager@@@std@@IBEXXZ 00415010 f i CW2Creature.obj
 0001:00014040       ?_Incref@?$_Ptr_base@VRawImageData@@@std@@IBEXXZ 00415040 f i CW2Creature.obj
 0001:00014070       ?_Incref@_Ref_count_base@std@@QAEXXZ 00415070 f i CW2Creature.obj
 0001:00014090       ?_Incref_nz@_Ref_count_base@std@@QAE_NXZ 00415090 f i CW2Creature.obj
 0001:00014100       ?_Incwref@_Ref_count_base@std@@QAEXXZ 00415100 f i CW2Creature.obj
 0001:00014120       ?_Insert_node@?$_Tree_val@U?$_Tree_simple_types@U?$pair@$$CBV?$basic_string@DU?$char_traits@D@std@@V?$allocator@D@2@@std@@V?$shared_ptr@VRawImageData@@@2@@std@@@std@@@std@@QAEPAU?$_Tree_node@U?$pair@$$CBV?$basic_string@DU?$char_traits@D@std@@V?$allocator@D@2@@std@@V?$shared_ptr@VRawImageData@@@2@@std@@PAX@2@U?$_Tree_id@PAU?$_Tree_node@U?$pair@$$CBV?$basic_string@DU?$char_traits@D@std@@V?$allocator@D@2@@std@@V?$shared_ptr@VRawImageData@@@2@@std@@PAX@std@@@2@QAU32@@Z 00415120 f i CW2Creature.obj
 0001:000143b0       ?_Insert_node@?$_Tree_val@U?$_Tree_simple_types@U?$pair@$$CBV?$basic_string@DU?$char_traits@D@std@@V?$allocator@D@2@@std@@V?$weak_ptr@VRawImageData@@@2@@std@@@std@@@std@@QAEPAU?$_Tree_node@U?$pair@$$CBV?$basic_string@DU?$char_traits@D@std@@V?$allocator@D@2@@std@@V?$weak_ptr@VRawImageData@@@2@@std@@PAX@2@U?$_Tree_id@PAU?$_Tree_node@U?$pair@$$CBV?$basic_string@DU?$char_traits@D@std@@V?$allocator@D@2@@std@@V?$weak_ptr@VRawImageData@@@2@@std@@PAX@std@@@2@QAU32@@Z 004153b0 f i CW2Creature.obj
 0001:00014640       ?_Large_string_engaged@?$_String_val@U?$_Simple_types@D@std@@@std@@QBE_NXZ 00415640 f i CW2Creature.obj
 0001:00014680       ?_Lrotate@?$_Tree_val@U?$_Tree_simple_types@U?$pair@$$CBV?$basic_string@DU?$char_traits@D@std@@V?$allocator@D@2@@std@@V?$shared_ptr@VRawImageData@@@2@@std@@@std@@@std@@QAEXPAU?$_Tree_node@U?$pair@$$CBV?$basic_string@DU?$char_traits@D@std@@V?$allocator@D@2@@std@@V?$shared_ptr@VRawImageData@@@2@@std@@PAX@2@@Z 00415680 f i CW2Creature.obj
 0001:00014740       ?_Lrotate@?$_Tree_val@U?$_Tree_simple_types@U?$pair@$$CBV?$basic_string@DU?$char_traits@D@std@@V?$allocator@D@2@@std@@V?$weak_ptr@VRawImageData@@@2@@std@@@std@@@std@@QAEXPAU?$_Tree_node@U?$pair@$$CBV?$basic_string@DU?$char_traits@D@std@@V?$allocator@D@2@@std@@V?$weak_ptr@VRawImageData@@@2@@std@@PAX@2@@Z 00415740 f i CW2Creature.obj
 0001:00014800       ?_Max@?$_Tree_val@U?$_Tree_simple_types@U?$pair@$$CBV?$basic_string@DU?$char_traits@D@std@@V?$allocator@D@2@@std@@V?$weak_ptr@VRawImageData@@@2@@std@@@std@@@std@@SAPAU?$_Tree_node@U?$pair@$$CBV?$basic_string@DU?$char_traits@D@std@@V?$allocator@D@2@@std@@V?$weak_ptr@VRawImageData@@@2@@std@@PAX@2@PAU32@@Z 00415800 f i CW2Creature.obj
 0001:00014830       ?_Memcpy_val_from@?$basic_string@DU?$char_traits@D@std@@V?$allocator@D@2@@std@@AAEXABV12@@Z 00415830 f i CW2Creature.obj
 0001:00014890       ?_Min@?$_Tree_val@U?$_Tree_simple_types@U?$pair@$$CBV?$basic_string@DU?$char_traits@D@std@@V?$allocator@D@2@@std@@V?$weak_ptr@VRawImageData@@@2@@std@@@std@@@std@@SAPAU?$_Tree_node@U?$pair@$$CBV?$basic_string@DU?$char_traits@D@std@@V?$allocator@D@2@@std@@V?$weak_ptr@VRawImageData@@@2@@std@@PAX@2@PAU32@@Z 00415890 f i CW2Creature.obj
 0001:000148c0       ?_Myptr@?$_String_val@U?$_Simple_types@D@std@@@std@@QAEPADXZ 004158c0 f i CW2Creature.obj
 0001:00014910       ?_Myptr@?$_String_val@U?$_Simple_types@D@std@@@std@@QBEPBDXZ 00415910 f i CW2Creature.obj
 0001:00014960       ?_Orphan_all@_Container_base12@std@@QAEXXZ 00415960 f i CW2Creature.obj
 0001:00014980       ?_Orphan_all_locked_v3@_Container_base12@std@@AAEXXZ 00415980 f i CW2Creature.obj
 0001:000149c0       ?_Orphan_all_unlocked_v3@_Container_base12@std@@AAEXXZ 004159c0 f i CW2Creature.obj
 0001:00014a30       ?_Orphan_me_locked_v3@_Iterator_base12@std@@AAEXXZ 00415a30 f i CW2Creature.obj
 0001:00014a70       ?_Orphan_me_unlocked_v3@_Iterator_base12@std@@AAEXXZ 00415a70 f i CW2Creature.obj
 0001:00014b60       ?_Orphan_ptr@?$_Tree_val@U?$_Tree_simple_types@U?$pair@$$CBV?$basic_string@DU?$char_traits@D@std@@V?$allocator@D@2@@std@@V?$weak_ptr@VRawImageData@@@2@@std@@@std@@@std@@QAEXQAU?$_Tree_node@U?$pair@$$CBV?$basic_string@DU?$char_traits@D@std@@V?$allocator@D@2@@std@@V?$weak_ptr@VRawImageData@@@2@@std@@PAX@2@@Z 00415b60 f i CW2Creature.obj
 0001:00014c10       ?_Release@?$_Alloc_construct_ptr@V?$allocator@U?$_Tree_node@U?$pair@$$CBV?$basic_string@DU?$char_traits@D@std@@V?$allocator@D@2@@std@@V?$shared_ptr@VRawImageData@@@2@@std@@PAX@std@@@std@@@std@@QAEPAU?$_Tree_node@U?$pair@$$CBV?$basic_string@DU?$char_traits@D@std@@V?$allocator@D@2@@std@@V?$shared_ptr@VRawImageData@@@2@@std@@PAX@2@XZ 00415c10 f i CW2Creature.obj
 0001:00014c40       ?_Release@?$_Alloc_construct_ptr@V?$allocator@U?$_Tree_node@U?$pair@$$CBV?$basic_string@DU?$char_traits@D@std@@V?$allocator@D@2@@std@@V?$weak_ptr@VRawImageData@@@2@@std@@PAX@std@@@std@@@std@@QAEPAU?$_Tree_node@U?$pair@$$CBV?$basic_string@DU?$char_traits@D@std@@V?$allocator@D@2@@std@@V?$weak_ptr@VRawImageData@@@2@@std@@PAX@2@XZ 00415c40 f i CW2Creature.obj
 0001:00014c70       ?_Release@?$_Uninitialized_backout_al@V?$allocator@PAVDisplayableObject@@@std@@@std@@QAEPAPAVDisplayableObject@@XZ 00415c70 f i CW2Creature.obj
 0001:00014ca0       ?_Release@?$_Uninitialized_backout_al@V?$allocator@V?$basic_string@DU?$char_traits@D@std@@V?$allocator@D@2@@std@@@std@@@std@@QAEPAV?$basic_string@DU?$char_traits@D@std@@V?$allocator@D@2@@2@XZ 00415ca0 f i CW2Creature.obj
 0001:00014cd0       ?_Release@_Basic_container_proxy_ptr12@std@@QAEXXZ 00415cd0 f i CW2Creature.obj
 0001:00014cf0       ?_Rrotate@?$_Tree_val@U?$_Tree_simple_types@U?$pair@$$CBV?$basic_string@DU?$char_traits@D@std@@V?$allocator@D@2@@std@@V?$shared_ptr@VRawImageData@@@2@@std@@@std@@@std@@QAEXPAU?$_Tree_node@U?$pair@$$CBV?$basic_string@DU?$char_traits@D@std@@V?$allocator@D@2@@std@@V?$shared_ptr@VRawImageData@@@2@@std@@PAX@2@@Z 00415cf0 f i CW2Creature.obj
 0001:00014dc0       ?_Rrotate@?$_Tree_val@U?$_Tree_simple_types@U?$pair@$$CBV?$basic_string@DU?$char_traits@D@std@@V?$allocator@D@2@@std@@V?$weak_ptr@VRawImageData@@@2@@std@@@std@@@std@@QAEXPAU?$_Tree_node@U?$pair@$$CBV?$basic_string@DU?$char_traits@D@std@@V?$allocator@D@2@@std@@V?$weak_ptr@VRawImageData@@@2@@std@@PAX@2@@Z 00415dc0 f i CW2Creature.obj
 0001:00014e90       ?_Swap@?$_Ptr_base@VCW2AnimatedManager@@@std@@IAEXAAV12@@Z 00415e90 f i CW2Creature.obj
 0001:00014ed0       ?_Swap@?$_Ptr_base@VCW2ImagePixelMapping@@@std@@IAEXAAV12@@Z 00415ed0 f i CW2Creature.obj
 0001:00014f10       ?_Swap_proxy_and_iterators@?$basic_string@DU?$char_traits@D@std@@V?$allocator@D@2@@std@@AAEXAAV12@@Z 00415f10 f i CW2Creature.obj
 0001:00014f30       ?_Swap_proxy_and_iterators@_Container_base12@std@@QAEXAAU12@@Z 00415f30 f i CW2Creature.obj
 0001:00014f50       ?_Swap_proxy_and_iterators_locked@_Container_base12@std@@AAEXAAU12@@Z 00415f50 f i CW2Creature.obj
 0001:00014f90       ?_Swap_proxy_and_iterators_unlocked@_Container_base12@std@@AAEXAAU12@@Z 00415f90 f i CW2Creature.obj
 0001:00014ff0       ?_Swap_val@?$_Vector_val@U?$_Simple_types@VCW2ImagePixelMapping@@@std@@@std@@QAEXAAV12@@Z 00415ff0 f i CW2Creature.obj
 0001:00015070       ?_Take_contents@?$basic_string@DU?$char_traits@D@std@@V?$allocator@D@2@@std@@AAEXAAV12@@Z 00416070 f i CW2Creature.obj
 0001:000151c0       ?_Throw_bad_array_new_length@std@@YAXXZ 004161c0 f i CW2Creature.obj
 0001:000151f0       ?_Throw_tree_length_error@std@@YAXXZ 004161f0 f i CW2Creature.obj
 0001:00015210       ?_Tidy@?$vector@PAVDisplayableObject@@V?$allocator@PAVDisplayableObject@@@std@@@std@@AAEXXZ 00416210 f i CW2Creature.obj
 0001:00015300       ?_Tidy@?$vector@V?$basic_string@DU?$char_traits@D@std@@V?$allocator@D@2@@std@@V?$allocator@V?$basic_string@DU?$char_traits@D@std@@V?$allocator@D@2@@std@@@2@@std@@AAEXXZ 00416300 f i CW2Creature.obj
 0001:00015400       ?_Tidy@?$vector@VCW2ImagePixelMapping@@V?$allocator@VCW2ImagePixelMapping@@@std@@@std@@AAEXXZ 00416400 f i CW2Creature.obj
 0001:00015500       ?_Tidy_deallocate@?$basic_string@DU?$char_traits@D@std@@V?$allocator@D@2@@std@@AAEXXZ 00416500 f i CW2Creature.obj
 0001:000155f0       ?_Tidy_init@?$basic_string@DU?$char_traits@D@std@@V?$allocator@D@2@@std@@AAEXXZ 004165f0 f i CW2Creature.obj
 0001:00015650       ?_Ufill@?$vector@PAVDisplayableObject@@V?$allocator@PAVDisplayableObject@@@std@@@std@@AAEPAPAVDisplayableObject@@PAPAV3@IU_Value_init_tag@2@@Z 00416650 f i CW2Creature.obj
 0001:00015680       ?_Unwrapped@?$_Tree_iterator@V?$_Tree_val@U?$_Tree_simple_types@U?$pair@$$CBV?$basic_string@DU?$char_traits@D@std@@V?$allocator@D@2@@std@@V?$weak_ptr@VRawImageData@@@2@@std@@@std@@@std@@@std@@QBE?AV?$_Tree_unchecked_iterator@V?$_Tree_val@U?$_Tree_simple_types@U?$pair@$$CBV?$basic_string@DU?$char_traits@D@std@@V?$allocator@D@2@@std@@V?$weak_ptr@VRawImageData@@@2@@std@@@std@@@std@@@2@XZ 00416680 f i CW2Creature.obj
 0001:000156c0       ?_Use_count@_Ref_count_base@std@@QBEJXZ 004166c0 f i CW2Creature.obj
 0001:000156e0       ?_Xlen_string@std@@YAXXZ   004166e0 f i CW2Creature.obj
 0001:00015700       ?_Xlength@?$vector@PAVDisplayableObject@@V?$allocator@PAVDisplayableObject@@@std@@@std@@CAXXZ 00416700 f i CW2Creature.obj
 0001:00015720       ?_Xlength@?$vector@V?$basic_string@DU?$char_traits@D@std@@V?$allocator@D@2@@std@@V?$allocator@V?$basic_string@DU?$char_traits@D@std@@V?$allocator@D@2@@std@@@2@@std@@CAXXZ 00416720 f i CW2Creature.obj
 0001:00015740       ?_Xrange@?$vector@PAVDisplayableObject@@V?$allocator@PAVDisplayableObject@@@std@@@std@@CAXXZ 00416740 f i CW2Creature.obj
 0001:00015760       ?__empty_global_delete@@YAXPAX@Z 00416760 f i CW2Creature.obj
 0001:00015770       ?__empty_global_delete@@YAXPAXI@Z 00416770 f i CW2Creature.obj
 0001:00015770       ?__global_delete@@YAXPAXI@Z 00416770 f i CW2Creature.obj
 0001:00015780       ?allocate@?$allocator@D@std@@QAEPADI@Z 00416780 f i CW2Creature.obj
 0001:000157b0       ?allocate@?$allocator@PAVDisplayableObject@@@std@@QAEPAPAVDisplayableObject@@I@Z 004167b0 f i CW2Creature.obj
 0001:000157e0       ?allocate@?$allocator@U?$_Tree_node@U?$pair@$$CBV?$basic_string@DU?$char_traits@D@std@@V?$allocator@D@2@@std@@V?$shared_ptr@VRawImageData@@@2@@std@@PAX@std@@@std@@QAEPAU?$_Tree_node@U?$pair@$$CBV?$basic_string@DU?$char_traits@D@std@@V?$allocator@D@2@@std@@V?$shared_ptr@VRawImageData@@@2@@std@@PAX@2@I@Z 004167e0 f i CW2Creature.obj
 0001:00015810       ?allocate@?$allocator@U?$_Tree_node@U?$pair@$$CBV?$basic_string@DU?$char_traits@D@std@@V?$allocator@D@2@@std@@V?$weak_ptr@VRawImageData@@@2@@std@@PAX@std@@@std@@QAEPAU?$_Tree_node@U?$pair@$$CBV?$basic_string@DU?$char_traits@D@std@@V?$allocator@D@2@@std@@V?$weak_ptr@VRawImageData@@@2@@std@@PAX@2@I@Z 00416810 f i CW2Creature.obj
 0001:00015840       ?allocate@?$allocator@U_Container_proxy@std@@@std@@QAEPAU_Container_proxy@2@I@Z 00416840 f i CW2Creature.obj
 0001:00015870       ?allocate@?$allocator@V?$basic_string@DU?$char_traits@D@std@@V?$allocator@D@2@@std@@@std@@QAEPAV?$basic_string@DU?$char_traits@D@std@@V?$allocator@D@2@@2@I@Z 00416870 f i CW2Creature.obj
 0001:000158a0       ?assign@?$_Narrow_char_traits@DH@std@@SAXAADABD@Z 004168a0 f i CW2Creature.obj
 0001:000158c0       ?assign@?$basic_string@DU?$char_traits@D@std@@V?$allocator@D@2@@std@@QAEAAV12@QBD@Z 004168c0 f i CW2Creature.obj
 0001:00015900       ?assign@?$basic_string@DU?$char_traits@D@std@@V?$allocator@D@2@@std@@QAEAAV12@QBDI@Z 00416900 f i CW2Creature.obj
 0001:000159a0       ?at@?$vector@PAVDisplayableObject@@V?$allocator@PAVDisplayableObject@@@std@@@std@@QAEAAPAVDisplayableObject@@I@Z 004169a0 f i CW2Creature.obj
 0001:000159f0       ?beHurt@CW2Creature@@QAEXH@Z 004169f0 f i CW2Creature.obj
 0001:00015a40       ?begin@?$initializer_list@V?$basic_string@DU?$char_traits@D@std@@V?$allocator@D@2@@std@@@std@@QBEPBV?$basic_string@DU?$char_traits@D@std@@V?$allocator@D@2@@2@XZ 00416a40 f i CW2Creature.obj
 0001:00015a60       ?c_str@?$basic_string@DU?$char_traits@D@std@@V?$allocator@D@2@@std@@QBEPBDXZ 00416a60 f i CW2Creature.obj
 0001:00015a80       ?checkRectangles@CollisionDetection@@SA_NHHHHHHHH@Z 00416a80 f i CW2Creature.obj
 0001:00015ad0       ?checkWritable@DrawingSurface@@QAEXXZ 00416ad0 f i CW2Creature.obj
 0001:00015b20       ?compare@?$_Narrow_char_traits@DH@std@@SAHQBD0I@Z 00416b20 f i CW2Creature.obj
 0001:00015b40       ?compare@?$basic_string@DU?$char_traits@D@std@@V?$allocator@D@2@@std@@QBEHABV12@@Z 00416b40 f i CW2Creature.obj
 0001:00015b90       ?convertClickedToVirtualPixelXPosition@BaseEngine@@QAEHH@Z 00416b90 f i CW2Creature.obj
 0001:00015bc0       ?convertClickedToVirtualPixelYPosition@BaseEngine@@QAEHH@Z 00416bc0 f i CW2Creature.obj
 0001:00015bf0       ?convertRealToVirtualXPosition@DrawingSurface@@QAEHH@Z 00416bf0 f i CW2Creature.obj
 0001:00015c30       ?convertRealToVirtualYPosition@DrawingSurface@@QAEHH@Z 00416c30 f i CW2Creature.obj
 0001:00015c70       ?copy@?$_Char_traits@DH@std@@SAPADQADQBDI@Z 00416c70 f i CW2Creature.obj
 0001:00015ca0       ?data@?$basic_string@DU?$char_traits@D@std@@V?$allocator@D@2@@std@@QBEPBDXZ 00416ca0 f i CW2Creature.obj
 0001:00015cc0       ?deallocate@?$_Default_allocator_traits@V?$allocator@U?$_Tree_node@U?$pair@$$CBV?$basic_string@DU?$char_traits@D@std@@V?$allocator@D@2@@std@@V?$shared_ptr@VRawImageData@@@2@@std@@PAX@std@@@std@@@std@@SAXAAV?$allocator@U?$_Tree_node@U?$pair@$$CBV?$basic_string@DU?$char_traits@D@std@@V?$allocator@D@2@@std@@V?$shared_ptr@VRawImageData@@@2@@std@@PAX@std@@@2@QAU?$_Tree_node@U?$pair@$$CBV?$basic_string@DU?$char_traits@D@std@@V?$allocator@D@2@@std@@V?$shared_ptr@VRawImageData@@@2@@std@@PAX@2@I@Z 00416cc0 f i CW2Creature.obj
 0001:00015ce0       ?deallocate@?$_Default_allocator_traits@V?$allocator@U?$_Tree_node@U?$pair@$$CBV?$basic_string@DU?$char_traits@D@std@@V?$allocator@D@2@@std@@V?$weak_ptr@VRawImageData@@@2@@std@@PAX@std@@@std@@@std@@SAXAAV?$allocator@U?$_Tree_node@U?$pair@$$CBV?$basic_string@DU?$char_traits@D@std@@V?$allocator@D@2@@std@@V?$weak_ptr@VRawImageData@@@2@@std@@PAX@std@@@2@QAU?$_Tree_node@U?$pair@$$CBV?$basic_string@DU?$char_traits@D@std@@V?$allocator@D@2@@std@@V?$weak_ptr@VRawImageData@@@2@@std@@PAX@2@I@Z 00416ce0 f i CW2Creature.obj
 0001:00015d00       ?deallocate@?$_Default_allocator_traits@V?$allocator@U_Container_proxy@std@@@std@@@std@@SAXAAV?$allocator@U_Container_proxy@std@@@2@QAU_Container_proxy@2@I@Z 00416d00 f i CW2Creature.obj
 0001:00015d20       ?deallocate@?$allocator@D@std@@QAEXQADI@Z 00416d20 f i CW2Creature.obj
 0001:00015d50       ?deallocate@?$allocator@PAVDisplayableObject@@@std@@QAEXQAPAVDisplayableObject@@I@Z 00416d50 f i CW2Creature.obj
 0001:00015d80       ?deallocate@?$allocator@U?$_Tree_node@U?$pair@$$CBV?$basic_string@DU?$char_traits@D@std@@V?$allocator@D@2@@std@@V?$shared_ptr@VRawImageData@@@2@@std@@PAX@std@@@std@@QAEXQAU?$_Tree_node@U?$pair@$$CBV?$basic_string@DU?$char_traits@D@std@@V?$allocator@D@2@@std@@V?$shared_ptr@VRawImageData@@@2@@std@@PAX@2@I@Z 00416d80 f i CW2Creature.obj
 0001:00015db0       ?deallocate@?$allocator@U?$_Tree_node@U?$pair@$$CBV?$basic_string@DU?$char_traits@D@std@@V?$allocator@D@2@@std@@V?$weak_ptr@VRawImageData@@@2@@std@@PAX@std@@@std@@QAEXQAU?$_Tree_node@U?$pair@$$CBV?$basic_string@DU?$char_traits@D@std@@V?$allocator@D@2@@std@@V?$weak_ptr@VRawImageData@@@2@@std@@PAX@2@I@Z 00416db0 f i CW2Creature.obj
 0001:00015de0       ?deallocate@?$allocator@V?$basic_string@DU?$char_traits@D@std@@V?$allocator@D@2@@std@@@std@@QAEXQAV?$basic_string@DU?$char_traits@D@std@@V?$allocator@D@2@@2@I@Z 00416de0 f i CW2Creature.obj
 0001:00015e10       ?deallocate@?$allocator@VCW2ImagePixelMapping@@@std@@QAEXQAVCW2ImagePixelMapping@@I@Z 00416e10 f i CW2Creature.obj
 0001:00015e40       ?deleteOnRemoval@DisplayableObject@@UBE_NXZ 00416e40 f i CW2Creature.obj
 0001:00015e60       ?destroyImageManager@ImageManager@@SAXXZ 00416e60 f i CW2Creature.obj
 0001:00015ec0       ?destroyOldObjects@DisplayableObjectContainer@@UAEX_N@Z 00416ec0 f i CW2Creature.obj
 0001:00015fd0       ?draw@CW2Wand@@QAEXXZ      00416fd0 f i CW2Creature.obj
 0001:00016090       ?drawForegroundRectangle@BaseEngine@@QAEXHHHHI@Z 00417090 f i CW2Creature.obj
 0001:000160d0       ?drawForegroundString@BaseEngine@@QAEXHHPBDIPAVFont@@@Z 004170d0 f i CW2Creature.obj
 0001:00016110       ?drawHealthBar@CW2Creature@@QAEXXZ 00417110 f i CW2Creature.obj
 0001:00016410       ?drawThisFram@CW2AnimatedManager@@QAEXPAVBaseEngine@@PAVDrawingSurface@@HH@Z 00417410 f i CW2Creature.obj
 0001:000165f0       ?drawableObjectsChanged@DisplayableObjectContainer@@QAEXXZ 004175f0 f i CW2Creature.obj
 0001:00016610       ?end@?$_Tree@V?$_Tmap_traits@V?$basic_string@DU?$char_traits@D@std@@V?$allocator@D@2@@std@@V?$weak_ptr@VRawImageData@@@2@U?$less@V?$basic_string@DU?$char_traits@D@std@@V?$allocator@D@2@@std@@@2@V?$allocator@U?$pair@$$CBV?$basic_string@DU?$char_traits@D@std@@V?$allocator@D@2@@std@@V?$weak_ptr@VRawImageData@@@2@@std@@@2@$0A@@std@@@std@@QAE?AV?$_Tree_iterator@V?$_Tree_val@U?$_Tree_simple_types@U?$pair@$$CBV?$basic_string@DU?$char_traits@D@std@@V?$allocator@D@2@@std@@V?$weak_ptr@VRawImageData@@@2@@std@@@std@@@std@@@2@XZ 00417610 f i CW2Creature.obj
 0001:00016650       ?end@?$initializer_list@V?$basic_string@DU?$char_traits@D@std@@V?$allocator@D@2@@std@@@std@@QBEPBV?$basic_string@DU?$char_traits@D@std@@V?$allocator@D@2@@2@XZ 00417650 f i CW2Creature.obj
 0001:00016670       ?eof@?$_Narrow_char_traits@DH@std@@SAHXZ 00417670 f i CW2Creature.obj
 0001:00016680       ?eq_int_type@?$_Narrow_char_traits@DH@std@@SA_NABH0@Z 00417680 f i CW2Creature.obj
 0001:000166b0       ?expired@?$weak_ptr@VRawImageData@@@std@@QBE_NXZ 004176b0 f i CW2Creature.obj
 0001:000166f0       ?find@?$_Tree@V?$_Tmap_traits@V?$basic_string@DU?$char_traits@D@std@@V?$allocator@D@2@@std@@V?$weak_ptr@VRawImageData@@@2@U?$less@V?$basic_string@DU?$char_traits@D@std@@V?$allocator@D@2@@std@@@2@V?$allocator@U?$pair@$$CBV?$basic_string@DU?$char_traits@D@std@@V?$allocator@D@2@@std@@V?$weak_ptr@VRawImageData@@@2@@std@@@2@$0A@@std@@@std@@QAE?AV?$_Tree_iterator@V?$_Tree_val@U?$_Tree_simple_types@U?$pair@$$CBV?$basic_string@DU?$char_traits@D@std@@V?$allocator@D@2@@std@@V?$weak_ptr@VRawImageData@@@2@@std@@@std@@@std@@@2@ABV?$basic_string@DU?$char_traits@D@std@@V?$allocator@D@2@@2@@Z 004176f0 f i CW2Creature.obj
 0001:00016740       ?freeSurface@RawImageData@@QAEXXZ 00417740 f i CW2Creature.obj
 0001:000167c0       ?get@?$_Ptr_base@VCW2AnimatedManager@@@std@@IBEPAVCW2AnimatedManager@@XZ 004177c0 f i CW2Creature.obj
 0001:000167e0       ?get@?$_Ptr_base@VCW2ImagePixelMapping@@@std@@IBEPAVCW2ImagePixelMapping@@XZ 004177e0 f i CW2Creature.obj
 0001:00016800       ?get@?$_Ptr_base@VCW2TileManager@@@std@@IBEPAVCW2TileManager@@XZ 00417800 f i CW2Creature.obj
 0001:00016820       ?get@?$_Ptr_base@VRawImageData@@@std@@IBEPAVRawImageData@@XZ 00417820 f i CW2Creature.obj
 0001:00016840       ?get@ImageManager@@SAPAV1@XZ 00417840 f i CW2Creature.obj
 0001:000168f0       ?getDrawHeight@DisplayableObject@@QBEHXZ 004178f0 f i CW2Creature.obj
 0001:00016910       ?getDrawWidth@DisplayableObject@@QBEHXZ 00417910 f i CW2Creature.obj
 0001:00016930       ?getDrawingRegionBottom@DisplayableObject@@QBEHXZ 00417930 f i CW2Creature.obj
 0001:00016960       ?getDrawingRegionLeft@DisplayableObject@@QBEHXZ 00417960 f i CW2Creature.obj
 0001:00016980       ?getDrawingRegionRight@DisplayableObject@@QBEHXZ 00417980 f i CW2Creature.obj
 0001:000169b0       ?getDrawingRegionTop@DisplayableObject@@QBEHXZ 004179b0 f i CW2Creature.obj
 0001:000169d0       ?getEngine@DisplayableObject@@QBEPAVBaseEngine@@XZ 004179d0 f i CW2Creature.obj
 0001:000169f0       ?getForegroundSurface@BaseEngine@@QAEPAVDrawingSurface@@XZ 004179f0 f i CW2Creature.obj
 0001:00016a10       ?getHeight@RawImageData@@QBEHXZ 00417a10 f i CW2Creature.obj
 0001:00016a30       ?getHeight@SimpleImage@@QBEHXZ 00417a30 f i CW2Creature.obj
 0001:00016a60       ?getImagePtrbyURL@ImageManager@@QAE?AV?$shared_ptr@VRawImageData@@@std@@V?$basic_string@DU?$char_traits@D@std@@V?$allocator@D@2@@3@_N1@Z 00417a60 f i CW2Creature.obj
 0001:00016ea0       ?getImagebyURL@ImageManager@@QAE?AVSimpleImage@@V?$basic_string@DU?$char_traits@D@std@@V?$allocator@D@2@@std@@_N1@Z 00417ea0 f i CW2Creature.obj
 0001:00016f70       ?getIntsPerWindowRow@DrawingSurface@@QBEIXZ 00417f70 f i CW2Creature.obj
 0001:00016f90       ?getPixelColour@SimpleImage@@QBEHHH@Z 00417f90 f i CW2Creature.obj
 0001:00016fc0       ?getRawImageData@SimpleImage@@QAE?AV?$shared_ptr@VRawImageData@@@std@@XZ 00417fc0 f i CW2Creature.obj
 0001:00017000       ?getRawPixelColour@RawImageData@@QBEHHH@Z 00418000 f i CW2Creature.obj
 0001:00017050       ?getRawTime@BaseEngine@@QBEHXZ 00418050 f i CW2Creature.obj
 0001:00017070       ?getRedrawAllScreen@BaseEngine@@QAEHXZ 00418070 f i CW2Creature.obj
 0001:00017090       ?getRedrawRectVirtualBottom@BaseEngine@@QAEHXZ 00418090 f i CW2Creature.obj
 0001:000170b0       ?getRedrawRectVirtualLeft@BaseEngine@@QAEHXZ 004180b0 f i CW2Creature.obj
 0001:000170d0       ?getRedrawRectVirtualRight@BaseEngine@@QAEHXZ 004180d0 f i CW2Creature.obj
 0001:000170f0       ?getRedrawRectVirtualTop@BaseEngine@@QAEHXZ 004180f0 f i CW2Creature.obj
 0001:00017110       ?getState@CW2Object@@UAE?AV?$vector@V?$basic_string@DU?$char_traits@D@std@@V?$allocator@D@2@@std@@V?$allocator@V?$basic_string@DU?$char_traits@D@std@@V?$allocator@D@2@@std@@@2@@std@@XZ 00418110 f i CW2Creature.obj
 0001:00017150       ?getState@Monster@@UAE?AV?$vector@V?$basic_string@DU?$char_traits@D@std@@V?$allocator@D@2@@std@@V?$allocator@V?$basic_string@DU?$char_traits@D@std@@V?$allocator@D@2@@std@@@2@@std@@XZ 00418150 f i CW2Creature.obj
 0001:00017190       ?getSurfaceHeight@DrawingSurface@@QBEHXZ 00418190 f i CW2Creature.obj
 0001:000171b0       ?getSurfaceWidth@DrawingSurface@@QBEHXZ 004181b0 f i CW2Creature.obj
 0001:000171d0       ?getTheData@SimpleImage@@QBEABV?$shared_ptr@VRawImageData@@@std@@XZ 004181d0 f i CW2Creature.obj
 0001:000171f0       ?getWidth@RawImageData@@QBEHXZ 004181f0 f i CW2Creature.obj
 0001:00017210       ?getWidth@SimpleImage@@QBEHXZ 00418210 f i CW2Creature.obj
 0001:00017240       ?getWindowHeight@BaseEngine@@QBEHXZ 00418240 f i CW2Creature.obj
 0001:00017260       ?getWindowWidth@BaseEngine@@QBEHXZ 00418260 f i CW2Creature.obj
 0001:00017280       ?getXCentre@DisplayableObject@@QBEHXZ 00418280 f i CW2Creature.obj
 0001:000172b0       ?getXForRotationAndCrop@RawImageData@@SAHHHHHHH@Z 004182b0 f i CW2Creature.obj
 0001:00017320       ?getYCentre@DisplayableObject@@QBEHXZ 00418320 f i CW2Creature.obj
 0001:00017350       ?getYForRotationAndCrop@RawImageData@@SAHHHHHHH@Z 00418350 f i CW2Creature.obj
 0001:000173c0       ?getfeetX@Player@@QBEHXZ   004183c0 f i CW2Creature.obj
 0001:000173e0       ?getfeetY@Player@@QBEHXZ   004183e0 f i CW2Creature.obj
 0001:00017400       ?isDied@CW2Creature@@QAE_NXZ 00418400 f i CW2Creature.obj
 0001:00017440       ?isPause@CW2Object@@QBE_NXZ 00418440 f i CW2Creature.obj
 0001:00017460       ?isVisible@DisplayableObject@@QBE_NXZ 00418460 f i CW2Creature.obj
 0001:00017480       ?length@?$_Narrow_char_traits@DH@std@@SAIQBD@Z 00418480 f i CW2Creature.obj
 0001:000174a0       ?loadAsNew@ImageManager@@QAE?AV?$shared_ptr@VRawImageData@@@std@@V?$basic_string@DU?$char_traits@D@std@@V?$allocator@D@2@@3@@Z 004184a0 f i CW2Creature.obj
 0001:00017670       ?loadImage@ImageManager@@SA?AVSimpleImage@@V?$basic_string@DU?$char_traits@D@std@@V?$allocator@D@2@@std@@_N@Z 00418670 f i CW2Creature.obj
 0001:00017730       ?loadImage@RawImageData@@QAE_NV?$basic_string@DU?$char_traits@D@std@@V?$allocator@D@2@@std@@HHHHH_N@Z 00418730 f i CW2Creature.obj
 0001:00017a40       ?lock@?$weak_ptr@VRawImageData@@@std@@QBE?AV?$shared_ptr@VRawImageData@@@2@XZ 00418a40 f i CW2Creature.obj
 0001:00017a90       ?lockForegroundForDrawing@BaseEngine@@QAEXXZ 00418a90 f i CW2Creature.obj
 0001:00017ab0       ?mapCoordinates@ImagePixelMappingShiftXY@@UAE_NAAN0ABVSimpleImage@@@Z 00418ab0 f i CW2Creature.obj
 0001:00017c80       ?max@?$numeric_limits@H@std@@SAHXZ 00418c80 f i CW2Creature.obj
 0001:00017c90       ?max_size@?$_Default_allocator_traits@V?$allocator@D@std@@@std@@SAIABV?$allocator@D@2@@Z 00418c90 f i CW2Creature.obj
 0001:00017ca0       ?max_size@?$_Default_allocator_traits@V?$allocator@PAVDisplayableObject@@@std@@@std@@SAIABV?$allocator@PAVDisplayableObject@@@2@@Z 00418ca0 f i CW2Creature.obj
 0001:00017cb0       ?max_size@?$_Default_allocator_traits@V?$allocator@U?$_Tree_node@U?$pair@$$CBV?$basic_string@DU?$char_traits@D@std@@V?$allocator@D@2@@std@@V?$shared_ptr@VRawImageData@@@2@@std@@PAX@std@@@std@@@std@@SAIABV?$allocator@U?$_Tree_node@U?$pair@$$CBV?$basic_string@DU?$char_traits@D@std@@V?$allocator@D@2@@std@@V?$shared_ptr@VRawImageData@@@2@@std@@PAX@std@@@2@@Z 00418cb0 f i CW2Creature.obj
 0001:00017cc0       ?max_size@?$_Default_allocator_traits@V?$allocator@U?$_Tree_node@U?$pair@$$CBV?$basic_string@DU?$char_traits@D@std@@V?$allocator@D@2@@std@@V?$weak_ptr@VRawImageData@@@2@@std@@PAX@std@@@std@@@std@@SAIABV?$allocator@U?$_Tree_node@U?$pair@$$CBV?$basic_string@DU?$char_traits@D@std@@V?$allocator@D@2@@std@@V?$weak_ptr@VRawImageData@@@2@@std@@PAX@std@@@2@@Z 00418cc0 f i CW2Creature.obj
 0001:00017cd0       ?max_size@?$_Default_allocator_traits@V?$allocator@V?$basic_string@DU?$char_traits@D@std@@V?$allocator@D@2@@std@@@std@@@std@@SAIABV?$allocator@V?$basic_string@DU?$char_traits@D@std@@V?$allocator@D@2@@std@@@2@@Z 00418cd0 f i CW2Creature.obj
 0001:00017ce0       ?max_size@?$_Tree@V?$_Tmap_traits@V?$basic_string@DU?$char_traits@D@std@@V?$allocator@D@2@@std@@V?$shared_ptr@VRawImageData@@@2@U?$less@V?$basic_string@DU?$char_traits@D@std@@V?$allocator@D@2@@std@@@2@V?$allocator@U?$pair@$$CBV?$basic_string@DU?$char_traits@D@std@@V?$allocator@D@2@@std@@V?$shared_ptr@VRawImageData@@@2@@std@@@2@$0A@@std@@@std@@QBEIXZ 00418ce0 f i CW2Creature.obj
 0001:00017d30       ?max_size@?$_Tree@V?$_Tmap_traits@V?$basic_string@DU?$char_traits@D@std@@V?$allocator@D@2@@std@@V?$weak_ptr@VRawImageData@@@2@U?$less@V?$basic_string@DU?$char_traits@D@std@@V?$allocator@D@2@@std@@@2@V?$allocator@U?$pair@$$CBV?$basic_string@DU?$char_traits@D@std@@V?$allocator@D@2@@std@@V?$weak_ptr@VRawImageData@@@2@@std@@@2@$0A@@std@@@std@@QBEIXZ 00418d30 f i CW2Creature.obj
 0001:00017d80       ?max_size@?$basic_string@DU?$char_traits@D@std@@V?$allocator@D@2@@std@@QBEIXZ 00418d80 f i CW2Creature.obj
 0001:00017e00       ?max_size@?$vector@PAVDisplayableObject@@V?$allocator@PAVDisplayableObject@@@std@@@std@@QBEIXZ 00418e00 f i CW2Creature.obj
 0001:00017e50       ?max_size@?$vector@V?$basic_string@DU?$char_traits@D@std@@V?$allocator@D@2@@std@@V?$allocator@V?$basic_string@DU?$char_traits@D@std@@V?$allocator@D@2@@std@@@2@@std@@QBEIXZ 00418e50 f i CW2Creature.obj
 0001:00017ea0       ?move@?$_Char_traits@DH@std@@SAPADQADQBDI@Z 00418ea0 f i CW2Creature.obj
 0001:00017ed0       ?mySDLLockSurface@DrawingSurface@@QAEXXZ 00418ed0 f i CW2Creature.obj
 0001:00017f20       ?mySDLUnlockSurface@DrawingSurface@@QAEXXZ 00418f20 f i CW2Creature.obj
 0001:00017f70       ?pointer_to@?$pointer_traits@PAU?$pair@$$CBV?$basic_string@DU?$char_traits@D@std@@V?$allocator@D@2@@std@@V?$weak_ptr@VRawImageData@@@2@@std@@@std@@SAPAU?$pair@$$CBV?$basic_string@DU?$char_traits@D@std@@V?$allocator@D@2@@std@@V?$weak_ptr@VRawImageData@@@2@@2@AAU32@@Z 00418f70 f i CW2Creature.obj
 0001:00017f90       ?rawSetPixel@DrawingSurface@@QAEXHHI@Z 00418f90 f i CW2Creature.obj
 0001:00018040       ?renderImageApplyingMappingAndMask@CW2ImagePixelMapping@@QBEXPAVBaseEngine@@PAVDrawingSurface@@HHHHHPAVImagePixelMapping@@@Z 00419040 f i CW2Creature.obj
 0001:00018400       ?select_on_container_copy_construction@?$_Default_allocator_traits@V?$allocator@D@std@@@std@@SA?AV?$allocator@D@2@ABV32@@Z 00419400 f i CW2Creature.obj
 0001:00018410       ?setOpaque@RawImageData@@QAEXXZ 00419410 f i CW2Creature.obj
 0001:00018480       ?setPixel@DrawingSurface@@QAEXHHI@Z 00419480 f i CW2Creature.obj
 0001:000184f0       ?setPosition@DisplayableObject@@UAEXHH@Z 004194f0 f i CW2Creature.obj
 0001:00018530       ?setTransparencyColour@SimpleImage@@QAEXH@Z 00419530 f i CW2Creature.obj
 0001:000185a0       ?setTransparentColour@RawImageData@@QAEXI@Z 004195a0 f i CW2Creature.obj
 0001:000186c0       ?setVisible@DisplayableObject@@QAEX_N@Z 004196c0 f i CW2Creature.obj
 0001:000186e0       ?setXShift@ImagePixelMappingShiftXY@@QAEXN@Z 004196e0 f i CW2Creature.obj
 0001:00018700       ?setYShift@ImagePixelMappingShiftXY@@QAEXN@Z 00419700 f i CW2Creature.obj
 0001:00018720       ?size@?$basic_string@DU?$char_traits@D@std@@V?$allocator@D@2@@std@@QBEIXZ 00419720 f i CW2Creature.obj
 0001:00018740       ?size@?$vector@PAVDisplayableObject@@V?$allocator@PAVDisplayableObject@@@std@@@std@@QBEIXZ 00419740 f i CW2Creature.obj
 0001:00018770       ?swap@?$shared_ptr@VCW2AnimatedManager@@@std@@QAEXAAV12@@Z 00419770 f i CW2Creature.obj
 0001:00018790       ?swap@?$shared_ptr@VCW2ImagePixelMapping@@@std@@QAEXAAV12@@Z 00419790 f i CW2Creature.obj
 0001:000187b0       ?swap@?$vector@VCW2ImagePixelMapping@@V?$allocator@VCW2ImagePixelMapping@@@std@@@std@@QAEXAAV12@@Z 004197b0 f i CW2Creature.obj
 0001:00018810       ?to_string@std@@YA?AV?$basic_string@DU?$char_traits@D@std@@V?$allocator@D@2@@1@H@Z 00419810 f i CW2Creature.obj
 0001:00018850       ?unlockForegroundForDrawing@BaseEngine@@QAEXXZ 00419850 f i CW2Creature.obj
 0001:00018870       ?updateScore@Player@@QAEXH@Z 00419870 f i CW2Creature.obj
 0001:000188a0       ?use_count@?$_Ptr_base@VRawImageData@@@std@@QBEJXZ 004198a0 f i CW2Creature.obj
 0001:000188e0       ?virtDraw@CW2Creature@@UAEXXZ 004198e0 f i CW2Creature.obj
 0001:00018900       ?virtIsPositionWithinObject@DisplayableObject@@UAE_NHH@Z 00419900 f i CW2Creature.obj
 0001:00018990       ?virtKeyDown@DisplayableObject@@UAEXH@Z 00419990 f i CW2Creature.obj
 0001:000189a0       ?virtKeyUp@DisplayableObject@@UAEXH@Z 004199a0 f i CW2Creature.obj
 0001:000189b0       ?virtMouseDown@DisplayableObject@@UAEXHHH@Z 004199b0 f i CW2Creature.obj
 0001:000189c0       ?virtMouseMoved@DisplayableObject@@UAEXHH@Z 004199c0 f i CW2Creature.obj
 0001:000189d0       ?virtMouseUp@DisplayableObject@@UAEXHHH@Z 004199d0 f i CW2Creature.obj
 0001:000189e0       ?virtNotify@DisplayableObject@@UAEJHHH@Z 004199e0 f i CW2Creature.obj
 0001:00018a00       ?virtSingleItemMouseDown@DisplayableObject@@UAE_NHHH@Z 00419a00 f i CW2Creature.obj
 0001:00018a20       ?what@exception@std@@UBEPBDXZ 00419a20 f i CW2Creature.obj
 0001:00018a60       ___local_stdio_printf_options 00419a60 f i CW2Creature.obj
 0001:00018a70       __vfprintf_l               00419a70 f i CW2Creature.obj
 0001:00018ab0       __vsnprintf_l              00419ab0 f i CW2Creature.obj
 0001:00018b20       __vsprintf_l               00419b20 f i CW2Creature.obj
 0001:00018b50       _printf                    00419b50 f i CW2Creature.obj
 0001:00018ba0       _sprintf                   00419ba0 f i CW2Creature.obj
 0001:00018be0       ??0CW2Engine@@QAE@XZ       00419be0 f   CW2Engine.obj
 0001:00018cc0       ??1CW2Engine@@UAE@XZ       00419cc0 f   CW2Engine.obj
 0001:00018d70       ?virtSetupBackgroundBuffer@CW2Engine@@UAEXXZ 00419d70 f   CW2Engine.obj
 0001:00018d90       ?virtInitialiseObjects@CW2Engine@@UAEHXZ 00419d90 f   CW2Engine.obj
 0001:00018db0       ?virtMouseDown@CW2Engine@@UAEXHHH@Z 00419db0 f   CW2Engine.obj
 0001:00018de0       ?virtKeyDown@CW2Engine@@UAEXH@Z 00419de0 f   CW2Engine.obj
 0001:00018e10       ?virtDrawStringsOnTop@CW2Engine@@UAEXXZ 00419e10 f   CW2Engine.obj
 0001:00018e30       ?virtInitialise@CW2Engine@@UAEHXZ 00419e30 f   CW2Engine.obj
 0001:00018e60       ?virtMainLoopDoBeforeUpdate@CW2Engine@@UAEXXZ 00419e60 f   CW2Engine.obj
 0001:00018e80       ?virtMainLoopDoAfterUpdate@CW2Engine@@UAEXXZ 00419e80 f   CW2Engine.obj
 0001:00018ea0       ?copyAllBackgroundBuffer@CW2Engine@@UAEXXZ 00419ea0 f   CW2Engine.obj
 0001:00018ec0       ?deleteThisObject@CW2Engine@@QAEXH@Z 00419ec0 f   CW2Engine.obj
 0001:000190c0       ?deleteAllObject@CW2Engine@@QAEXXZ 0041a0c0 f   CW2Engine.obj
 0001:00019360       ??$?0$$V@?$_Compressed_pair@U?$default_delete@VCW2StateManager@@@std@@PAVCW2StateManager@@$00@std@@QAE@U_Zero_then_variadic_args_t@1@@Z 0041a360 f i CW2Engine.obj
 0001:00019380       ??$?0$$V@?$_Compressed_pair@V?$allocator@PAVDisplayableObject@@@std@@V?$_Vector_val@U?$_Simple_types@PAVDisplayableObject@@@std@@@2@$00@std@@QAE@U_Zero_then_variadic_args_t@1@@Z 0041a380 f i CW2Engine.obj
 0001:000193b0       ??$?0AAPAVCW2StateManager@@@?$_Compressed_pair@U?$default_delete@VCW2StateManager@@@std@@PAVCW2StateManager@@$00@std@@QAE@U_Zero_then_variadic_args_t@1@AAPAVCW2StateManager@@@Z 0041a3b0 f i CW2Engine.obj
 0001:000193e0       ??$?0U?$default_delete@VCW2StateManager@@@std@@$0A@@?$unique_ptr@VCW2StateManager@@U?$default_delete@VCW2StateManager@@@std@@@std@@QAE@$$QAV01@@Z 0041a3e0 f i CW2Engine.obj
 0001:00019430       ??$?0U?$default_delete@VCW2StateManager@@@std@@$0A@@?$unique_ptr@VCW2StateManager@@U?$default_delete@VCW2StateManager@@@std@@@std@@QAE@PAVCW2StateManager@@@Z 0041a430 f i CW2Engine.obj
 0001:00019460       ??$?0U?$default_delete@VCW2StateManager@@@std@@$0A@@?$unique_ptr@VCW2StateManager@@U?$default_delete@VCW2StateManager@@@std@@@std@@QAE@XZ 0041a460 f i CW2Engine.obj
 0001:00019490       ??$?0U?$default_delete@VCW2StateManager@@@std@@PAVCW2StateManager@@@?$_Compressed_pair@U?$default_delete@VCW2StateManager@@@std@@PAVCW2StateManager@@$00@std@@QAE@U_One_then_variadic_args_t@1@$$QAU?$default_delete@VCW2StateManager@@@1@$$QAPAVCW2StateManager@@@Z 0041a490 f i CW2Engine.obj
 0001:000194d0       ??$?4U?$default_delete@VCW2StateManager@@@std@@$0A@@?$unique_ptr@VCW2StateManager@@U?$default_delete@VCW2StateManager@@@std@@@std@@QAEAAV01@$$QAV01@@Z 0041a4d0 f i CW2Engine.obj
 0001:00019530       ??$?8PAVDisplayableObject@@PAV0@@std@@YA_NABV?$allocator@PAVDisplayableObject@@@0@0@Z 0041a530 f i CW2Engine.obj
 0001:00019540       ??$_Copy_memmove@PAPAVDisplayableObject@@PAPAV1@@std@@YAPAPAVDisplayableObject@@PAPAV1@00@Z 0041a540 f i CW2Engine.obj
 0001:000195d0       ??$_Move_unchecked@PAPAVDisplayableObject@@PAPAV1@@std@@YAPAPAVDisplayableObject@@PAPAV1@00@Z 0041a5d0 f i CW2Engine.obj
 0001:00019640       ??$_Pocs@V?$allocator@PAVDisplayableObject@@@std@@@std@@YAXAAV?$allocator@PAVDisplayableObject@@@0@0@Z 0041a640 f i CW2Engine.obj
 0001:000196d0       ??$_Swap_adl@PAPAVDisplayableObject@@@std@@YAXAAPAPAVDisplayableObject@@0@Z 0041a6d0 f i CW2Engine.obj
 0001:000196f0       ??$addressof@V?$_Vector_val@U?$_Simple_types@PAVDisplayableObject@@@std@@@std@@@std@@YAPAV?$_Vector_val@U?$_Simple_types@PAVDisplayableObject@@@std@@@0@AAV10@@Z 0041a6f0 f i CW2Engine.obj
 0001:00019700       ??$addressof@V?$unique_ptr@VCW2StateManager@@U?$default_delete@VCW2StateManager@@@std@@@std@@@std@@YAPAV?$unique_ptr@VCW2StateManager@@U?$default_delete@VCW2StateManager@@@std@@@0@AAV10@@Z 0041a700 f i CW2Engine.obj
 0001:00019710       ??$addressof@V?$vector@PAVDisplayableObject@@V?$allocator@PAVDisplayableObject@@@std@@@std@@@std@@YAPAV?$vector@PAVDisplayableObject@@V?$allocator@PAVDisplayableObject@@@std@@@0@AAV10@@Z 0041a710 f i CW2Engine.obj
 0001:00019720       ??$destroy@PAVDisplayableObject@@@?$_Default_allocator_traits@V?$allocator@PAVDisplayableObject@@@std@@@std@@SAXAAV?$allocator@PAVDisplayableObject@@@1@QAPAVDisplayableObject@@@Z 0041a720 f i CW2Engine.obj
 0001:00019730       ??$exchange@PAVCW2StateManager@@$$T@std@@YAPAVCW2StateManager@@AAPAV1@$$QA$$T@Z 0041a730 f i CW2Engine.obj
 0001:00019760       ??$exchange@PAVCW2StateManager@@AAPAV1@@std@@YAPAVCW2StateManager@@AAPAV1@0@Z 0041a760 f i CW2Engine.obj
 0001:00019790       ??$forward@AAPAVCW2StateManager@@@std@@YAAAPAVCW2StateManager@@AAPAV1@@Z 0041a790 f i CW2Engine.obj
 0001:000197a0       ??$forward@PAVCW2Engine@@@std@@YA$$QAPAVCW2Engine@@AAPAV1@@Z 0041a7a0 f i CW2Engine.obj
 0001:000197b0       ??$forward@PAVCW2StateManager@@@std@@YA$$QAPAVCW2StateManager@@AAPAV1@@Z 0041a7b0 f i CW2Engine.obj
 0001:000197c0       ??$forward@U?$default_delete@VCW2StateManager@@@std@@@std@@YA$$QAU?$default_delete@VCW2StateManager@@@0@AAU10@@Z 0041a7c0 f i CW2Engine.obj
 0001:000197d0       ??$make_unique@VCW2StateManager@@PAVCW2Engine@@$0A@@std@@YA?AV?$unique_ptr@VCW2StateManager@@U?$default_delete@VCW2StateManager@@@std@@@0@$$QAPAVCW2Engine@@@Z 0041a7d0 f i CW2Engine.obj
 0001:000198c0       ??$move@AAPAPAVDisplayableObject@@@std@@YA$$QAPAPAVDisplayableObject@@AAPAPAV1@@Z 0041a8c0 f i CW2Engine.obj
 0001:000198d0       ??$move@AAPAVDisplayableObject@@@std@@YA$$QAPAVDisplayableObject@@AAPAV1@@Z 0041a8d0 f i CW2Engine.obj
 0001:000198e0       ??$swap@PAPAVDisplayableObject@@$0A@@std@@YAXAAPAPAVDisplayableObject@@0@Z 0041a8e0 f i CW2Engine.obj
 0001:00019930       ??0?$_Vector_const_iterator@V?$_Vector_val@U?$_Simple_types@PAVDisplayableObject@@@std@@@std@@@std@@QAE@ABV01@@Z 0041a930 f i CW2Engine.obj
 0001:00019970       ??0?$_Vector_const_iterator@V?$_Vector_val@U?$_Simple_types@PAVDisplayableObject@@@std@@@std@@@std@@QAE@PAPAVDisplayableObject@@PBU_Container_base12@1@@Z 0041a970 f i CW2Engine.obj
 0001:000199b0       ??0?$_Vector_iterator@V?$_Vector_val@U?$_Simple_types@PAVDisplayableObject@@@std@@@std@@@std@@QAE@ABV01@@Z 0041a9b0 f i CW2Engine.obj
 0001:000199e0       ??0?$_Vector_iterator@V?$_Vector_val@U?$_Simple_types@PAVDisplayableObject@@@std@@@std@@@std@@QAE@PAPAVDisplayableObject@@PBU_Container_base12@1@@Z 0041a9e0 f i CW2Engine.obj
 0001:00019a10       ??0?$vector@PAVDisplayableObject@@V?$allocator@PAVDisplayableObject@@@std@@@std@@QAE@XZ 0041aa10 f i CW2Engine.obj
 0001:00019a90       ??1?$_Vector_const_iterator@V?$_Vector_val@U?$_Simple_types@PAVDisplayableObject@@@std@@@std@@@std@@QAE@XZ 0041aa90 f i CW2Engine.obj
 0001:00019ab0       ??1?$_Vector_iterator@V?$_Vector_val@U?$_Simple_types@PAVDisplayableObject@@@std@@@std@@@std@@QAE@XZ 0041aab0 f i CW2Engine.obj
 0001:00019ad0       ??1?$unique_ptr@VCW2StateManager@@U?$default_delete@VCW2StateManager@@@std@@@std@@QAE@XZ 0041aad0 f i CW2Engine.obj
 0001:00019b10       ??8?$_Vector_const_iterator@V?$_Vector_val@U?$_Simple_types@PAVDisplayableObject@@@std@@@std@@@std@@QBE_NABV01@@Z 0041ab10 f i CW2Engine.obj
 0001:00019b60       ??9?$_Vector_const_iterator@V?$_Vector_val@U?$_Simple_types@PAVDisplayableObject@@@std@@@std@@@std@@QBE_NABV01@@Z 0041ab60 f i CW2Engine.obj
 0001:00019bb0       ??C?$unique_ptr@VCW2StateManager@@U?$default_delete@VCW2StateManager@@@std@@@std@@QBEPAVCW2StateManager@@XZ 0041abb0 f i CW2Engine.obj
 0001:00019bd0       ??E?$_Vector_const_iterator@V?$_Vector_val@U?$_Simple_types@PAVDisplayableObject@@@std@@@std@@@std@@QAEAAV01@XZ 0041abd0 f i CW2Engine.obj
 0001:00019ce0       ??E?$_Vector_iterator@V?$_Vector_val@U?$_Simple_types@PAVDisplayableObject@@@std@@@std@@@std@@QAE?AV01@H@Z 0041ace0 f i CW2Engine.obj
 0001:00019d30       ??H?$_Vector_iterator@V?$_Vector_val@U?$_Simple_types@PAVDisplayableObject@@@std@@@std@@@std@@QBE?AV01@H@Z 0041ad30 f i CW2Engine.obj
 0001:00019d80       ??R?$default_delete@VCW2StateManager@@@std@@QBEXPAVCW2StateManager@@@Z 0041ad80 f i CW2Engine.obj
 0001:00019dc0       ??Y?$_Vector_const_iterator@V?$_Vector_val@U?$_Simple_types@PAVDisplayableObject@@@std@@@std@@@std@@QAEAAV01@H@Z 0041adc0 f i CW2Engine.obj
 0001:00019e00       ??Y?$_Vector_iterator@V?$_Vector_val@U?$_Simple_types@PAVDisplayableObject@@@std@@@std@@@std@@QAEAAV01@H@Z 0041ae00 f i CW2Engine.obj
 0001:00019e30       ??_GCW2Engine@@UAEPAXI@Z   0041ae30 f i CW2Engine.obj
 0001:00019e30       ??_ECW2Engine@@UAEPAXI@Z   0041ae30 f i CW2Engine.obj
 0001:00019e70       ??_GCW2StateManager@@QAEPAXI@Z 0041ae70 f i CW2Engine.obj
 0001:00019eb0       ?_Compat@?$_Vector_const_iterator@V?$_Vector_val@U?$_Simple_types@PAVDisplayableObject@@@std@@@std@@@std@@QBEXABV12@@Z 0041aeb0 f i CW2Engine.obj
 0001:00019f50       ?_Get_first@?$_Compressed_pair@U?$default_delete@VCW2StateManager@@@std@@PAVCW2StateManager@@$00@std@@QAEAAU?$default_delete@VCW2StateManager@@@2@XZ 0041af50 f i CW2Engine.obj
 0001:00019f70       ?_Orphan_range@?$vector@PAVDisplayableObject@@V?$allocator@PAVDisplayableObject@@@std@@@std@@ABEXPAPAVDisplayableObject@@0@Z 0041af70 f i CW2Engine.obj
 0001:00019fa0       ?_Orphan_range_locked@?$vector@PAVDisplayableObject@@V?$allocator@PAVDisplayableObject@@@std@@@std@@ABEXPAPAVDisplayableObject@@0@Z 0041afa0 f i CW2Engine.obj
 0001:0001a030       ?_Orphan_range_unlocked@?$vector@PAVDisplayableObject@@V?$allocator@PAVDisplayableObject@@@std@@@std@@ABEXPAPAVDisplayableObject@@0@Z 0041b030 f i CW2Engine.obj
 0001:0001a0c0       ?_Swap_val@?$_Vector_val@U?$_Simple_types@PAVDisplayableObject@@@std@@@std@@QAEXAAV12@@Z 0041b0c0 f i CW2Engine.obj
 0001:0001a140       ?_Verify_offset@?$_Vector_const_iterator@V?$_Vector_val@U?$_Simple_types@PAVDisplayableObject@@@std@@@std@@@std@@QBEXH@Z 0041b140 f i CW2Engine.obj
 0001:0001a2d0       ?begin@?$vector@PAVDisplayableObject@@V?$allocator@PAVDisplayableObject@@@std@@@std@@QAE?AV?$_Vector_iterator@V?$_Vector_val@U?$_Simple_types@PAVDisplayableObject@@@std@@@std@@@2@XZ 0041b2d0 f i CW2Engine.obj
 0001:0001a320       ?copyBackgroundPixels@BaseEngine@@UAEXHHHH@Z 0041b320 f i CW2Engine.obj
 0001:0001a370       ?end@?$vector@PAVDisplayableObject@@V?$allocator@PAVDisplayableObject@@@std@@@std@@QAE?AV?$_Vector_iterator@V?$_Vector_val@U?$_Simple_types@PAVDisplayableObject@@@std@@@std@@@2@XZ 0041b370 f i CW2Engine.obj
 0001:0001a3c0       ?erase@?$vector@PAVDisplayableObject@@V?$allocator@PAVDisplayableObject@@@std@@@std@@QAE?AV?$_Vector_iterator@V?$_Vector_val@U?$_Simple_types@PAVDisplayableObject@@@std@@@std@@@2@V?$_Vector_const_iterator@V?$_Vector_val@U?$_Simple_types@PAVDisplayableObject@@@std@@@std@@@2@@Z 0041b3c0 f i CW2Engine.obj
 0001:0001a570       ?fillBackground@BaseEngine@@UAEXI@Z 0041b570 f i CW2Engine.obj
 0001:0001a5a0       ?fillSurface@DrawingSurface@@QAEXI@Z 0041b5a0 f i CW2Engine.obj
 0001:0001a630       ?filter@BaseEngine@@UAE_NPAVDrawingSurface@@AAH1AAI@Z 0041b630 f i CW2Engine.obj
 0001:0001a6f0       ?filterConvertRealToVirtualXPosition@FilterPoints@@UAEHH@Z 0041b6f0 f i CW2Engine.obj
 0001:0001a710       ?filterConvertRealToVirtualYPosition@FilterPoints@@UAEHH@Z 0041b710 f i CW2Engine.obj
 0001:0001a730       ?filterConvertVirtualToRealXPosition@FilterPoints@@UAEHH@Z 0041b730 f i CW2Engine.obj
 0001:0001a750       ?filterConvertVirtualToRealYPosition@FilterPoints@@UAEHH@Z 0041b750 f i CW2Engine.obj
 0001:0001a770       ?getModifiedTime@BaseEngine@@UBEHXZ 0041b770 f i CW2Engine.obj
 0001:0001a7b0       ?getObjectID@CW2Object@@QBEHXZ 0041b7b0 f i CW2Engine.obj
 0001:0001a7d0       ?get_deleter@?$unique_ptr@VCW2StateManager@@U?$default_delete@VCW2StateManager@@@std@@@std@@QAEAAU?$default_delete@VCW2StateManager@@@2@XZ 0041b7d0 f i CW2Engine.obj
 0001:0001a7f0       ?lockAndSetupBackground@BaseEngine@@QAEXXZ 0041b7f0 f i CW2Engine.obj
 0001:0001a830       ?lockBackgroundForDrawing@BaseEngine@@QAEXXZ 0041b830 f i CW2Engine.obj
 0001:0001a850       ?mySDLTempRelockSurface@DrawingSurface@@QAEXXZ 0041b850 f i CW2Engine.obj
 0001:0001a8a0       ?mySDLTempUnlockSurface@DrawingSurface@@QAEXXZ 0041b8a0 f i CW2Engine.obj
 0001:0001a8f0       ?redrawDisplay@BaseEngine@@QAEXXZ 0041b8f0 f i CW2Engine.obj
 0001:0001a910       ?release@?$unique_ptr@VCW2StateManager@@U?$default_delete@VCW2StateManager@@@std@@@std@@QAEPAVCW2StateManager@@XZ 0041b910 f i CW2Engine.obj
 0001:0001a940       ?reset@?$unique_ptr@VCW2StateManager@@U?$default_delete@VCW2StateManager@@@std@@@std@@QAEXPAVCW2StateManager@@@Z 0041b940 f i CW2Engine.obj
 0001:0001a990       ?swap@?$vector@PAVDisplayableObject@@V?$allocator@PAVDisplayableObject@@@std@@@std@@QAEXAAV12@@Z 0041b990 f i CW2Engine.obj
 0001:0001a9f0       ?unlockBackgroundForDrawing@BaseEngine@@QAEXXZ 0041b9f0 f i CW2Engine.obj
 0001:0001aa10       ?virtBackgroundMouseDown@BaseEngine@@UAEXHHHHH@Z 0041ba10 f i CW2Engine.obj
 0001:0001aa20       ?virtMainLoopPostUpdate@BaseEngine@@UAEXXZ 0041ba20 f i CW2Engine.obj
 0001:0001aa30       ?virtMainLoopPreUpdate@BaseEngine@@UAEXXZ 0041ba30 f i CW2Engine.obj
 0001:0001aa40       ?virtMainLoopStartIteration@BaseEngine@@UAEXXZ 0041ba40 f i CW2Engine.obj
 0001:0001aa50       ?virtMouseWheel@BaseEngine@@UAEXHHHH@Z 0041ba50 f i CW2Engine.obj
 0001:0001aa60       ?virtPostDraw@BaseEngine@@UAEXXZ 0041ba60 f i CW2Engine.obj
 0001:0001aa70       ?virtPreDraw@BaseEngine@@UAEXXZ 0041ba70 f i CW2Engine.obj
 0001:0001aa80       ?virtRealMouseDown@BaseEngine@@UAEXHHH@Z 0041ba80 f i CW2Engine.obj
 0001:0001aa90       ?virtRealMouseUp@BaseEngine@@UAEXHHH@Z 0041ba90 f i CW2Engine.obj
 0001:0001aaa0       ?virtTouchEvent@BaseEngine@@UAEXHH_J0MMMMM@Z 0041baa0 f i CW2Engine.obj
 0001:0001aab0       ??0CW2GameState@@QAE@PAVCW2Engine@@PAVCW2StateManager@@@Z 0041bab0 f   CW2GameState.obj
 0001:0001ab70       ??1CW2GameState@@QAE@XZ    0041bb70 f   CW2GameState.obj
 0001:0001ac00       ?initSelf@CW2GameState@@QAEXXZ 0041bc00 f   CW2GameState.obj
 0001:0001ac20       ??0InitState@@QAE@PAVCW2Engine@@PAVCW2StateManager@@@Z 0041bc20 f   CW2GameState.obj
 0001:0001acb0       ??1InitState@@QAE@XZ       0041bcb0 f   CW2GameState.obj
 0001:0001acd0       ?virtSetupBackgroundBuffer@InitState@@UAEXXZ 0041bcd0 f   CW2GameState.obj
 0001:0001ae10       ?virtMouseDown@InitState@@UAEXHHH@Z 0041be10 f   CW2GameState.obj
 0001:0001ae40       ?virtKeyDown@InitState@@UAEXH@Z 0041be40 f   CW2GameState.obj
 0001:0001aed0       ?virtDrawStringsOnTop@InitState@@UAEXXZ 0041bed0 f   CW2GameState.obj
 0001:0001afc0       ?virtMainLoopDoBeforeUpdate@InitState@@UAEXXZ 0041bfc0 f   CW2GameState.obj
 0001:0001afd0       ?virtInitialiseObjects@InitState@@UAEHXZ 0041bfd0 f   CW2GameState.obj
 0001:0001afe0       ?copyAllBackgroundBuffer@InitState@@UAEXXZ 0041bfe0 f   CW2GameState.obj
 0001:0001b010       ?virtMainLoopDoAfterUpdate@InitState@@UAEXXZ 0041c010 f   CW2GameState.obj
 0001:0001b020       ??1MenuState@@QAE@XZ       0041c020 f   CW2GameState.obj
 0001:0001b090       ?virtSetupBackgroundBuffer@MenuState@@UAEXXZ 0041c090 f   CW2GameState.obj
 0001:0001b110       ?virtMouseDown@MenuState@@UAEXHHH@Z 0041c110 f   CW2GameState.obj
 0001:0001b140       ?virtKeyDown@MenuState@@UAEXH@Z 0041c140 f   CW2GameState.obj
 0001:0001b190       ?virtDrawStringsOnTop@MenuState@@UAEXXZ 0041c190 f   CW2GameState.obj
 0001:0001b490       ?virtMainLoopDoBeforeUpdate@MenuState@@UAEXXZ 0041c490 f   CW2GameState.obj
 0001:0001b4a0       ?copyAllBackgroundBuffer@MenuState@@UAEXXZ 0041c4a0 f   CW2GameState.obj
 0001:0001b4d0       ?virtMainLoopDoAfterUpdate@MenuState@@UAEXXZ 0041c4d0 f   CW2GameState.obj
 0001:0001b4e0       ??0PlayState@@QAE@PAVCW2Engine@@PAVCW2StateManager@@@Z 0041c4e0 f   CW2GameState.obj
 0001:0001b580       ??1PlayState@@QAE@XZ       0041c580 f   CW2GameState.obj
 0001:0001b600       ?virtSetupBackgroundBuffer@PlayState@@UAEXXZ 0041c600 f   CW2GameState.obj
 0001:0001b750       ?virtMouseDown@PlayState@@UAEXHHH@Z 0041c750 f   CW2GameState.obj
 0001:0001b770       ?virtKeyDown@PlayState@@UAEXH@Z 0041c770 f   CW2GameState.obj
 0001:0001b8f0       ?virtDrawStringsOnTop@PlayState@@UAEXXZ 0041c8f0 f   CW2GameState.obj
 0001:0001b9c0       ?virtMainLoopDoBeforeUpdate@PlayState@@UAEXXZ 0041c9c0 f   CW2GameState.obj
 0001:0001bcd0       ?virtInitialiseObjects@PlayState@@UAEHXZ 0041ccd0 f   CW2GameState.obj
 0001:0001be80       ?copyAllBackgroundBuffer@PlayState@@UAEXXZ 0041ce80 f   CW2GameState.obj
 0001:0001beb0       ?virtMainLoopDoAfterUpdate@PlayState@@UAEXXZ 0041ceb0 f   CW2GameState.obj
 0001:0001bef0       ?saveState@PlayState@@QAEXXZ 0041cef0 f   CW2GameState.obj
 0001:0001c0c0       ?loadState@PlayState@@QAEXXZ 0041d0c0 f   CW2GameState.obj
 0001:0001ca50       ?setAllPause@PlayState@@QAEX_N@Z 0041da50 f   CW2GameState.obj
 0001:0001cac0       ?virtSetupBackgroundBuffer@GameoverState@@UAEXXZ 0041dac0 f   CW2GameState.obj
 0001:0001cb00       ?virtMouseDown@GameoverState@@UAEXHHH@Z 0041db00 f   CW2GameState.obj
 0001:0001cb10       ?virtKeyDown@GameoverState@@UAEXH@Z 0041db10 f   CW2GameState.obj
 0001:0001cdd0       ?virtDrawStringsOnTop@GameoverState@@UAEXXZ 0041ddd0 f   CW2GameState.obj
 0001:0001ceb0       ?virtMainLoopDoBeforeUpdate@GameoverState@@UAEXXZ 0041deb0 f   CW2GameState.obj
 0001:0001cec0       ?copyAllBackgroundBuffer@GameoverState@@UAEXXZ 0041dec0 f   CW2GameState.obj
 0001:0001cef0       ?virtMainLoopDoAfterUpdate@GameoverState@@UAEXXZ 0041def0 f   CW2GameState.obj
 0001:0001cf00       ??0LoseState@@QAE@PAVCW2Engine@@PAVCW2StateManager@@@Z 0041df00 f   CW2GameState.obj
 0001:0001cf40       ??1LoseState@@QAE@XZ       0041df40 f   CW2GameState.obj
 0001:0001cf60       ?virtSetupBackgroundBuffer@LoseState@@UAEXXZ 0041df60 f   CW2GameState.obj
 0001:0001d040       ?virtMouseDown@LoseState@@UAEXHHH@Z 0041e040 f   CW2GameState.obj
 0001:0001d050       ?virtKeyDown@LoseState@@UAEXH@Z 0041e050 f   CW2GameState.obj
 0001:0001d0c0       ?virtDrawStringsOnTop@LoseState@@UAEXXZ 0041e0c0 f   CW2GameState.obj
 0001:0001d1c0       ?virtMainLoopDoBeforeUpdate@LoseState@@UAEXXZ 0041e1c0 f   CW2GameState.obj
 0001:0001d1f0       ?copyAllBackgroundBuffer@LoseState@@UAEXXZ 0041e1f0 f   CW2GameState.obj
 0001:0001d290       ?virtInitialiseObjects@LoseState@@UAEHXZ 0041e290 f   CW2GameState.obj
 0001:0001d2c0       ?virtMainLoopDoAfterUpdate@LoseState@@UAEXXZ 0041e2c0 f   CW2GameState.obj
 0001:0001d2d0       ??1HighscoreState@@QAE@XZ  0041e2d0 f   CW2GameState.obj
 0001:0001d300       ?virtSetupBackgroundBuffer@HighscoreState@@UAEXXZ 0041e300 f   CW2GameState.obj
 0001:0001d370       ?virtMouseDown@HighscoreState@@UAEXHHH@Z 0041e370 f   CW2GameState.obj
 0001:0001d380       ?virtKeyDown@HighscoreState@@UAEXH@Z 0041e380 f   CW2GameState.obj
 0001:0001e0a0       ?virtDrawStringsOnTop@HighscoreState@@UAEXXZ 0041f0a0 f   CW2GameState.obj
 0001:0001e200       ?virtMainLoopDoBeforeUpdate@HighscoreState@@UAEXXZ 0041f200 f   CW2GameState.obj
 0001:0001e210       ?copyAllBackgroundBuffer@HighscoreState@@UAEXXZ 0041f210 f   CW2GameState.obj
 0001:0001e240       ?virtMainLoopDoAfterUpdate@HighscoreState@@UAEXXZ 0041f240 f   CW2GameState.obj
 0001:0001f040       ??$?0$$V@?$_Compressed_pair@V?$allocator@PAVMonster@@@std@@V?$_Vector_val@U?$_Simple_types@PAVMonster@@@std@@@2@$00@std@@QAE@U_Zero_then_variadic_args_t@1@@Z 00420040 f i CW2GameState.obj
 0001:0001f070       ??$?0AAPAV_Facet_base@std@@@?$_Compressed_pair@U?$default_delete@V_Facet_base@std@@@std@@PAV_Facet_base@2@$00@std@@QAE@U_Zero_then_variadic_args_t@1@AAPAV_Facet_base@1@@Z 00420070 f i CW2GameState.obj
 0001:0001f0a0       ??$?0AAV?$allocator@D@std@@$$V@?$_Compressed_pair@V?$allocator@D@std@@V?$_String_val@U?$_Simple_types@D@std@@@2@$00@std@@QAE@U_One_then_variadic_args_t@1@AAV?$allocator@D@1@@Z 004200a0 f i CW2GameState.obj
 0001:0001f0d0       ??$?0ABHABHABHABH@?$_Ref_count_obj2@VCW2TileManager@@@std@@QAE@ABH000@Z 004200d0 f i CW2GameState.obj
 0001:0001f1b0       ??$?0PAVMonster@@@?$allocator@U_Container_proxy@std@@@std@@QAE@ABV?$allocator@PAVMonster@@@1@@Z 004201b0 f i CW2GameState.obj
 0001:0001f1d0       ??$?0U?$default_delete@V_Facet_base@std@@@std@@$0A@@?$unique_ptr@V_Facet_base@std@@U?$default_delete@V_Facet_base@std@@@2@@std@@QAE@PAV_Facet_base@1@@Z 004201d0 f i CW2GameState.obj
 0001:0001f200       ??$?0V?$allocator@PAVMonster@@@std@@PAPAVMonster@@PAPAV2@PAPAV2@@?$_Compressed_pair@V?$allocator@PAVMonster@@@std@@V?$_Vector_val@U?$_Simple_types@PAVMonster@@@std@@@2@$00@std@@QAE@U_One_then_variadic_args_t@1@$$QAV?$allocator@PAVMonster@@@1@$$QAPAPAVMonster@@22@Z 00420200 f i CW2GameState.obj
 0001:0001f270       ??$?0VCW2TileManager@@@?$shared_ptr@VCW2TileManager@@@std@@QAE@ABV01@PAVCW2TileManager@@@Z 00420270 f i CW2GameState.obj
 0001:0001f2b0       ??$?6U?$char_traits@D@std@@@std@@YAAAV?$basic_ostream@DU?$char_traits@D@std@@@0@AAV10@D@Z 004202b0 f i CW2GameState.obj
 0001:0001f650       ??$?8DU?$char_traits@D@std@@V?$allocator@D@1@@std@@YA_NABV?$basic_string@DU?$char_traits@D@std@@V?$allocator@D@2@@0@QBD@Z 00420650 f i CW2GameState.obj
 0001:0001f670       ??$?HDU?$char_traits@D@std@@V?$allocator@D@1@@std@@YA?AV?$basic_string@DU?$char_traits@D@std@@V?$allocator@D@2@@0@$$QAV10@0@Z 00420670 f i CW2GameState.obj
 0001:0001f740       ??$?HDU?$char_traits@D@std@@V?$allocator@D@1@@std@@YA?AV?$basic_string@DU?$char_traits@D@std@@V?$allocator@D@2@@0@ABV10@QBD@Z 00420740 f i CW2GameState.obj
 0001:0001f7f0       ??$_Alias_construct_from@VCW2TileManager@@@?$_Ptr_base@VCW2TileManager@@@std@@IAEXABV?$shared_ptr@VCW2TileManager@@@1@PAVCW2TileManager@@@Z 004207f0 f i CW2GameState.obj
 0001:0001f830       ??$_Allocators_equal@V?$allocator@D@std@@@std@@YA_NABV?$allocator@D@0@0@Z 00420830 f i CW2GameState.obj
 0001:0001f840       ??$_Construct_in_place@VCW2TileManager@@ABHABHABHABH@std@@YAXAAVCW2TileManager@@ABH111@Z 00420840 f i CW2GameState.obj
 0001:0001f8d0       ??$_Copy_memmove@PAPAVMonster@@PAPAV1@@std@@YAPAPAVMonster@@PAPAV1@00@Z 004208d0 f i CW2GameState.obj
 0001:0001f960       ??$_Destroy_in_place@VCW2TileManager@@@std@@YAXAAVCW2TileManager@@@Z 00420960 f i CW2GameState.obj
 0001:0001f980       ??$_Destroy_range@V?$allocator@PAVMonster@@@std@@@std@@YAXPAPAVMonster@@QAPAV1@AAV?$allocator@PAVMonster@@@0@@Z 00420980 f i CW2GameState.obj
 0001:0001f990       ??$_Emplace_back@PAVDisplayableObject@@@?$_Uninitialized_backout_al@V?$allocator@PAVDisplayableObject@@@std@@@std@@QAEX$$QAPAVDisplayableObject@@@Z 00420990 f i CW2GameState.obj
 0001:0001f9f0       ??$_Emplace_back@PAVMonster@@@?$_Uninitialized_backout_al@V?$allocator@PAVMonster@@@std@@@std@@QAEX$$QAPAVMonster@@@Z 004209f0 f i CW2GameState.obj
 0001:0001fa50       ??$_Emplace_back@V?$basic_string@DU?$char_traits@D@std@@V?$allocator@D@2@@std@@@?$_Uninitialized_backout_al@V?$allocator@V?$basic_string@DU?$char_traits@D@std@@V?$allocator@D@2@@std@@@std@@@std@@QAEX$$QAV?$basic_string@DU?$char_traits@D@std@@V?$allocator@D@2@@1@@Z 00420a50 f i CW2GameState.obj
 0001:0001fab0       ??$_Emplace_back_with_unused_capacity@ABQAVDisplayableObject@@@?$vector@PAVDisplayableObject@@V?$allocator@PAVDisplayableObject@@@std@@@std@@AAE?A_TABQAVDisplayableObject@@@Z 00420ab0 f i CW2GameState.obj
 0001:0001fb50       ??$_Emplace_back_with_unused_capacity@ABV?$basic_string@DU?$char_traits@D@std@@V?$allocator@D@2@@std@@@?$vector@V?$basic_string@DU?$char_traits@D@std@@V?$allocator@D@2@@std@@V?$allocator@V?$basic_string@DU?$char_traits@D@std@@V?$allocator@D@2@@std@@@2@@std@@AAE?A_TABV?$basic_string@DU?$char_traits@D@std@@V?$allocator@D@2@@1@@Z 00420b50 f i CW2GameState.obj
 0001:0001fbf0       ??$_Emplace_back_with_unused_capacity@PAVMonster@@@?$vector@PAVMonster@@V?$allocator@PAVMonster@@@std@@@std@@AAE?A_T$$QAPAVMonster@@@Z 00420bf0 f i CW2GameState.obj
 0001:0001fc90       ??$_Emplace_back_with_unused_capacity@V?$basic_string@DU?$char_traits@D@std@@V?$allocator@D@2@@std@@@?$vector@V?$basic_string@DU?$char_traits@D@std@@V?$allocator@D@2@@std@@V?$allocator@V?$basic_string@DU?$char_traits@D@std@@V?$allocator@D@2@@std@@@2@@std@@AAE?A_T$$QAV?$basic_string@DU?$char_traits@D@std@@V?$allocator@D@2@@1@@Z 00420c90 f i CW2GameState.obj
 0001:0001fd30       ??$_Emplace_reallocate@ABQAVDisplayableObject@@@?$vector@PAVDisplayableObject@@V?$allocator@PAVDisplayableObject@@@std@@@std@@QAEPAPAVDisplayableObject@@QAPAV2@ABQAV2@@Z 00420d30 f i CW2GameState.obj
 0001:0001ff80       ??$_Emplace_reallocate@ABV?$basic_string@DU?$char_traits@D@std@@V?$allocator@D@2@@std@@@?$vector@V?$basic_string@DU?$char_traits@D@std@@V?$allocator@D@2@@std@@V?$allocator@V?$basic_string@DU?$char_traits@D@std@@V?$allocator@D@2@@std@@@2@@std@@QAEPAV?$basic_string@DU?$char_traits@D@std@@V?$allocator@D@2@@1@QAV21@ABV21@@Z 00420f80 f i CW2GameState.obj
 0001:000201d0       ??$_Emplace_reallocate@PAVMonster@@@?$vector@PAVMonster@@V?$allocator@PAVMonster@@@std@@@std@@QAEPAPAVMonster@@QAPAV2@$$QAPAV2@@Z 004211d0 f i CW2GameState.obj
 0001:00020420       ??$_Emplace_reallocate@V?$basic_string@DU?$char_traits@D@std@@V?$allocator@D@2@@std@@@?$vector@V?$basic_string@DU?$char_traits@D@std@@V?$allocator@D@2@@std@@V?$allocator@V?$basic_string@DU?$char_traits@D@std@@V?$allocator@D@2@@std@@@2@@std@@QAEPAV?$basic_string@DU?$char_traits@D@std@@V?$allocator@D@2@@1@QAV21@$$QAV21@@Z 00421420 f i CW2GameState.obj
 0001:00020670       ??$_Fgetc@D@std@@YA_NAADPAU_iobuf@@@Z 00421670 f i CW2GameState.obj
 0001:000206b0       ??$_Fputc@D@std@@YA_NDPAU_iobuf@@@Z 004216b0 f i CW2GameState.obj
 0001:000206f0       ??$_Get_unwrapped@ABQAPAVDisplayableObject@@@std@@YA?A_TABQAPAVDisplayableObject@@@Z 004216f0 f i CW2GameState.obj
 0001:00020700       ??$_Get_unwrapped@ABQAPAVMonster@@@std@@YA?A_TABQAPAVMonster@@@Z 00421700 f i CW2GameState.obj
 0001:00020710       ??$_Get_unwrapped@ABQAV?$basic_string@DU?$char_traits@D@std@@V?$allocator@D@2@@std@@@std@@YA?A_TABQAV?$basic_string@DU?$char_traits@D@std@@V?$allocator@D@2@@0@@Z 00421710 f i CW2GameState.obj
 0001:00020720       ??$_Move_construct_from@VCW2TileManager@@@?$_Ptr_base@VCW2TileManager@@@std@@IAEX$$QAV01@@Z 00421720 f i CW2GameState.obj
 0001:00020770       ??$_Reallocate_for@V<lambda_c6753c90be971fc9cc00b4f35f237a75>@@D@?$basic_string@DU?$char_traits@D@std@@V?$allocator@D@2@@std@@AAEAAV01@IV<lambda_c6753c90be971fc9cc00b4f35f237a75>@@D@Z 00421770 f i CW2GameState.obj
 0001:00020870       ??$_Reallocate_grow_by@V<lambda_15711c68e099a15a58f4d77303cb286d>@@D@?$basic_string@DU?$char_traits@D@std@@V?$allocator@D@2@@std@@AAEAAV01@IV<lambda_15711c68e099a15a58f4d77303cb286d>@@D@Z 00421870 f i CW2GameState.obj
 0001:000209e0       ??$_Reallocate_grow_by@V<lambda_ab246b20b9526e2ef7792587e4298a77>@@PBDI@?$basic_string@DU?$char_traits@D@std@@V?$allocator@D@2@@std@@AAEAAV01@IV<lambda_ab246b20b9526e2ef7792587e4298a77>@@PBDI@Z 004219e0 f i CW2GameState.obj
 0001:00020b50       ??$_Set_ptr_rep_and_enable_shared@VCW2TileManager@@@?$shared_ptr@VCW2TileManager@@@std@@AAEXQAVCW2TileManager@@QAV_Ref_count_base@1@@Z 00421b50 f i CW2GameState.obj
 0001:00020b80       ??$_To_address@PAPAVMonster@@@std@@YA?A_PABQAPAVMonster@@@Z 00421b80 f i CW2GameState.obj
 0001:00020b90       ??$_Traits_equal@U?$char_traits@D@std@@@std@@YA_NQBDI0I@Z 00421b90 f i CW2GameState.obj
 0001:00020be0       ??$_Unfancy@PAVMonster@@@std@@YAPAPAVMonster@@PAPAV1@@Z 00421be0 f i CW2GameState.obj
 0001:00020bf0       ??$_Ungetc@D@std@@YA_NABDPAU_iobuf@@@Z 00421bf0 f i CW2GameState.obj
 0001:00020c40       ??$_Uninitialized_move@PAPAVDisplayableObject@@V?$allocator@PAVDisplayableObject@@@std@@@std@@YAPAPAVDisplayableObject@@QAPAV1@0PAPAV1@AAV?$allocator@PAVDisplayableObject@@@0@@Z 00421c40 f i CW2GameState.obj
 0001:00020d60       ??$_Uninitialized_move@PAPAVMonster@@V?$allocator@PAVMonster@@@std@@@std@@YAPAPAVMonster@@QAPAV1@0PAPAV1@AAV?$allocator@PAVMonster@@@0@@Z 00421d60 f i CW2GameState.obj
 0001:00020e80       ??$_Uninitialized_move@PAV?$basic_string@DU?$char_traits@D@std@@V?$allocator@D@2@@std@@V?$allocator@V?$basic_string@DU?$char_traits@D@std@@V?$allocator@D@2@@std@@@2@@std@@YAPAV?$basic_string@DU?$char_traits@D@std@@V?$allocator@D@2@@0@QAV10@0PAV10@AAV?$allocator@V?$basic_string@DU?$char_traits@D@std@@V?$allocator@D@2@@std@@@0@@Z 00421e80 f i CW2GameState.obj
 0001:00020f60       ??$_Voidify_iter@PAPAVMonster@@@std@@YAPAXPAPAVMonster@@@Z 00421f60 f i CW2GameState.obj
 0001:00020f70       ??$_Voidify_iter@PAVCW2TileManager@@@std@@YAPAXPAVCW2TileManager@@@Z 00421f70 f i CW2GameState.obj
 0001:00020f80       ??$addressof@$$CBV?$_Vector_val@U?$_Simple_types@PAVDisplayableObject@@@std@@@std@@@std@@YAPBV?$_Vector_val@U?$_Simple_types@PAVDisplayableObject@@@std@@@0@ABV10@@Z 00421f80 f i CW2GameState.obj
 0001:00020f90       ??$addressof@$$CBV?$codecvt@DDU_Mbstatet@@@std@@@std@@YAPBV?$codecvt@DDU_Mbstatet@@@0@ABV10@@Z 00421f90 f i CW2GameState.obj
 0001:00020fa0       ??$addressof@D@std@@YAPADAAD@Z 00421fa0 f i CW2GameState.obj
 0001:00020fb0       ??$addressof@V?$basic_filebuf@DU?$char_traits@D@std@@@std@@@std@@YAPAV?$basic_filebuf@DU?$char_traits@D@std@@@0@AAV10@@Z 00421fb0 f i CW2GameState.obj
 0001:00020fc0       ??$addressof@V?$basic_string@DU?$char_traits@D@std@@V?$allocator@D@2@@std@@@std@@YAPAV?$basic_string@DU?$char_traits@D@std@@V?$allocator@D@2@@0@AAV10@@Z 00421fc0 f i CW2GameState.obj
 0001:00020fd0       ??$addressof@V?$basic_stringbuf@DU?$char_traits@D@std@@V?$allocator@D@2@@std@@@std@@YAPAV?$basic_stringbuf@DU?$char_traits@D@std@@V?$allocator@D@2@@0@AAV10@@Z 00421fd0 f i CW2GameState.obj
 0001:00020fe0       ??$addressof@VCW2TileManager@@@std@@YAPAVCW2TileManager@@AAV1@@Z 00421fe0 f i CW2GameState.obj
 0001:00020ff0       ??$atan2@HH$0A@@@YANHH@Z   00421ff0 f i CW2GameState.obj
 0001:00021020       ??$construct@PAVDisplayableObject@@ABQAV1@@?$_Default_allocator_traits@V?$allocator@PAVDisplayableObject@@@std@@@std@@SAXAAV?$allocator@PAVDisplayableObject@@@1@QAPAVDisplayableObject@@ABQAV3@@Z 00422020 f i CW2GameState.obj
 0001:00021070       ??$construct@PAVDisplayableObject@@PAV1@@?$_Default_allocator_traits@V?$allocator@PAVDisplayableObject@@@std@@@std@@SAXAAV?$allocator@PAVDisplayableObject@@@1@QAPAVDisplayableObject@@$$QAPAV3@@Z 00422070 f i CW2GameState.obj
 0001:000210c0       ??$construct@PAVMonster@@PAV1@@?$_Default_allocator_traits@V?$allocator@PAVMonster@@@std@@@std@@SAXAAV?$allocator@PAVMonster@@@1@QAPAVMonster@@$$QAPAV3@@Z 004220c0 f i CW2GameState.obj
 0001:00021110       ??$construct@V?$basic_string@DU?$char_traits@D@std@@V?$allocator@D@2@@std@@V12@@?$_Default_allocator_traits@V?$allocator@V?$basic_string@DU?$char_traits@D@std@@V?$allocator@D@2@@std@@@std@@@std@@SAXAAV?$allocator@V?$basic_string@DU?$char_traits@D@std@@V?$allocator@D@2@@std@@@1@QAV?$basic_string@DU?$char_traits@D@std@@V?$allocator@D@2@@1@$$QAV31@@Z 00422110 f i CW2GameState.obj
 0001:00021160       ??$dynamic_pointer_cast@VCW2TileManager@@V1@@std@@YA?AV?$shared_ptr@VCW2TileManager@@@0@ABV10@@Z 00422160 f i CW2GameState.obj
 0001:000211c0       ??$emplace_back@ABQAVDisplayableObject@@@?$vector@PAVDisplayableObject@@V?$allocator@PAVDisplayableObject@@@std@@@std@@QAE?A_TABQAVDisplayableObject@@@Z 004221c0 f i CW2GameState.obj
 0001:00021240       ??$emplace_back@ABV?$basic_string@DU?$char_traits@D@std@@V?$allocator@D@2@@std@@@?$vector@V?$basic_string@DU?$char_traits@D@std@@V?$allocator@D@2@@std@@V?$allocator@V?$basic_string@DU?$char_traits@D@std@@V?$allocator@D@2@@std@@@2@@std@@QAE?A_TABV?$basic_string@DU?$char_traits@D@std@@V?$allocator@D@2@@1@@Z 00422240 f i CW2GameState.obj
 0001:000212c0       ??$emplace_back@PAVMonster@@@?$vector@PAVMonster@@V?$allocator@PAVMonster@@@std@@@std@@QAE?A_T$$QAPAVMonster@@@Z 004222c0 f i CW2GameState.obj
 0001:00021340       ??$emplace_back@V?$basic_string@DU?$char_traits@D@std@@V?$allocator@D@2@@std@@@?$vector@V?$basic_string@DU?$char_traits@D@std@@V?$allocator@D@2@@std@@V?$allocator@V?$basic_string@DU?$char_traits@D@std@@V?$allocator@D@2@@std@@@2@@std@@QAE?A_T$$QAV?$basic_string@DU?$char_traits@D@std@@V?$allocator@D@2@@1@@Z 00422340 f i CW2GameState.obj
 0001:000213c0       ??$exchange@PAPAVMonster@@$$T@std@@YAPAPAVMonster@@AAPAPAV1@$$QA$$T@Z 004223c0 f i CW2GameState.obj
 0001:000213f0       ??$exchange@PAV_Facet_base@std@@$$T@std@@YAPAV_Facet_base@0@AAPAV10@$$QA$$T@Z 004223f0 f i CW2GameState.obj
 0001:00021420       ??$forward@AAPAV_Facet_base@std@@@std@@YAAAPAV_Facet_base@0@AAPAV10@@Z 00422420 f i CW2GameState.obj
 0001:00021430       ??$forward@AAV?$allocator@D@std@@@std@@YAAAV?$allocator@D@0@AAV10@@Z 00422430 f i CW2GameState.obj
 0001:00021440       ??$forward@ABH@std@@YAABHABH@Z 00422440 f i CW2GameState.obj
 0001:00021450       ??$forward@ABQAVDisplayableObject@@@std@@YAABQAVDisplayableObject@@ABQAV1@@Z 00422450 f i CW2GameState.obj
 0001:00021460       ??$forward@PAPAVMonster@@@std@@YA$$QAPAPAVMonster@@AAPAPAV1@@Z 00422460 f i CW2GameState.obj
 0001:00021470       ??$forward@PAVDisplayableObject@@@std@@YA$$QAPAVDisplayableObject@@AAPAV1@@Z 00422470 f i CW2GameState.obj
 0001:00021480       ??$forward@PAVMonster@@@std@@YA$$QAPAVMonster@@AAPAV1@@Z 00422480 f i CW2GameState.obj
 0001:00021490       ??$forward@V?$allocator@PAVMonster@@@std@@@std@@YA$$QAV?$allocator@PAVMonster@@@0@AAV10@@Z 00422490 f i CW2GameState.obj
 0001:000214a0       ??$getAllObjectsByType@VMonster@@@CW2Engine@@QAE?AV?$vector@PAVMonster@@V?$allocator@PAVMonster@@@std@@@std@@XZ 004224a0 f i CW2GameState.obj
 0001:00021670       ??$getline@DU?$char_traits@D@std@@V?$allocator@D@2@@std@@YAAAV?$basic_istream@DU?$char_traits@D@std@@@0@$$QAV10@AAV?$basic_string@DU?$char_traits@D@std@@V?$allocator@D@2@@0@D@Z 00422670 f i CW2GameState.obj
 0001:000218f0       ??$getline@DU?$char_traits@D@std@@V?$allocator@D@2@@std@@YAAAV?$basic_istream@DU?$char_traits@D@std@@@0@AAV10@AAV?$basic_string@DU?$char_traits@D@std@@V?$allocator@D@2@@0@@Z 004228f0 f i CW2GameState.obj
 0001:00021940       ??$getline@DU?$char_traits@D@std@@V?$allocator@D@2@@std@@YAAAV?$basic_istream@DU?$char_traits@D@std@@@0@AAV10@AAV?$basic_string@DU?$char_traits@D@std@@V?$allocator@D@2@@0@D@Z 00422940 f i CW2GameState.obj
 0001:00021970       ??$make_shared@VCW2TileManager@@ABHABHABHABH@std@@YA?AV?$shared_ptr@VCW2TileManager@@@0@ABH000@Z 00422970 f i CW2GameState.obj
 0001:00021ab0       ??$max@PAD@std@@YAABQADABQAD0@Z 00422ab0 f i CW2GameState.obj
 0001:00021af0       ??$move@AAPAVCW2TileManager@@@std@@YA$$QAPAVCW2TileManager@@AAPAV1@@Z 00422af0 f i CW2GameState.obj
 0001:00021b00       ??$move@AAPAVMonster@@@std@@YA$$QAPAVMonster@@AAPAV1@@Z 00422b00 f i CW2GameState.obj
 0001:00021b10       ??$move@AAPAVRawImageData@@@std@@YA$$QAPAVRawImageData@@AAPAV1@@Z 00422b10 f i CW2GameState.obj
 0001:00021b20       ??$move@AAV?$allocator@PAVMonster@@@std@@@std@@YA$$QAV?$allocator@PAVMonster@@@0@AAV10@@Z 00422b20 f i CW2GameState.obj
 0001:00021b30       ??$move@AAV?$basic_istream@DU?$char_traits@D@std@@@std@@@std@@YA$$QAV?$basic_istream@DU?$char_traits@D@std@@@0@AAV10@@Z 00422b30 f i CW2GameState.obj
 0001:00021b40       ??$move@AAV?$basic_string@DU?$char_traits@D@std@@V?$allocator@D@2@@std@@@std@@YA$$QAV?$basic_string@DU?$char_traits@D@std@@V?$allocator@D@2@@0@AAV10@@Z 00422b40 f i CW2GameState.obj
 0001:00021b50       ??$move@AAV?$shared_ptr@VCW2TileManager@@@std@@@std@@YA$$QAV?$shared_ptr@VCW2TileManager@@@0@AAV10@@Z 00422b50 f i CW2GameState.obj
 0001:00021b60       ??$swap@PAVCW2TileManager@@$0A@@std@@YAXAAPAVCW2TileManager@@0@Z 00422b60 f i CW2GameState.obj
 0001:00021bb0       ??$swap@PAVRawImageData@@$0A@@std@@YAXAAPAVRawImageData@@0@Z 00422bb0 f i CW2GameState.obj
 0001:00021c00       ??$use_facet@V?$codecvt@DDU_Mbstatet@@@std@@@std@@YAABV?$codecvt@DDU_Mbstatet@@@0@ABVlocale@0@@Z 00422c00 f i CW2GameState.obj
 0001:00021d50       ??0?$_Uninitialized_backout_al@V?$allocator@PAVMonster@@@std@@@std@@QAE@PAPAVMonster@@AAV?$allocator@PAVMonster@@@1@@Z 00422d50 f i CW2GameState.obj
 0001:00021d90       ??0?$_Vector_val@U?$_Simple_types@PAVMonster@@@std@@@std@@QAE@PAPAVMonster@@00@Z 00422d90 f i CW2GameState.obj
 0001:00021dd0       ??0?$_Vector_val@U?$_Simple_types@PAVMonster@@@std@@@std@@QAE@XZ 00422dd0 f i CW2GameState.obj
 0001:00021e20       ??0?$allocator@PAVMonster@@@std@@QAE@XZ 00422e20 f i CW2GameState.obj
 0001:00021e40       ??0?$basic_filebuf@DU?$char_traits@D@std@@@std@@QAE@XZ 00422e40 f i CW2GameState.obj
 0001:00021ec0       ??0?$basic_ifstream@DU?$char_traits@D@std@@@std@@QAE@PBDHH@Z 00422ec0 f i CW2GameState.obj
 0001:00022010       ??0?$basic_ifstream@DU?$char_traits@D@std@@@std@@QAE@XZ 00423010 f i CW2GameState.obj
 0001:00022120       ??0?$basic_ofstream@DU?$char_traits@D@std@@@std@@QAE@PBDHH@Z 00423120 f i CW2GameState.obj
 0001:00022270       ??0?$basic_string@DU?$char_traits@D@std@@V?$allocator@D@2@@std@@QAE@ID@Z 00423270 f i CW2GameState.obj
 0001:00022350       ??0?$basic_string@DU?$char_traits@D@std@@V?$allocator@D@2@@std@@QAE@U_String_constructor_concat_tag@1@AAV01@1@Z 00423350 f i CW2GameState.obj
 0001:00022700       ??0?$basic_string@DU?$char_traits@D@std@@V?$allocator@D@2@@std@@QAE@U_String_constructor_concat_tag@1@ABV01@QBDI2I@Z 00423700 f i CW2GameState.obj
 0001:00022920       ??0?$basic_string@DU?$char_traits@D@std@@V?$allocator@D@2@@std@@QAE@XZ 00423920 f i CW2GameState.obj
 0001:000229b0       ??0?$basic_stringbuf@DU?$char_traits@D@std@@V?$allocator@D@2@@std@@QAE@ABV?$basic_string@DU?$char_traits@D@std@@V?$allocator@D@2@@1@H@Z 004239b0 f i CW2GameState.obj
 0001:00022a70       ??0?$basic_stringstream@DU?$char_traits@D@std@@V?$allocator@D@2@@std@@QAE@ABV?$basic_string@DU?$char_traits@D@std@@V?$allocator@D@2@@1@H@Z 00423a70 f i CW2GameState.obj
 0001:00022b90       ??0?$fpos@U_Mbstatet@@@std@@QAE@U_Mbstatet@@_J@Z 00423b90 f i CW2GameState.obj
 0001:00022be0       ??0?$fpos@U_Mbstatet@@@std@@QAE@_J@Z 00423be0 f i CW2GameState.obj
 0001:00022c30       ??0?$shared_ptr@VCW2TileManager@@@std@@QAE@$$QAV01@@Z 00423c30 f i CW2GameState.obj
 0001:00022c70       ??0?$shared_ptr@VCW2TileManager@@@std@@QAE@XZ 00423c70 f i CW2GameState.obj
 0001:00022c90       ??0?$vector@PAVMonster@@V?$allocator@PAVMonster@@@std@@@std@@QAE@$$QAV01@@Z 00423c90 f i CW2GameState.obj
 0001:00022dc0       ??0?$vector@PAVMonster@@V?$allocator@PAVMonster@@@std@@@std@@QAE@XZ 00423dc0 f i CW2GameState.obj
 0001:00022e40       ??0CW2Magic@@QAE@HHPAVBaseEngine@@HNHH@Z 00423e40 f i CW2GameState.obj
 0001:000230a0       ??0CW2Wand@@QAE@HHPAVBaseEngine@@HHH@Z 004240a0 f i CW2GameState.obj
 0001:00023260       ??0_Sentry_base@?$basic_istream@DU?$char_traits@D@std@@@std@@QAE@AAV12@@Z 00424260 f i CW2GameState.obj
 0001:000232c0       ??0bad_cast@std@@QAE@ABV01@@Z 004242c0 f i CW2GameState.obj
 0001:000232f0       ??0bad_cast@std@@QAE@XZ    004242f0 f i CW2GameState.obj
 0001:00023320       ??0sentry@?$basic_istream@DU?$char_traits@D@std@@@std@@QAE@AAV12@_N@Z 00424320 f i CW2GameState.obj
 0001:000233b0       ??1?$_Ref_count_obj2@VCW2TileManager@@@std@@UAE@XZ 004243b0 f i CW2GameState.obj
 0001:000233e0       ??1?$_Uninitialized_backout_al@V?$allocator@PAVMonster@@@std@@@std@@QAE@XZ 004243e0 f i CW2GameState.obj
 0001:00023410       ??1?$basic_filebuf@DU?$char_traits@D@std@@@std@@UAE@XZ 00424410 f i CW2GameState.obj
 0001:000234a0       ??1?$basic_ifstream@DU?$char_traits@D@std@@@std@@UAE@XZ 004244a0 f i CW2GameState.obj
 0001:00023510       ??1?$basic_ofstream@DU?$char_traits@D@std@@@std@@UAE@XZ 00424510 f i CW2GameState.obj
 0001:00023580       ??1?$basic_stringbuf@DU?$char_traits@D@std@@V?$allocator@D@2@@std@@UAE@XZ 00424580 f i CW2GameState.obj
 0001:000235b0       ??1?$basic_stringstream@DU?$char_traits@D@std@@V?$allocator@D@2@@std@@UAE@XZ 004245b0 f i CW2GameState.obj
 0001:00023620       ??1?$unique_ptr@V_Facet_base@std@@U?$default_delete@V_Facet_base@std@@@2@@std@@QAE@XZ 00424620 f i CW2GameState.obj
 0001:00023660       ??1?$vector@PAVMonster@@V?$allocator@PAVMonster@@@std@@@std@@QAE@XZ 00424660 f i CW2GameState.obj
 0001:000236d0       ??1CW2Magic@@UAE@XZ        004246d0 f i CW2GameState.obj
 0001:00023780       ??1CW2Wand@@UAE@XZ         00424780 f i CW2GameState.obj
 0001:00023830       ??1_Sentry_base@?$basic_istream@DU?$char_traits@D@std@@@std@@QAE@XZ 00424830 f i CW2GameState.obj
 0001:000238c0       ??1bad_cast@std@@UAE@XZ    004248c0 f i CW2GameState.obj
 0001:000238e0       ??1locale@std@@QAE@XZ      004248e0 f i CW2GameState.obj
 0001:00023940       ??1sentry@?$basic_istream@DU?$char_traits@D@std@@@std@@QAE@XZ 00424940 f i CW2GameState.obj
 0001:00023960       ??4?$basic_string@DU?$char_traits@D@std@@V?$allocator@D@2@@std@@QAEAAV01@QBD@Z 00424960 f i CW2GameState.obj
 0001:00023980       ??4?$shared_ptr@VCW2TileManager@@@std@@QAEAAV01@$$QAV01@@Z 00424980 f i CW2GameState.obj
 0001:000239d0       ??4?$shared_ptr@VRawImageData@@@std@@QAEAAV01@ABV01@@Z 004249d0 f i CW2GameState.obj
 0001:00023a10       ??4SimpleImage@@QAEAAV0@ABV0@@Z 00424a10 f i CW2GameState.obj
 0001:00023a60       ??A?$basic_string@DU?$char_traits@D@std@@V?$allocator@D@2@@std@@QAEAADI@Z 00424a60 f i CW2GameState.obj
 0001:00023af0       ??A?$vector@PAVCW2GameState@@V?$allocator@PAVCW2GameState@@@std@@@std@@QAEAAPAVCW2GameState@@I@Z 00424af0 f i CW2GameState.obj
 0001:00023ba0       ??A?$vector@PAVDisplayableObject@@V?$allocator@PAVDisplayableObject@@@std@@@std@@QBEABQAVDisplayableObject@@I@Z 00424ba0 f i CW2GameState.obj
 0001:00023c50       ??A?$vector@V?$basic_string@DU?$char_traits@D@std@@V?$allocator@D@2@@std@@V?$allocator@V?$basic_string@DU?$char_traits@D@std@@V?$allocator@D@2@@std@@@2@@std@@QAEAAV?$basic_string@DU?$char_traits@D@std@@V?$allocator@D@2@@1@I@Z 00424c50 f i CW2GameState.obj
 0001:00023d00       ??B?$fpos@U_Mbstatet@@@std@@QBE_JXZ 00424d00 f i CW2GameState.obj
 0001:00023d30       ??Bsentry@?$basic_istream@DU?$char_traits@D@std@@@std@@QBE_NXZ 00424d30 f i CW2GameState.obj
 0001:00023d50       ??D?$_Vector_const_iterator@V?$_Vector_val@U?$_Simple_types@PAVDisplayableObject@@@std@@@std@@@std@@QBEABQAVDisplayableObject@@XZ 00424d50 f i CW2GameState.obj
 0001:00023e60       ??E?$_Vector_const_iterator@V?$_Vector_val@U?$_Simple_types@PAVDisplayableObject@@@std@@@std@@@std@@QAE?AV01@H@Z 00424e60 f i CW2GameState.obj
 0001:00023eb0       ??R<lambda_15711c68e099a15a58f4d77303cb286d>@@QBE@QADQBDID@Z 00424eb0 f i CW2GameState.obj
 0001:00023f20       ??R<lambda_ab246b20b9526e2ef7792587e4298a77>@@QBE@QADQBDI1I@Z 00424f20 f i CW2GameState.obj
 0001:00023f90       ??R<lambda_c6753c90be971fc9cc00b4f35f237a75>@@QBE@QADID@Z 00424f90 f i CW2GameState.obj
 0001:00023fe0       ??R?$default_delete@V_Facet_base@std@@@std@@QBEXPAV_Facet_base@1@@Z 00424fe0 f i CW2GameState.obj
 0001:00024030       ??Y?$basic_string@DU?$char_traits@D@std@@V?$allocator@D@2@@std@@QAEAAV01@D@Z 00425030 f i CW2GameState.obj
 0001:00024060       ??_D?$basic_ifstream@DU?$char_traits@D@std@@@std@@QAEXXZ 00425060 f i CW2GameState.obj
 0001:00024090       ??_D?$basic_ofstream@DU?$char_traits@D@std@@@std@@QAEXXZ 00425090 f i CW2GameState.obj
 0001:000240c0       ??_D?$basic_stringstream@DU?$char_traits@D@std@@V?$allocator@D@2@@std@@QAEXXZ 004250c0 f i CW2GameState.obj
 0001:000240ea       ??_E?$basic_ifstream@DU?$char_traits@D@std@@@std@@$4PPPPPPPM@A@AEPAXI@Z 004250ea f i CW2GameState.obj
 0001:000240f4       ??_E?$basic_ofstream@DU?$char_traits@D@std@@@std@@$4PPPPPPPM@A@AEPAXI@Z 004250f4 f i CW2GameState.obj
 0001:000240fe       ??_E?$basic_stringstream@DU?$char_traits@D@std@@V?$allocator@D@2@@std@@$4PPPPPPPM@A@AEPAXI@Z 004250fe f i CW2GameState.obj
 0001:00024108       ??_ECW2Magic@@WCI@AEPAXI@Z 00425108 f i CW2GameState.obj
 0001:00024112       ??_ECW2Wand@@WCI@AEPAXI@Z  00425112 f i CW2GameState.obj
 0001:00024120       ??_G?$_Ref_count_obj2@VCW2TileManager@@@std@@UAEPAXI@Z 00425120 f i CW2GameState.obj
 0001:00024120       ??_E?$_Ref_count_obj2@VCW2TileManager@@@std@@UAEPAXI@Z 00425120 f i CW2GameState.obj
 0001:00024160       ??_G?$basic_filebuf@DU?$char_traits@D@std@@@std@@UAEPAXI@Z 00425160 f i CW2GameState.obj
 0001:00024160       ??_E?$basic_filebuf@DU?$char_traits@D@std@@@std@@UAEPAXI@Z 00425160 f i CW2GameState.obj
 0001:000241a0       ??_G?$basic_ifstream@DU?$char_traits@D@std@@@std@@UAEPAXI@Z 004251a0 f i CW2GameState.obj
 0001:000241a0       ??_E?$basic_ifstream@DU?$char_traits@D@std@@@std@@UAEPAXI@Z 004251a0 f i CW2GameState.obj
 0001:000241f0       ??_E?$basic_ofstream@DU?$char_traits@D@std@@@std@@UAEPAXI@Z 004251f0 f i CW2GameState.obj
 0001:000241f0       ??_G?$basic_ofstream@DU?$char_traits@D@std@@@std@@UAEPAXI@Z 004251f0 f i CW2GameState.obj
 0001:00024240       ??_E?$basic_stringbuf@DU?$char_traits@D@std@@V?$allocator@D@2@@std@@UAEPAXI@Z 00425240 f i CW2GameState.obj
 0001:00024240       ??_G?$basic_stringbuf@DU?$char_traits@D@std@@V?$allocator@D@2@@std@@UAEPAXI@Z 00425240 f i CW2GameState.obj
 0001:00024280       ??_G?$basic_stringstream@DU?$char_traits@D@std@@V?$allocator@D@2@@std@@UAEPAXI@Z 00425280 f i CW2GameState.obj
 0001:00024280       ??_E?$basic_stringstream@DU?$char_traits@D@std@@V?$allocator@D@2@@std@@UAEPAXI@Z 00425280 f i CW2GameState.obj
 0001:000242d0       ??_ECW2Magic@@UAEPAXI@Z    004252d0 f i CW2GameState.obj
 0001:000242d0       ??_GCW2Magic@@UAEPAXI@Z    004252d0 f i CW2GameState.obj
 0001:00024310       ??_GCW2Wand@@UAEPAXI@Z     00425310 f i CW2GameState.obj
 0001:00024310       ??_ECW2Wand@@UAEPAXI@Z     00425310 f i CW2GameState.obj
 0001:00024350       ??_Gbad_cast@std@@UAEPAXI@Z 00425350 f i CW2GameState.obj
 0001:00024350       ??_Ebad_cast@std@@UAEPAXI@Z 00425350 f i CW2GameState.obj
 0001:00024390       ?_Calculate_growth@?$vector@PAVDisplayableObject@@V?$allocator@PAVDisplayableObject@@@std@@@std@@ABEII@Z 00425390 f i CW2GameState.obj
 0001:00024400       ?_Calculate_growth@?$vector@PAVMonster@@V?$allocator@PAVMonster@@@std@@@std@@ABEII@Z 00425400 f i CW2GameState.obj
 0001:00024470       ?_Calculate_growth@?$vector@V?$basic_string@DU?$char_traits@D@std@@V?$allocator@D@2@@std@@V?$allocator@V?$basic_string@DU?$char_traits@D@std@@V?$allocator@D@2@@std@@@2@@std@@ABEII@Z 00425470 f i CW2GameState.obj
 0001:000244e0       ?_Change_array@?$vector@PAVDisplayableObject@@V?$allocator@PAVDisplayableObject@@@std@@@std@@AAEXQAPAVDisplayableObject@@II@Z 004254e0 f i CW2GameState.obj
 0001:000245b0       ?_Change_array@?$vector@PAVMonster@@V?$allocator@PAVMonster@@@std@@@std@@AAEXQAPAVMonster@@II@Z 004255b0 f i CW2GameState.obj
 0001:00024680       ?_Change_array@?$vector@V?$basic_string@DU?$char_traits@D@std@@V?$allocator@D@2@@std@@V?$allocator@V?$basic_string@DU?$char_traits@D@std@@V?$allocator@D@2@@std@@@2@@std@@AAEXQAV?$basic_string@DU?$char_traits@D@std@@V?$allocator@D@2@@2@II@Z 00425680 f i CW2GameState.obj
 0001:00024750       ?_Check_offset@?$_String_val@U?$_Simple_types@D@std@@@std@@QBEXI@Z 00425750 f i CW2GameState.obj
 0001:00024780       ?_Clamp_suffix_size@?$_String_val@U?$_Simple_types@D@std@@@std@@QBEIII@Z 00425780 f i CW2GameState.obj
 0001:000247c0       ?_Delete_this@?$_Ref_count_obj2@VCW2TileManager@@@std@@EAEXXZ 004257c0 f i CW2GameState.obj
 0001:00024810       ?_Destroy@?$_Ref_count_obj2@VCW2TileManager@@@std@@EAEXXZ 00425810 f i CW2GameState.obj
 0001:00024830       ?_Destroy@?$vector@PAVMonster@@V?$allocator@PAVMonster@@@std@@@std@@AAEXPAPAVMonster@@0@Z 00425830 f i CW2GameState.obj
 0001:00024860       ?_Endwrite@?$basic_filebuf@DU?$char_traits@D@std@@@std@@IAE_NXZ 00425860 f i CW2GameState.obj
 0001:000249c0       ?_Eos@?$basic_string@DU?$char_traits@D@std@@V?$allocator@D@2@@std@@AAEXI@Z 004259c0 f i CW2GameState.obj
 0001:00024a10       ?_Equal@?$basic_string@DU?$char_traits@D@std@@V?$allocator@D@2@@std@@QBE_NQBD@Z 00425a10 f i CW2GameState.obj
 0001:00024a60       ?_Erase_noexcept@?$basic_string@DU?$char_traits@D@std@@V?$allocator@D@2@@std@@AAEAAV12@II@Z 00425a60 f i CW2GameState.obj
 0001:00024af0       ?_Get_first@?$_Compressed_pair@U?$default_delete@V_Facet_base@std@@@std@@PAV_Facet_base@2@$00@std@@QAEAAU?$default_delete@V_Facet_base@std@@@2@XZ 00425af0 f i CW2GameState.obj
 0001:00024b10       ?_Get_first@?$_Compressed_pair@V?$allocator@PAVMonster@@@std@@V?$_Vector_val@U?$_Simple_types@PAVMonster@@@std@@@2@$00@std@@QAEAAV?$allocator@PAVMonster@@@2@XZ 00425b10 f i CW2GameState.obj
 0001:00024b30       ?_Get_first@?$_Compressed_pair@V?$allocator@PAVMonster@@@std@@V?$_Vector_val@U?$_Simple_types@PAVMonster@@@std@@@2@$00@std@@QBEABV?$allocator@PAVMonster@@@2@XZ 00425b30 f i CW2GameState.obj
 0001:00024b50       ?_Getal@?$vector@PAVMonster@@V?$allocator@PAVMonster@@@std@@@std@@AAEAAV?$allocator@PAVMonster@@@2@XZ 00425b50 f i CW2GameState.obj
 0001:00024b70       ?_Getal@?$vector@PAVMonster@@V?$allocator@PAVMonster@@@std@@@std@@ABEABV?$allocator@PAVMonster@@@2@XZ 00425b70 f i CW2GameState.obj
 0001:00024b90       ?_Getfacet@locale@std@@QBEPBVfacet@12@I@Z 00425b90 f i CW2GameState.obj
 0001:00024c30       ?_Getstate@?$basic_stringbuf@DU?$char_traits@D@std@@V?$allocator@D@2@@std@@CAHH@Z 00425c30 f i CW2GameState.obj
 0001:00024ca0       ?_Init@?$basic_filebuf@DU?$char_traits@D@std@@@std@@IAEXPAU_iobuf@@W4_Initfl@12@@Z 00425ca0 f i CW2GameState.obj
 0001:00024da0       ?_Init@?$basic_stringbuf@DU?$char_traits@D@std@@V?$allocator@D@2@@std@@IAEXPBDIH@Z 00425da0 f i CW2GameState.obj
 0001:00024ef0       ?_Initcvt@?$basic_filebuf@DU?$char_traits@D@std@@@std@@IAEXABV?$codecvt@DDU_Mbstatet@@@2@@Z 00425ef0 f i CW2GameState.obj
 0001:00024f50       ?_Lock@?$basic_filebuf@DU?$char_traits@D@std@@@std@@UAEXXZ 00425f50 f i CW2GameState.obj
 0001:00024f80       ?_Orphan_range@?$vector@PAVMonster@@V?$allocator@PAVMonster@@@std@@@std@@ABEXPAPAVMonster@@0@Z 00425f80 f i CW2GameState.obj
 0001:00024fb0       ?_Orphan_range@?$vector@V?$basic_string@DU?$char_traits@D@std@@V?$allocator@D@2@@std@@V?$allocator@V?$basic_string@DU?$char_traits@D@std@@V?$allocator@D@2@@std@@@2@@std@@ABEXPAV?$basic_string@DU?$char_traits@D@std@@V?$allocator@D@2@@2@0@Z 00425fb0 f i CW2GameState.obj
 0001:00024fe0       ?_Orphan_range_locked@?$vector@PAVMonster@@V?$allocator@PAVMonster@@@std@@@std@@ABEXPAPAVMonster@@0@Z 00425fe0 f i CW2GameState.obj
 0001:00025070       ?_Orphan_range_locked@?$vector@V?$basic_string@DU?$char_traits@D@std@@V?$allocator@D@2@@std@@V?$allocator@V?$basic_string@DU?$char_traits@D@std@@V?$allocator@D@2@@std@@@2@@std@@ABEXPAV?$basic_string@DU?$char_traits@D@std@@V?$allocator@D@2@@2@0@Z 00426070 f i CW2GameState.obj
 0001:00025100       ?_Orphan_range_unlocked@?$vector@PAVMonster@@V?$allocator@PAVMonster@@@std@@@std@@ABEXPAPAVMonster@@0@Z 00426100 f i CW2GameState.obj
 0001:00025190       ?_Orphan_range_unlocked@?$vector@V?$basic_string@DU?$char_traits@D@std@@V?$allocator@D@2@@std@@V?$allocator@V?$basic_string@DU?$char_traits@D@std@@V?$allocator@D@2@@std@@@2@@std@@ABEXPAV?$basic_string@DU?$char_traits@D@std@@V?$allocator@D@2@@2@0@Z 00426190 f i CW2GameState.obj
 0001:00025220       ?_Release@?$_Uninitialized_backout_al@V?$allocator@PAVMonster@@@std@@@std@@QAEPAPAVMonster@@XZ 00426220 f i CW2GameState.obj
 0001:00025250       ?_Reset_back@?$basic_filebuf@DU?$char_traits@D@std@@@std@@AAEXXZ 00426250 f i CW2GameState.obj
 0001:000252a0       ?_Set_back@?$basic_filebuf@DU?$char_traits@D@std@@@std@@AAEXXZ 004262a0 f i CW2GameState.obj
 0001:00025310       ?_Swap@?$_Ptr_base@VCW2TileManager@@@std@@IAEXAAV12@@Z 00426310 f i CW2GameState.obj
 0001:00025350       ?_Swap@?$_Ptr_base@VRawImageData@@@std@@IAEXAAV12@@Z 00426350 f i CW2GameState.obj
 0001:00025390       ?_Throw_bad_cast@std@@YAXXZ 00426390 f i CW2GameState.obj
 0001:000253c0       ?_Tidy@?$basic_stringbuf@DU?$char_traits@D@std@@V?$allocator@D@2@@std@@IAEXXZ 004263c0 f i CW2GameState.obj
 0001:000254d0       ?_Tidy@?$vector@PAVMonster@@V?$allocator@PAVMonster@@@std@@@std@@AAEXXZ 004264d0 f i CW2GameState.obj
 0001:000255c0       ?_Umove@?$vector@PAVDisplayableObject@@V?$allocator@PAVDisplayableObject@@@std@@@std@@AAEPAPAVDisplayableObject@@PAPAV3@00@Z 004265c0 f i CW2GameState.obj
 0001:00025600       ?_Umove@?$vector@PAVMonster@@V?$allocator@PAVMonster@@@std@@@std@@AAEPAPAVMonster@@PAPAV3@00@Z 00426600 f i CW2GameState.obj
 0001:00025640       ?_Umove@?$vector@V?$basic_string@DU?$char_traits@D@std@@V?$allocator@D@2@@std@@V?$allocator@V?$basic_string@DU?$char_traits@D@std@@V?$allocator@D@2@@std@@@2@@std@@AAEPAV?$basic_string@DU?$char_traits@D@std@@V?$allocator@D@2@@2@PAV32@00@Z 00426640 f i CW2GameState.obj
 0001:00025680       ?_Umove_if_noexcept1@?$vector@PAVDisplayableObject@@V?$allocator@PAVDisplayableObject@@@std@@@std@@AAEXPAPAVDisplayableObject@@00U?$integral_constant@_N$00@2@@Z 00426680 f i CW2GameState.obj
 0001:000256c0       ?_Umove_if_noexcept1@?$vector@PAVMonster@@V?$allocator@PAVMonster@@@std@@@std@@AAEXPAPAVMonster@@00U?$integral_constant@_N$00@2@@Z 004266c0 f i CW2GameState.obj
 0001:00025700       ?_Umove_if_noexcept1@?$vector@V?$basic_string@DU?$char_traits@D@std@@V?$allocator@D@2@@std@@V?$allocator@V?$basic_string@DU?$char_traits@D@std@@V?$allocator@D@2@@std@@@2@@std@@AAEXPAV?$basic_string@DU?$char_traits@D@std@@V?$allocator@D@2@@2@00U?$integral_constant@_N$00@2@@Z 00426700 f i CW2GameState.obj
 0001:00025740       ?_Umove_if_noexcept@?$vector@PAVDisplayableObject@@V?$allocator@PAVDisplayableObject@@@std@@@std@@AAEXPAPAVDisplayableObject@@00@Z 00426740 f i CW2GameState.obj
 0001:00025780       ?_Umove_if_noexcept@?$vector@PAVMonster@@V?$allocator@PAVMonster@@@std@@@std@@AAEXPAPAVMonster@@00@Z 00426780 f i CW2GameState.obj
 0001:000257c0       ?_Umove_if_noexcept@?$vector@V?$basic_string@DU?$char_traits@D@std@@V?$allocator@D@2@@std@@V?$allocator@V?$basic_string@DU?$char_traits@D@std@@V?$allocator@D@2@@std@@@2@@std@@AAEXPAV?$basic_string@DU?$char_traits@D@std@@V?$allocator@D@2@@2@00@Z 004267c0 f i CW2GameState.obj
 0001:00025800       ?_Unlock@?$basic_filebuf@DU?$char_traits@D@std@@@std@@UAEXXZ 00426800 f i CW2GameState.obj
 0001:00025830       ?_Xlength@?$vector@PAVMonster@@V?$allocator@PAVMonster@@@std@@@std@@CAXXZ 00426830 f i CW2GameState.obj
 0001:00025850       ?_Xran@?$_String_val@U?$_Simple_types@D@std@@@std@@SAXXZ 00426850 f i CW2GameState.obj
 0001:00025870       ?_Xrange@?$vector@PAVMonster@@V?$allocator@PAVMonster@@@std@@@std@@CAXXZ 00426870 f i CW2GameState.obj
 0001:00025890       ?_Xrange@?$vector@V?$basic_string@DU?$char_traits@D@std@@V?$allocator@D@2@@std@@V?$allocator@V?$basic_string@DU?$char_traits@D@std@@V?$allocator@D@2@@std@@@2@@std@@CAXXZ 00426890 f i CW2GameState.obj
 0001:000258b0       ?allocate@?$allocator@PAVMonster@@@std@@QAEPAPAVMonster@@I@Z 004268b0 f i CW2GameState.obj
 0001:000258e0       ?append@?$basic_string@DU?$char_traits@D@std@@V?$allocator@D@2@@std@@QAEAAV12@ABV12@@Z 004268e0 f i CW2GameState.obj
 0001:00025910       ?append@?$basic_string@DU?$char_traits@D@std@@V?$allocator@D@2@@std@@QAEAAV12@QBDI@Z 00426910 f i CW2GameState.obj
 0001:000259d0       ?appendObjectToArray@DisplayableObjectContainer@@QAEXPAVDisplayableObject@@@Z 004269d0 f i CW2GameState.obj
 0001:00025a10       ?assign@?$_Narrow_char_traits@DH@std@@SAPADQADID@Z 00426a10 f i CW2GameState.obj
 0001:00025a30       ?assign@?$basic_string@DU?$char_traits@D@std@@V?$allocator@D@2@@std@@QAEAAV12@ID@Z 00426a30 f i CW2GameState.obj
 0001:00025ad0       ?at@?$vector@PAVMonster@@V?$allocator@PAVMonster@@@std@@@std@@QAEAAPAVMonster@@I@Z 00426ad0 f i CW2GameState.obj
 0001:00025b20       ?at@?$vector@V?$basic_string@DU?$char_traits@D@std@@V?$allocator@D@2@@std@@V?$allocator@V?$basic_string@DU?$char_traits@D@std@@V?$allocator@D@2@@std@@@2@@std@@QAEAAV?$basic_string@DU?$char_traits@D@std@@V?$allocator@D@2@@2@I@Z 00426b20 f i CW2GameState.obj
 0001:00025b70       ?begin@?$vector@PAVDisplayableObject@@V?$allocator@PAVDisplayableObject@@@std@@@std@@QBE?AV?$_Vector_const_iterator@V?$_Vector_val@U?$_Simple_types@PAVDisplayableObject@@@std@@@std@@@2@XZ 00426b70 f i CW2GameState.obj
 0001:00025bc0       ?capacity@?$vector@PAVDisplayableObject@@V?$allocator@PAVDisplayableObject@@@std@@@std@@QBEIXZ 00426bc0 f i CW2GameState.obj
 0001:00025bf0       ?capacity@?$vector@PAVMonster@@V?$allocator@PAVMonster@@@std@@@std@@QBEIXZ 00426bf0 f i CW2GameState.obj
 0001:00025c20       ?capacity@?$vector@V?$basic_string@DU?$char_traits@D@std@@V?$allocator@D@2@@std@@V?$allocator@V?$basic_string@DU?$char_traits@D@std@@V?$allocator@D@2@@std@@@2@@std@@QBEIXZ 00426c20 f i CW2GameState.obj
 0001:00025c50       ?checkCollisions@CW2Magic@@QAEXXZ 00426c50 f i CW2GameState.obj
 0001:00025e10       ?close@?$basic_filebuf@DU?$char_traits@D@std@@@std@@QAEPAV12@XZ 00426e10 f i CW2GameState.obj
 0001:00025e90       ?close@?$basic_ifstream@DU?$char_traits@D@std@@@std@@QAEXXZ 00426e90 f i CW2GameState.obj
 0001:00025ed0       ?close@?$basic_ofstream@DU?$char_traits@D@std@@@std@@QAEXXZ 00426ed0 f i CW2GameState.obj
 0001:00025f10       ?copyAllBackgroundBuffer@CW2GameState@@UAEXXZ 00426f10 f i CW2GameState.obj
 0001:00025f20       ?deallocate@?$allocator@PAVMonster@@@std@@QAEXQAPAVMonster@@I@Z 00426f20 f i CW2GameState.obj
 0001:00025f50       ?drawBackgroundRectangle@BaseEngine@@QAEXHHHHI@Z 00426f50 f i CW2GameState.obj
 0001:00025f90       ?drawBackgroundString@BaseEngine@@QAEXHHPBDIPAVFont@@@Z 00426f90 f i CW2GameState.obj
 0001:00025fd0       ?end@?$vector@PAVDisplayableObject@@V?$allocator@PAVDisplayableObject@@@std@@@std@@QBE?AV?$_Vector_const_iterator@V?$_Vector_val@U?$_Simple_types@PAVDisplayableObject@@@std@@@std@@@2@XZ 00426fd0 f i CW2GameState.obj
 0001:00026020       ?eq@?$_Narrow_char_traits@DH@std@@SA_NABD0@Z 00427020 f i CW2GameState.obj
 0001:00026060       ?erase@?$basic_string@DU?$char_traits@D@std@@V?$allocator@D@2@@std@@QAEAAV12@I@Z 00427060 f i CW2GameState.obj
 0001:000260a0       ?erase@?$basic_string@DU?$char_traits@D@std@@V?$allocator@D@2@@std@@QAEAAV12@II@Z 004270a0 f i CW2GameState.obj
 0001:000260e0       ?front@?$basic_string@DU?$char_traits@D@std@@V?$allocator@D@2@@std@@QAEAADXZ 004270e0 f i CW2GameState.obj
 0001:00026180       ?getBackgroundSurface@BaseEngine@@QAEPAVDrawingSurface@@XZ 00427180 f i CW2GameState.obj
 0001:000261a0       ?getContentCount@DisplayableObjectContainer@@QBEHXZ 004271a0 f i CW2GameState.obj
 0001:000261c0       ?getContentItem@DisplayableObjectContainer@@QBEPAVDisplayableObject@@H@Z 004271c0 f i CW2GameState.obj
 0001:000261f0       ?getCurrentMouseX@BaseEngine@@QBEHXZ 004271f0 f i CW2GameState.obj
 0001:00026210       ?getCurrentMouseY@BaseEngine@@QBEHXZ 00427210 f i CW2GameState.obj
 0001:00026230       ?getPlayer@PlayState@@QAEAAVPlayer@@XZ 00427230 f i CW2GameState.obj
 0001:00026250       ?getScore@Player@@QBEHXZ   00427250 f i CW2GameState.obj
 0001:00026270       ?getState@CW2Magic@@UAE?AV?$vector@V?$basic_string@DU?$char_traits@D@std@@V?$allocator@D@2@@std@@V?$allocator@V?$basic_string@DU?$char_traits@D@std@@V?$allocator@D@2@@std@@@2@@std@@XZ 00427270 f i CW2GameState.obj
 0001:00026430       ?getState@CW2TileManager@@QBEHXZ 00427430 f i CW2GameState.obj
 0001:00026450       ?getState@CW2Wand@@UAE?AV?$vector@V?$basic_string@DU?$char_traits@D@std@@V?$allocator@D@2@@std@@V?$allocator@V?$basic_string@DU?$char_traits@D@std@@V?$allocator@D@2@@std@@@2@@std@@XZ 00427450 f i CW2GameState.obj
 0001:000265e0       ?getStateByIndex@CW2StateManager@@QAEPAVCW2GameState@@H@Z 004275e0 f i CW2GameState.obj
 0001:00026610       ?get_allocator@?$basic_string@DU?$char_traits@D@std@@V?$allocator@D@2@@std@@QBE?AV?$allocator@D@2@XZ 00427610 f i CW2GameState.obj
 0001:00026630       ?imbue@?$basic_filebuf@DU?$char_traits@D@std@@@std@@MAEXABVlocale@2@@Z 00427630 f i CW2GameState.obj
 0001:00026660       ?isPaused@BaseEngine@@QAE_NXZ 00427660 f i CW2GameState.obj
 0001:000266a0       ?max_size@?$_Default_allocator_traits@V?$allocator@PAVMonster@@@std@@@std@@SAIABV?$allocator@PAVMonster@@@2@@Z 004276a0 f i CW2GameState.obj
 0001:000266b0       ?max_size@?$vector@PAVMonster@@V?$allocator@PAVMonster@@@std@@@std@@QBEIXZ 004276b0 f i CW2GameState.obj
 0001:00026700       ?not_eof@?$_Narrow_char_traits@DH@std@@SAHABH@Z 00427700 f i CW2GameState.obj
 0001:00026760       ?open@?$basic_filebuf@DU?$char_traits@D@std@@@std@@QAEPAV12@PBDHH@Z 00427760 f i CW2GameState.obj
 0001:00026850       ?open@?$basic_ifstream@DU?$char_traits@D@std@@@std@@QAEXPBDHH@Z 00427850 f i CW2GameState.obj
 0001:000268d0       ?overflow@?$basic_filebuf@DU?$char_traits@D@std@@@std@@MAEHH@Z 004278d0 f i CW2GameState.obj
 0001:00026b20       ?overflow@?$basic_stringbuf@DU?$char_traits@D@std@@V?$allocator@D@2@@std@@MAEHH@Z 00427b20 f i CW2GameState.obj
 0001:00026da0       ?pause@BaseEngine@@QAEXXZ  00427da0 f i CW2GameState.obj
 0001:00026dd0       ?pbackfail@?$basic_filebuf@DU?$char_traits@D@std@@@std@@MAEHH@Z 00427dd0 f i CW2GameState.obj
 0001:00026f80       ?pbackfail@?$basic_stringbuf@DU?$char_traits@D@std@@V?$allocator@D@2@@std@@MAEHH@Z 00427f80 f i CW2GameState.obj
 0001:000270a0       ?pointer_to@?$pointer_traits@PAD@std@@SAPADAAD@Z 004280a0 f i CW2GameState.obj
 0001:000270c0       ?pop_back@?$basic_string@DU?$char_traits@D@std@@V?$allocator@D@2@@std@@QAEXXZ 004280c0 f i CW2GameState.obj
 0001:000271a0       ?push_back@?$basic_string@DU?$char_traits@D@std@@V?$allocator@D@2@@std@@QAEXD@Z 004281a0 f i CW2GameState.obj
 0001:00027250       ?push_back@?$vector@PAVDisplayableObject@@V?$allocator@PAVDisplayableObject@@@std@@@std@@QAEXABQAVDisplayableObject@@@Z 00428250 f i CW2GameState.obj
 0001:00027270       ?push_back@?$vector@PAVMonster@@V?$allocator@PAVMonster@@@std@@@std@@QAEX$$QAPAVMonster@@@Z 00428270 f i CW2GameState.obj
 0001:000272a0       ?push_back@?$vector@V?$basic_string@DU?$char_traits@D@std@@V?$allocator@D@2@@std@@V?$allocator@V?$basic_string@DU?$char_traits@D@std@@V?$allocator@D@2@@std@@@2@@std@@QAEX$$QAV?$basic_string@DU?$char_traits@D@std@@V?$allocator@D@2@@2@@Z 004282a0 f i CW2GameState.obj
 0001:000272d0       ?push_back@?$vector@V?$basic_string@DU?$char_traits@D@std@@V?$allocator@D@2@@std@@V?$allocator@V?$basic_string@DU?$char_traits@D@std@@V?$allocator@D@2@@std@@@2@@std@@QAEXABV?$basic_string@DU?$char_traits@D@std@@V?$allocator@D@2@@2@@Z 004282d0 f i CW2GameState.obj
 0001:000272f0       ?release@?$unique_ptr@V_Facet_base@std@@U?$default_delete@V_Facet_base@std@@@2@@std@@QAEPAV_Facet_base@2@XZ 004282f0 f i CW2GameState.obj
 0001:00027320       ?seekoff@?$basic_filebuf@DU?$char_traits@D@std@@@std@@MAE?AV?$fpos@U_Mbstatet@@@2@_JHH@Z 00428320 f i CW2GameState.obj
 0001:00027430       ?seekoff@?$basic_stringbuf@DU?$char_traits@D@std@@V?$allocator@D@2@@std@@MAE?AV?$fpos@U_Mbstatet@@@2@_JHH@Z 00428430 f i CW2GameState.obj
 0001:000276c0       ?seekpos@?$basic_filebuf@DU?$char_traits@D@std@@@std@@MAE?AV?$fpos@U_Mbstatet@@@2@V32@H@Z 004286c0 f i CW2GameState.obj
 0001:00027790       ?seekpos@?$basic_stringbuf@DU?$char_traits@D@std@@V?$allocator@D@2@@std@@MAE?AV?$fpos@U_Mbstatet@@@2@V32@H@Z 00428790 f i CW2GameState.obj
 0001:00027940       ?setAllObjectsVisible@DisplayableObjectContainer@@QBEX_N@Z 00428940 f i CW2GameState.obj
 0001:00027a40       ?setBackgroundPixel@BaseEngine@@QAEXHHI@Z 00428a40 f i CW2GameState.obj
 0001:00027a70       ?setExitWithCode@BaseEngine@@QAEXH@Z 00428a70 f i CW2GameState.obj
 0001:00027a90       ?setPause@CW2Object@@QAEX_N@Z 00428a90 f i CW2GameState.obj
 0001:00027ab0       ?setSize@DisplayableObject@@QAEXHH@Z 00428ab0 f i CW2GameState.obj
 0001:00027ae0       ?setState@CW2TileManager@@QAEXH@Z 00428ae0 f i CW2GameState.obj
 0001:00027b00       ?setbuf@?$basic_filebuf@DU?$char_traits@D@std@@@std@@MAEPAV?$basic_streambuf@DU?$char_traits@D@std@@@2@PAD_J@Z 00428b00 f i CW2GameState.obj
 0001:00027ba0       ?size@?$vector@PAVMonster@@V?$allocator@PAVMonster@@@std@@@std@@QBEIXZ 00428ba0 f i CW2GameState.obj
 0001:00027bd0       ?size@?$vector@V?$basic_string@DU?$char_traits@D@std@@V?$allocator@D@2@@std@@V?$allocator@V?$basic_string@DU?$char_traits@D@std@@V?$allocator@D@2@@std@@@2@@std@@QBEIXZ 00428bd0 f i CW2GameState.obj
 0001:00027c00       ?state@?$fpos@U_Mbstatet@@@std@@QBE?AU_Mbstatet@@XZ 00428c00 f i CW2GameState.obj
 0001:00027c30       ?stoi@std@@YAHABV?$basic_string@DU?$char_traits@D@std@@V?$allocator@D@2@@1@PAIH@Z 00428c30 f i CW2GameState.obj
 0001:00027ce0       ?swap@?$shared_ptr@VCW2TileManager@@@std@@QAEXAAV12@@Z 00428ce0 f i CW2GameState.obj
 0001:00027d00       ?swap@?$shared_ptr@VRawImageData@@@std@@QAEXAAV12@@Z 00428d00 f i CW2GameState.obj
 0001:00027d20       ?sync@?$basic_filebuf@DU?$char_traits@D@std@@@std@@MAEHXZ 00428d20 f i CW2GameState.obj
 0001:00027da0       ?to_char_type@?$_Narrow_char_traits@DH@std@@SADABH@Z 00428da0 f i CW2GameState.obj
 0001:00027db0       ?to_int_type@?$_Narrow_char_traits@DH@std@@SAHABD@Z 00428db0 f i CW2GameState.obj
 0001:00027dc0       ?to_string@std@@YA?AV?$basic_string@DU?$char_traits@D@std@@V?$allocator@D@2@@1@N@Z 00428dc0 f i CW2GameState.obj
 0001:00027e90       ?uflow@?$basic_filebuf@DU?$char_traits@D@std@@@std@@MAEHXZ 00428e90 f i CW2GameState.obj
 0001:000281a0       ?underflow@?$basic_filebuf@DU?$char_traits@D@std@@@std@@MAEHXZ 004291a0 f i CW2GameState.obj
 0001:00028260       ?underflow@?$basic_stringbuf@DU?$char_traits@D@std@@V?$allocator@D@2@@std@@MAEHXZ 00429260 f i CW2GameState.obj
 0001:00028370       ?unpause@BaseEngine@@QAEXXZ 00429370 f i CW2GameState.obj
 0001:000283c0       ?useMagic@CW2Wand@@UAEXXZ  004293c0 f i CW2GameState.obj
 0001:00028580       ?virtDoUpdate@CW2Magic@@UAEXH@Z 00429580 f i CW2GameState.obj
 0001:00028770       ?virtDraw@CW2Magic@@UAEXXZ 00429770 f i CW2GameState.obj
 0001:00028820       ?virtDrawStringsOnTop@CW2GameState@@UAEXXZ 00429820 f i CW2GameState.obj
 0001:00028830       ?virtInitialiseObjects@CW2GameState@@UAEHXZ 00429830 f i CW2GameState.obj
 0001:00028840       ?virtKeyDown@CW2GameState@@UAEXH@Z 00429840 f i CW2GameState.obj
 0001:00028850       ?virtMainLoopDoAfterUpdate@CW2GameState@@UAEXXZ 00429850 f i CW2GameState.obj
 0001:00028860       ?virtMainLoopDoBeforeUpdate@CW2GameState@@UAEXXZ 00429860 f i CW2GameState.obj
 0001:00028870       ?virtMouseDown@CW2GameState@@UAEXHHH@Z 00429870 f i CW2GameState.obj
 0001:00028880       ?virtSetupBackgroundBuffer@CW2GameState@@UAEXXZ 00429880 f i CW2GameState.obj
 0001:00028890       ?xsgetn@?$basic_filebuf@DU?$char_traits@D@std@@@std@@MAE_JPAD_J@Z 00429890 f i CW2GameState.obj
 0001:00028a50       ?xsputn@?$basic_filebuf@DU?$char_traits@D@std@@@std@@MAE_JPBD_J@Z 00429a50 f i CW2GameState.obj
 0001:00028bb0       __scprintf                 00429bb0 f i CW2GameState.obj
 0001:00028bf0       __vscprintf_l              00429bf0 f i CW2GameState.obj
 0001:00028c50       __vsprintf_s_l             00429c50 f i CW2GameState.obj
 0001:00028cc0       _sprintf_s                 00429cc0 f i CW2GameState.obj
 0001:00028d10       ??0CW2StateManager@@QAE@PAVCW2Engine@@@Z 00429d10 f   CW2StateManager.obj
 0001:00028f40       ??1CW2StateManager@@QAE@XZ 00429f40 f   CW2StateManager.obj
 0001:000290a0       ?virtSetupBackgroundBuffer@CW2StateManager@@QAEXXZ 0042a0a0 f   CW2StateManager.obj
 0001:000290c0       ?virtInitialiseObjects@CW2StateManager@@QAEHXZ 0042a0c0 f   CW2StateManager.obj
 0001:000290e0       ?virtMouseDown@CW2StateManager@@QAEXHHH@Z 0042a0e0 f   CW2StateManager.obj
 0001:00029110       ?virtKeyDown@CW2StateManager@@QAEXH@Z 0042a110 f   CW2StateManager.obj
 0001:00029140       ?virtDrawStringsOnTop@CW2StateManager@@QAEXXZ 0042a140 f   CW2StateManager.obj
 0001:00029160       ?virtMainLoopDoBeforeUpdate@CW2StateManager@@QAEXXZ 0042a160 f   CW2StateManager.obj
 0001:00029180       ?copyAllBackgroundBuffer@CW2StateManager@@QAEXXZ 0042a180 f   CW2StateManager.obj
 0001:000291a0       ?virtMainLoopDoAfterUpdate@CW2StateManager@@QAEXXZ 0042a1a0 f   CW2StateManager.obj
 0001:000291c0       ?initState@CW2StateManager@@QAEXXZ 0042a1c0 f   CW2StateManager.obj
 0001:000291e0       ?switchToState@CW2StateManager@@QAEXH@Z 0042a1e0 f   CW2StateManager.obj
 0001:00029350       ??$?0$$V@?$_Compressed_pair@V?$allocator@PAVCW2GameState@@@std@@V?$_Vector_val@U?$_Simple_types@PAVCW2GameState@@@std@@@2@$00@std@@QAE@U_Zero_then_variadic_args_t@1@@Z 0042a350 f i CW2StateManager.obj
 0001:00029380       ??$?0PAVCW2GameState@@@?$allocator@U_Container_proxy@std@@@std@@QAE@ABV?$allocator@PAVCW2GameState@@@1@@Z 0042a380 f i CW2StateManager.obj
 0001:000293a0       ??$?8PAVCW2GameState@@PAV0@@std@@YA_NABV?$allocator@PAVCW2GameState@@@0@0@Z 0042a3a0 f i CW2StateManager.obj
 0001:000293b0       ??$_Copy_memmove@PAPAVCW2GameState@@PAPAV1@@std@@YAPAPAVCW2GameState@@PAPAV1@00@Z 0042a3b0 f i CW2StateManager.obj
 0001:00029440       ??$_Destroy_range@V?$allocator@PAVCW2GameState@@@std@@@std@@YAXPAPAVCW2GameState@@QAPAV1@AAV?$allocator@PAVCW2GameState@@@0@@Z 0042a440 f i CW2StateManager.obj
 0001:00029450       ??$_Emplace_back@PAVCW2GameState@@@?$_Uninitialized_backout_al@V?$allocator@PAVCW2GameState@@@std@@@std@@QAEX$$QAPAVCW2GameState@@@Z 0042a450 f i CW2StateManager.obj
 0001:000294b0       ??$_Emplace_back_with_unused_capacity@PAVCW2GameState@@@?$vector@PAVCW2GameState@@V?$allocator@PAVCW2GameState@@@std@@@std@@AAE?A_T$$QAPAVCW2GameState@@@Z 0042a4b0 f i CW2StateManager.obj
 0001:00029550       ??$_Emplace_reallocate@PAVCW2GameState@@@?$vector@PAVCW2GameState@@V?$allocator@PAVCW2GameState@@@std@@@std@@QAEPAPAVCW2GameState@@QAPAV2@$$QAPAV2@@Z 0042a550 f i CW2StateManager.obj
 0001:000297a0       ??$_Get_unwrapped@ABQAPAVCW2GameState@@@std@@YA?A_TABQAPAVCW2GameState@@@Z 0042a7a0 f i CW2StateManager.obj
 0001:000297b0       ??$_Move_unchecked@PAPAVCW2GameState@@PAPAV1@@std@@YAPAPAVCW2GameState@@PAPAV1@00@Z 0042a7b0 f i CW2StateManager.obj
 0001:00029820       ??$_Pocs@V?$allocator@PAVCW2GameState@@@std@@@std@@YAXAAV?$allocator@PAVCW2GameState@@@0@0@Z 0042a820 f i CW2StateManager.obj
 0001:000298b0       ??$_Swap_adl@PAPAVCW2GameState@@@std@@YAXAAPAPAVCW2GameState@@0@Z 0042a8b0 f i CW2StateManager.obj
 0001:000298d0       ??$_To_address@PAPAVCW2GameState@@@std@@YA?A_PABQAPAVCW2GameState@@@Z 0042a8d0 f i CW2StateManager.obj
 0001:000298e0       ??$_Unfancy@PAVCW2GameState@@@std@@YAPAPAVCW2GameState@@PAPAV1@@Z 0042a8e0 f i CW2StateManager.obj
 0001:000298f0       ??$_Uninitialized_move@PAPAVCW2GameState@@V?$allocator@PAVCW2GameState@@@std@@@std@@YAPAPAVCW2GameState@@QAPAV1@0PAPAV1@AAV?$allocator@PAVCW2GameState@@@0@@Z 0042a8f0 f i CW2StateManager.obj
 0001:00029a10       ??$_Voidify_iter@PAPAVCW2GameState@@@std@@YAPAXPAPAVCW2GameState@@@Z 0042aa10 f i CW2StateManager.obj
 0001:00029a20       ??$addressof@V?$_Vector_val@U?$_Simple_types@PAVCW2GameState@@@std@@@std@@@std@@YAPAV?$_Vector_val@U?$_Simple_types@PAVCW2GameState@@@std@@@0@AAV10@@Z 0042aa20 f i CW2StateManager.obj
 0001:00029a30       ??$addressof@V?$vector@PAVCW2GameState@@V?$allocator@PAVCW2GameState@@@std@@@std@@@std@@YAPAV?$vector@PAVCW2GameState@@V?$allocator@PAVCW2GameState@@@std@@@0@AAV10@@Z 0042aa30 f i CW2StateManager.obj
 0001:00029a40       ??$construct@PAVCW2GameState@@PAV1@@?$_Default_allocator_traits@V?$allocator@PAVCW2GameState@@@std@@@std@@SAXAAV?$allocator@PAVCW2GameState@@@1@QAPAVCW2GameState@@$$QAPAV3@@Z 0042aa40 f i CW2StateManager.obj
 0001:00029a90       ??$destroy@PAVCW2GameState@@@?$_Default_allocator_traits@V?$allocator@PAVCW2GameState@@@std@@@std@@SAXAAV?$allocator@PAVCW2GameState@@@1@QAPAVCW2GameState@@@Z 0042aa90 f i CW2StateManager.obj
 0001:00029aa0       ??$emplace_back@PAVCW2GameState@@@?$vector@PAVCW2GameState@@V?$allocator@PAVCW2GameState@@@std@@@std@@QAE?A_T$$QAPAVCW2GameState@@@Z 0042aaa0 f i CW2StateManager.obj
 0001:00029b20       ??$forward@PAVCW2GameState@@@std@@YA$$QAPAVCW2GameState@@AAPAV1@@Z 0042ab20 f i CW2StateManager.obj
 0001:00029b30       ??$move@AAPAPAVCW2GameState@@@std@@YA$$QAPAPAVCW2GameState@@AAPAPAV1@@Z 0042ab30 f i CW2StateManager.obj
 0001:00029b40       ??$move@AAPAVCW2GameState@@@std@@YA$$QAPAVCW2GameState@@AAPAV1@@Z 0042ab40 f i CW2StateManager.obj
 0001:00029b50       ??$swap@PAPAVCW2GameState@@$0A@@std@@YAXAAPAPAVCW2GameState@@0@Z 0042ab50 f i CW2StateManager.obj
 0001:00029ba0       ??0?$_Uninitialized_backout_al@V?$allocator@PAVCW2GameState@@@std@@@std@@QAE@PAPAVCW2GameState@@AAV?$allocator@PAVCW2GameState@@@1@@Z 0042aba0 f i CW2StateManager.obj
 0001:00029be0       ??0?$_Vector_const_iterator@V?$_Vector_val@U?$_Simple_types@PAVCW2GameState@@@std@@@std@@@std@@QAE@ABV01@@Z 0042abe0 f i CW2StateManager.obj
 0001:00029c20       ??0?$_Vector_const_iterator@V?$_Vector_val@U?$_Simple_types@PAVCW2GameState@@@std@@@std@@@std@@QAE@PAPAVCW2GameState@@PBU_Container_base12@1@@Z 0042ac20 f i CW2StateManager.obj
 0001:00029c60       ??0?$_Vector_iterator@V?$_Vector_val@U?$_Simple_types@PAVCW2GameState@@@std@@@std@@@std@@QAE@PAPAVCW2GameState@@PBU_Container_base12@1@@Z 0042ac60 f i CW2StateManager.obj
 0001:00029c90       ??0?$_Vector_val@U?$_Simple_types@PAVCW2GameState@@@std@@@std@@QAE@XZ 0042ac90 f i CW2StateManager.obj
 0001:00029ce0       ??0?$allocator@PAVCW2GameState@@@std@@QAE@XZ 0042ace0 f i CW2StateManager.obj
 0001:00029d00       ??0?$vector@PAVCW2GameState@@V?$allocator@PAVCW2GameState@@@std@@@std@@QAE@XZ 0042ad00 f i CW2StateManager.obj
 0001:00029d80       ??0GameoverState@@QAE@PAVCW2Engine@@PAVCW2StateManager@@@Z 0042ad80 f i CW2StateManager.obj
 0001:00029dc0       ??0HighscoreState@@QAE@PAVCW2Engine@@PAVCW2StateManager@@@Z 0042adc0 f i CW2StateManager.obj
 0001:00029e60       ??0MenuState@@QAE@PAVCW2Engine@@PAVCW2StateManager@@@Z 0042ae60 f i CW2StateManager.obj
 0001:00029f10       ??1?$_Uninitialized_backout_al@V?$allocator@PAVCW2GameState@@@std@@@std@@QAE@XZ 0042af10 f i CW2StateManager.obj
 0001:00029f40       ??1?$_Vector_const_iterator@V?$_Vector_val@U?$_Simple_types@PAVCW2GameState@@@std@@@std@@@std@@QAE@XZ 0042af40 f i CW2StateManager.obj
 0001:00029f60       ??1?$_Vector_iterator@V?$_Vector_val@U?$_Simple_types@PAVCW2GameState@@@std@@@std@@@std@@QAE@XZ 0042af60 f i CW2StateManager.obj
 0001:00029f80       ??1?$vector@PAVCW2GameState@@V?$allocator@PAVCW2GameState@@@std@@@std@@QAE@XZ 0042af80 f i CW2StateManager.obj
 0001:00029ff0       ??_GCW2GameState@@QAEPAXI@Z 0042aff0 f i CW2StateManager.obj
 0001:0002a030       ?_Calculate_growth@?$vector@PAVCW2GameState@@V?$allocator@PAVCW2GameState@@@std@@@std@@ABEII@Z 0042b030 f i CW2StateManager.obj
 0001:0002a0a0       ?_Change_array@?$vector@PAVCW2GameState@@V?$allocator@PAVCW2GameState@@@std@@@std@@AAEXQAPAVCW2GameState@@II@Z 0042b0a0 f i CW2StateManager.obj
 0001:0002a170       ?_Destroy@?$vector@PAVCW2GameState@@V?$allocator@PAVCW2GameState@@@std@@@std@@AAEXPAPAVCW2GameState@@0@Z 0042b170 f i CW2StateManager.obj
 0001:0002a1a0       ?_Get_first@?$_Compressed_pair@V?$allocator@PAVCW2GameState@@@std@@V?$_Vector_val@U?$_Simple_types@PAVCW2GameState@@@std@@@2@$00@std@@QAEAAV?$allocator@PAVCW2GameState@@@2@XZ 0042b1a0 f i CW2StateManager.obj
 0001:0002a1c0       ?_Get_first@?$_Compressed_pair@V?$allocator@PAVCW2GameState@@@std@@V?$_Vector_val@U?$_Simple_types@PAVCW2GameState@@@std@@@2@$00@std@@QBEABV?$allocator@PAVCW2GameState@@@2@XZ 0042b1c0 f i CW2StateManager.obj
 0001:0002a1e0       ?_Getal@?$vector@PAVCW2GameState@@V?$allocator@PAVCW2GameState@@@std@@@std@@AAEAAV?$allocator@PAVCW2GameState@@@2@XZ 0042b1e0 f i CW2StateManager.obj
 0001:0002a200       ?_Getal@?$vector@PAVCW2GameState@@V?$allocator@PAVCW2GameState@@@std@@@std@@ABEABV?$allocator@PAVCW2GameState@@@2@XZ 0042b200 f i CW2StateManager.obj
 0001:0002a220       ?_Orphan_range@?$vector@PAVCW2GameState@@V?$allocator@PAVCW2GameState@@@std@@@std@@ABEXPAPAVCW2GameState@@0@Z 0042b220 f i CW2StateManager.obj
 0001:0002a250       ?_Orphan_range_locked@?$vector@PAVCW2GameState@@V?$allocator@PAVCW2GameState@@@std@@@std@@ABEXPAPAVCW2GameState@@0@Z 0042b250 f i CW2StateManager.obj
 0001:0002a2e0       ?_Orphan_range_unlocked@?$vector@PAVCW2GameState@@V?$allocator@PAVCW2GameState@@@std@@@std@@ABEXPAPAVCW2GameState@@0@Z 0042b2e0 f i CW2StateManager.obj
 0001:0002a370       ?_Release@?$_Uninitialized_backout_al@V?$allocator@PAVCW2GameState@@@std@@@std@@QAEPAPAVCW2GameState@@XZ 0042b370 f i CW2StateManager.obj
 0001:0002a3a0       ?_Swap_val@?$_Vector_val@U?$_Simple_types@PAVCW2GameState@@@std@@@std@@QAEXAAV12@@Z 0042b3a0 f i CW2StateManager.obj
 0001:0002a420       ?_Tidy@?$vector@PAVCW2GameState@@V?$allocator@PAVCW2GameState@@@std@@@std@@AAEXXZ 0042b420 f i CW2StateManager.obj
 0001:0002a510       ?_Umove@?$vector@PAVCW2GameState@@V?$allocator@PAVCW2GameState@@@std@@@std@@AAEPAPAVCW2GameState@@PAPAV3@00@Z 0042b510 f i CW2StateManager.obj
 0001:0002a550       ?_Umove_if_noexcept1@?$vector@PAVCW2GameState@@V?$allocator@PAVCW2GameState@@@std@@@std@@AAEXPAPAVCW2GameState@@00U?$integral_constant@_N$00@2@@Z 0042b550 f i CW2StateManager.obj
 0001:0002a590       ?_Umove_if_noexcept@?$vector@PAVCW2GameState@@V?$allocator@PAVCW2GameState@@@std@@@std@@AAEXPAPAVCW2GameState@@00@Z 0042b590 f i CW2StateManager.obj
 0001:0002a5d0       ?_Xlength@?$vector@PAVCW2GameState@@V?$allocator@PAVCW2GameState@@@std@@@std@@CAXXZ 0042b5d0 f i CW2StateManager.obj
 0001:0002a5f0       ?allocate@?$allocator@PAVCW2GameState@@@std@@QAEPAPAVCW2GameState@@I@Z 0042b5f0 f i CW2StateManager.obj
 0001:0002a620       ?begin@?$vector@PAVCW2GameState@@V?$allocator@PAVCW2GameState@@@std@@@std@@QAE?AV?$_Vector_iterator@V?$_Vector_val@U?$_Simple_types@PAVCW2GameState@@@std@@@std@@@2@XZ 0042b620 f i CW2StateManager.obj
 0001:0002a670       ?capacity@?$vector@PAVCW2GameState@@V?$allocator@PAVCW2GameState@@@std@@@std@@QBEIXZ 0042b670 f i CW2StateManager.obj
 0001:0002a6a0       ?deallocate@?$allocator@PAVCW2GameState@@@std@@QAEXQAPAVCW2GameState@@I@Z 0042b6a0 f i CW2StateManager.obj
 0001:0002a6d0       ?erase@?$vector@PAVCW2GameState@@V?$allocator@PAVCW2GameState@@@std@@@std@@QAE?AV?$_Vector_iterator@V?$_Vector_val@U?$_Simple_types@PAVCW2GameState@@@std@@@std@@@2@V?$_Vector_const_iterator@V?$_Vector_val@U?$_Simple_types@PAVCW2GameState@@@std@@@std@@@2@@Z 0042b6d0 f i CW2StateManager.obj
 0001:0002a880       ?max_size@?$_Default_allocator_traits@V?$allocator@PAVCW2GameState@@@std@@@std@@SAIABV?$allocator@PAVCW2GameState@@@2@@Z 0042b880 f i CW2StateManager.obj
 0001:0002a890       ?max_size@?$vector@PAVCW2GameState@@V?$allocator@PAVCW2GameState@@@std@@@std@@QBEIXZ 0042b890 f i CW2StateManager.obj
 0001:0002a8e0       ?push_back@?$vector@PAVCW2GameState@@V?$allocator@PAVCW2GameState@@@std@@@std@@QAEX$$QAPAVCW2GameState@@@Z 0042b8e0 f i CW2StateManager.obj
 0001:0002a910       ?size@?$vector@PAVCW2GameState@@V?$allocator@PAVCW2GameState@@@std@@@std@@QBEIXZ 0042b910 f i CW2StateManager.obj
 0001:0002a940       ?swap@?$vector@PAVCW2GameState@@V?$allocator@PAVCW2GameState@@@std@@@std@@QAEXAAV12@@Z 0042b940 f i CW2StateManager.obj
 0001:0002a9a0       ??0CW2TileManager@@QAE@HHHH@Z 0042b9a0 f   CW2TileManager.obj
 0001:0002abd0       ??1CW2TileManager@@UAE@XZ  0042bbd0 f   CW2TileManager.obj
 0001:0002ad10       ?LoadData@CW2TileManager@@QAEXV?$basic_string@DU?$char_traits@D@std@@V?$allocator@D@2@@std@@AAV?$vector@V?$vector@HV?$allocator@H@std@@@std@@V?$allocator@V?$vector@HV?$allocator@H@std@@@std@@@2@@3@@Z 0042bd10 f   CW2TileManager.obj
 0001:0002af30       ?drawLayer@CW2TileManager@@QAEXPAVBaseEngine@@PAVDrawingSurface@@AAV?$vector@V?$vector@HV?$allocator@H@std@@@std@@V?$allocator@V?$vector@HV?$allocator@H@std@@@std@@@2@@std@@H@Z 0042bf30 f   CW2TileManager.obj
 0001:0002b1e0       ?drawMap@CW2TileManager@@QAEXPAVBaseEngine@@PAVDrawingSurface@@@Z 0042c1e0 f   CW2TileManager.obj
 0001:0002b260       ?canStand@CW2TileManager@@QAE_NHH@Z 0042c260 f   CW2TileManager.obj
 0001:0002b410       ?getLayerValue@CW2TileManager@@QAE?AV?$vector@V?$vector@HV?$allocator@H@std@@@std@@V?$allocator@V?$vector@HV?$allocator@H@std@@@std@@@2@@std@@HH@Z 0042c410 f   CW2TileManager.obj
 0001:0002b780       ??$?0$$V@?$_Compressed_pair@U?$default_delete@VCW2ImagePixelMapping@@@std@@PAVCW2ImagePixelMapping@@$00@std@@QAE@U_Zero_then_variadic_args_t@1@@Z 0042c780 f i CW2TileManager.obj
 0001:0002b7a0       ??$?0$$V@?$_Compressed_pair@V?$allocator@H@std@@V?$_Vector_val@U?$_Simple_types@H@std@@@2@$00@std@@QAE@U_Zero_then_variadic_args_t@1@@Z 0042c7a0 f i CW2TileManager.obj
 0001:0002b7d0       ??$?0$$V@?$_Compressed_pair@V?$allocator@V?$vector@HV?$allocator@H@std@@@std@@@std@@V?$_Vector_val@U?$_Simple_types@V?$vector@HV?$allocator@H@std@@@std@@@std@@@2@$00@std@@QAE@U_Zero_then_variadic_args_t@1@@Z 0042c7d0 f i CW2TileManager.obj
 0001:0002b800       ??$?0AAPAVCW2ImagePixelMapping@@@?$_Compressed_pair@U?$default_delete@VCW2ImagePixelMapping@@@std@@PAVCW2ImagePixelMapping@@$00@std@@QAE@U_Zero_then_variadic_args_t@1@AAPAVCW2ImagePixelMapping@@@Z 0042c800 f i CW2TileManager.obj
 0001:0002b830       ??$?0H@?$allocator@U_Container_proxy@std@@@std@@QAE@ABV?$allocator@H@1@@Z 0042c830 f i CW2TileManager.obj
 0001:0002b850       ??$?0U?$default_delete@VCW2ImagePixelMapping@@@std@@$0A@@?$unique_ptr@VCW2ImagePixelMapping@@U?$default_delete@VCW2ImagePixelMapping@@@std@@@std@@QAE@$$QAV01@@Z 0042c850 f i CW2TileManager.obj
 0001:0002b8a0       ??$?0U?$default_delete@VCW2ImagePixelMapping@@@std@@$0A@@?$unique_ptr@VCW2ImagePixelMapping@@U?$default_delete@VCW2ImagePixelMapping@@@std@@@std@@QAE@PAVCW2ImagePixelMapping@@@Z 0042c8a0 f i CW2TileManager.obj
 0001:0002b8d0       ??$?0U?$default_delete@VCW2ImagePixelMapping@@@std@@$0A@@?$unique_ptr@VCW2ImagePixelMapping@@U?$default_delete@VCW2ImagePixelMapping@@@std@@@std@@QAE@XZ 0042c8d0 f i CW2TileManager.obj
 0001:0002b900       ??$?0U?$default_delete@VCW2ImagePixelMapping@@@std@@PAVCW2ImagePixelMapping@@@?$_Compressed_pair@U?$default_delete@VCW2ImagePixelMapping@@@std@@PAVCW2ImagePixelMapping@@$00@std@@QAE@U_One_then_variadic_args_t@1@$$QAU?$default_delete@VCW2ImagePixelMapping@@@1@$$QAPAVCW2ImagePixelMapping@@@Z 0042c900 f i CW2TileManager.obj
 0001:0002b940       ??$?0V?$allocator@H@std@@$$V@?$_Compressed_pair@V?$allocator@H@std@@V?$_Vector_val@U?$_Simple_types@H@std@@@2@$00@std@@QAE@U_One_then_variadic_args_t@1@$$QAV?$allocator@H@1@@Z 0042c940 f i CW2TileManager.obj
 0001:0002b970       ??$?0V?$allocator@H@std@@PAHPAHPAH@?$_Compressed_pair@V?$allocator@H@std@@V?$_Vector_val@U?$_Simple_types@H@std@@@2@$00@std@@QAE@U_One_then_variadic_args_t@1@$$QAV?$allocator@H@1@$$QAPAH22@Z 0042c970 f i CW2TileManager.obj
 0001:0002b9e0       ??$?0V?$allocator@V?$vector@HV?$allocator@H@std@@@std@@@std@@$$V@?$_Compressed_pair@V?$allocator@V?$vector@HV?$allocator@H@std@@@std@@@std@@V?$_Vector_val@U?$_Simple_types@V?$vector@HV?$allocator@H@std@@@std@@@std@@@2@$00@std@@QAE@U_One_then_variadic_args_t@1@$$QAV?$allocator@V?$vector@HV?$allocator@H@std@@@std@@@1@@Z 0042c9e0 f i CW2TileManager.obj
 0001:0002ba10       ??$?0V?$vector@HV?$allocator@H@std@@@std@@@?$allocator@U_Container_proxy@std@@@std@@QAE@ABV?$allocator@V?$vector@HV?$allocator@H@std@@@std@@@1@@Z 0042ca10 f i CW2TileManager.obj
 0001:0002ba30       ??$?4U?$default_delete@VCW2ImagePixelMapping@@@std@@$0A@@?$unique_ptr@VCW2ImagePixelMapping@@U?$default_delete@VCW2ImagePixelMapping@@@std@@@std@@QAEAAV01@$$QAV01@@Z 0042ca30 f i CW2TileManager.obj
 0001:0002ba90       ??$?8V?$vector@HV?$allocator@H@std@@@std@@V01@@std@@YA_NABV?$allocator@V?$vector@HV?$allocator@H@std@@@std@@@0@0@Z 0042ca90 f i CW2TileManager.obj
 0001:0002baa0       ??$_Adl_verify_range@V?$_Vector_iterator@V?$_Vector_val@U?$_Simple_types@H@std@@@std@@@std@@V12@@std@@YAXABV?$_Vector_iterator@V?$_Vector_val@U?$_Simple_types@H@std@@@std@@@0@0@Z 0042caa0 f i CW2TileManager.obj
 0001:0002bac0       ??$_Copy_memmove@PAHPAH@std@@YAPAHPAH00@Z 0042cac0 f i CW2TileManager.obj
 0001:0002bb50       ??$_Destroy_range@V?$allocator@H@std@@@std@@YAXPAHQAHAAV?$allocator@H@0@@Z 0042cb50 f i CW2TileManager.obj
 0001:0002bb60       ??$_Destroy_range@V?$allocator@V?$vector@HV?$allocator@H@std@@@std@@@std@@@std@@YAXPAV?$vector@HV?$allocator@H@std@@@0@QAV10@AAV?$allocator@V?$vector@HV?$allocator@H@std@@@std@@@0@@Z 0042cb60 f i CW2TileManager.obj
 0001:0002bbe0       ??$_Emplace_back@AAH@?$_Uninitialized_backout_al@V?$allocator@H@std@@@std@@QAEXAAH@Z 0042cbe0 f i CW2TileManager.obj
 0001:0002bc40       ??$_Emplace_back@AAV?$vector@HV?$allocator@H@std@@@std@@@?$_Uninitialized_backout_al@V?$allocator@V?$vector@HV?$allocator@H@std@@@std@@@std@@@std@@QAEXAAV?$vector@HV?$allocator@H@std@@@1@@Z 0042cc40 f i CW2TileManager.obj
 0001:0002bca0       ??$_Emplace_back@H@?$_Uninitialized_backout_al@V?$allocator@H@std@@@std@@QAEX$$QAH@Z 0042cca0 f i CW2TileManager.obj
 0001:0002bd00       ??$_Emplace_back@V?$vector@HV?$allocator@H@std@@@std@@@?$_Uninitialized_backout_al@V?$allocator@V?$vector@HV?$allocator@H@std@@@std@@@std@@@std@@QAEX$$QAV?$vector@HV?$allocator@H@std@@@1@@Z 0042cd00 f i CW2TileManager.obj
 0001:0002bd60       ??$_Emplace_back_with_unused_capacity@ABV?$vector@HV?$allocator@H@std@@@std@@@?$vector@V?$vector@HV?$allocator@H@std@@@std@@V?$allocator@V?$vector@HV?$allocator@H@std@@@std@@@2@@std@@AAE?A_TABV?$vector@HV?$allocator@H@std@@@1@@Z 0042cd60 f i CW2TileManager.obj
 0001:0002be00       ??$_Emplace_back_with_unused_capacity@H@?$vector@HV?$allocator@H@std@@@std@@AAE?A_T$$QAH@Z 0042ce00 f i CW2TileManager.obj
 0001:0002bea0       ??$_Emplace_reallocate@ABV?$vector@HV?$allocator@H@std@@@std@@@?$vector@V?$vector@HV?$allocator@H@std@@@std@@V?$allocator@V?$vector@HV?$allocator@H@std@@@std@@@2@@std@@QAEPAV?$vector@HV?$allocator@H@std@@@1@QAV21@ABV21@@Z 0042cea0 f i CW2TileManager.obj
 0001:0002c0f0       ??$_Emplace_reallocate@H@?$vector@HV?$allocator@H@std@@@std@@QAEPAHQAH$$QAH@Z 0042d0f0 f i CW2TileManager.obj
 0001:0002c340       ??$_Find_unchecked1@PAHH@std@@YAPAHPAHQAHABHU?$integral_constant@_N$0A@@0@@Z 0042d340 f i CW2TileManager.obj
 0001:0002c380       ??$_Find_unchecked@PAHH@std@@YAPAHQAH0ABH@Z 0042d380 f i CW2TileManager.obj
 0001:0002c3b0       ??$_Get_size_of_n@$0BA@@std@@YAII@Z 0042d3b0 f i CW2TileManager.obj
 0001:0002c3f0       ??$_Get_unwrapped@AAV?$_Vector_iterator@V?$_Vector_val@U?$_Simple_types@H@std@@@std@@@std@@@std@@YA?A_TAAV?$_Vector_iterator@V?$_Vector_val@U?$_Simple_types@H@std@@@std@@@0@@Z 0042d3f0 f i CW2TileManager.obj
 0001:0002c400       ??$_Get_unwrapped@ABQAH@std@@YA?A_TABQAH@Z 0042d400 f i CW2TileManager.obj
 0001:0002c410       ??$_Get_unwrapped@ABQAV?$vector@HV?$allocator@H@std@@@std@@@std@@YA?A_TABQAV?$vector@HV?$allocator@H@std@@@0@@Z 0042d410 f i CW2TileManager.obj
 0001:0002c420       ??$_Get_unwrapped@ABV?$_Vector_iterator@V?$_Vector_val@U?$_Simple_types@H@std@@@std@@@std@@@std@@YA?A_TABV?$_Vector_iterator@V?$_Vector_val@U?$_Simple_types@H@std@@@std@@@0@@Z 0042d420 f i CW2TileManager.obj
 0001:0002c430       ??$_Pocs@V?$allocator@V?$vector@HV?$allocator@H@std@@@std@@@std@@@std@@YAXAAV?$allocator@V?$vector@HV?$allocator@H@std@@@std@@@0@0@Z 0042d430 f i CW2TileManager.obj
 0001:0002c4c0       ??$_Refancy@PAH$0A@@std@@YAPAHPAH@Z 0042d4c0 f i CW2TileManager.obj
 0001:0002c4d0       ??$_Seek_wrapped@V?$_Vector_iterator@V?$_Vector_val@U?$_Simple_types@H@std@@@std@@@std@@PAH@std@@YAXAAV?$_Vector_iterator@V?$_Vector_val@U?$_Simple_types@H@std@@@std@@@0@$$QAPAH@Z 0042d4d0 f i CW2TileManager.obj
 0001:0002c500       ??$_Swap_adl@PAV?$vector@HV?$allocator@H@std@@@std@@@std@@YAXAAPAV?$vector@HV?$allocator@H@std@@@0@0@Z 0042d500 f i CW2TileManager.obj
 0001:0002c520       ??$_To_address@PAH@std@@YA?A_PABQAH@Z 0042d520 f i CW2TileManager.obj
 0001:0002c530       ??$_Ucopy@PAH@?$vector@HV?$allocator@H@std@@@std@@AAEPAHPAH00@Z 0042d530 f i CW2TileManager.obj
 0001:0002c570       ??$_Ucopy@PAV?$vector@HV?$allocator@H@std@@@std@@@?$vector@V?$vector@HV?$allocator@H@std@@@std@@V?$allocator@V?$vector@HV?$allocator@H@std@@@std@@@2@@std@@AAEPAV?$vector@HV?$allocator@H@std@@@1@PAV21@00@Z 0042d570 f i CW2TileManager.obj
 0001:0002c5b0       ??$_Unfancy@H@std@@YAPAHPAH@Z 0042d5b0 f i CW2TileManager.obj
 0001:0002c5c0       ??$_Unfancy@V?$vector@HV?$allocator@H@std@@@std@@@std@@YAPAV?$vector@HV?$allocator@H@std@@@0@PAV10@@Z 0042d5c0 f i CW2TileManager.obj
 0001:0002c5d0       ??$_Uninitialized_copy@PAHV?$allocator@H@std@@@std@@YAPAHQAH0PAHAAV?$allocator@H@0@@Z 0042d5d0 f i CW2TileManager.obj
 0001:0002c6f0       ??$_Uninitialized_copy@PAV?$vector@HV?$allocator@H@std@@@std@@V?$allocator@V?$vector@HV?$allocator@H@std@@@std@@@2@@std@@YAPAV?$vector@HV?$allocator@H@std@@@0@QAV10@0PAV10@AAV?$allocator@V?$vector@HV?$allocator@H@std@@@std@@@0@@Z 0042d6f0 f i CW2TileManager.obj
 0001:0002c7c0       ??$_Uninitialized_move@PAHV?$allocator@H@std@@@std@@YAPAHQAH0PAHAAV?$allocator@H@0@@Z 0042d7c0 f i CW2TileManager.obj
 0001:0002c8e0       ??$_Uninitialized_move@PAV?$vector@HV?$allocator@H@std@@@std@@V?$allocator@V?$vector@HV?$allocator@H@std@@@std@@@2@@std@@YAPAV?$vector@HV?$allocator@H@std@@@0@QAV10@0PAV10@AAV?$allocator@V?$vector@HV?$allocator@H@std@@@std@@@0@@Z 0042d8e0 f i CW2TileManager.obj
 0001:0002c9c0       ??$_Voidify_iter@PAH@std@@YAPAXPAH@Z 0042d9c0 f i CW2TileManager.obj
 0001:0002c9d0       ??$_Voidify_iter@PAV?$vector@HV?$allocator@H@std@@@std@@@std@@YAPAXPAV?$vector@HV?$allocator@H@std@@@0@@Z 0042d9d0 f i CW2TileManager.obj
 0001:0002c9e0       ??$addressof@V?$_Vector_val@U?$_Simple_types@H@std@@@std@@@std@@YAPAV?$_Vector_val@U?$_Simple_types@H@std@@@0@AAV10@@Z 0042d9e0 f i CW2TileManager.obj
 0001:0002c9f0       ??$addressof@V?$unique_ptr@VCW2ImagePixelMapping@@U?$default_delete@VCW2ImagePixelMapping@@@std@@@std@@@std@@YAPAV?$unique_ptr@VCW2ImagePixelMapping@@U?$default_delete@VCW2ImagePixelMapping@@@std@@@0@AAV10@@Z 0042d9f0 f i CW2TileManager.obj
 0001:0002ca00       ??$addressof@V?$vector@V?$vector@HV?$allocator@H@std@@@std@@V?$allocator@V?$vector@HV?$allocator@H@std@@@std@@@2@@std@@@std@@YAPAV?$vector@V?$vector@HV?$allocator@H@std@@@std@@V?$allocator@V?$vector@HV?$allocator@H@std@@@std@@@2@@0@AAV10@@Z 0042da00 f i CW2TileManager.obj
 0001:0002ca10       ??$construct@HAAH@?$_Default_allocator_traits@V?$allocator@H@std@@@std@@SAXAAV?$allocator@H@1@QAHAAH@Z 0042da10 f i CW2TileManager.obj
 0001:0002ca60       ??$construct@HH@?$_Default_allocator_traits@V?$allocator@H@std@@@std@@SAXAAV?$allocator@H@1@QAH$$QAH@Z 0042da60 f i CW2TileManager.obj
 0001:0002cab0       ??$construct@V?$vector@HV?$allocator@H@std@@@std@@AAV12@@?$_Default_allocator_traits@V?$allocator@V?$vector@HV?$allocator@H@std@@@std@@@std@@@std@@SAXAAV?$allocator@V?$vector@HV?$allocator@H@std@@@std@@@1@QAV?$vector@HV?$allocator@H@std@@@1@AAV31@@Z 0042dab0 f i CW2TileManager.obj
 0001:0002cb00       ??$construct@V?$vector@HV?$allocator@H@std@@@std@@ABV12@@?$_Default_allocator_traits@V?$allocator@V?$vector@HV?$allocator@H@std@@@std@@@std@@@std@@SAXAAV?$allocator@V?$vector@HV?$allocator@H@std@@@std@@@1@QAV?$vector@HV?$allocator@H@std@@@1@ABV31@@Z 0042db00 f i CW2TileManager.obj
 0001:0002cb50       ??$construct@V?$vector@HV?$allocator@H@std@@@std@@V12@@?$_Default_allocator_traits@V?$allocator@V?$vector@HV?$allocator@H@std@@@std@@@std@@@std@@SAXAAV?$allocator@V?$vector@HV?$allocator@H@std@@@std@@@1@QAV?$vector@HV?$allocator@H@std@@@1@$$QAV31@@Z 0042db50 f i CW2TileManager.obj
 0001:0002cba0       ??$destroy@V?$vector@HV?$allocator@H@std@@@std@@@?$_Default_allocator_traits@V?$allocator@V?$vector@HV?$allocator@H@std@@@std@@@std@@@std@@SAXAAV?$allocator@V?$vector@HV?$allocator@H@std@@@std@@@1@QAV?$vector@HV?$allocator@H@std@@@1@@Z 0042dba0 f i CW2TileManager.obj
 0001:0002cbc0       ??$distance@V?$_Vector_iterator@V?$_Vector_val@U?$_Simple_types@H@std@@@std@@@std@@@std@@YAHV?$_Vector_iterator@V?$_Vector_val@U?$_Simple_types@H@std@@@std@@@0@0@Z 0042dbc0 f i CW2TileManager.obj
 0001:0002cc10       ??$emplace_back@ABV?$vector@HV?$allocator@H@std@@@std@@@?$vector@V?$vector@HV?$allocator@H@std@@@std@@V?$allocator@V?$vector@HV?$allocator@H@std@@@std@@@2@@std@@QAE?A_TABV?$vector@HV?$allocator@H@std@@@1@@Z 0042dc10 f i CW2TileManager.obj
 0001:0002cc90       ??$emplace_back@H@?$vector@HV?$allocator@H@std@@@std@@QAE?A_T$$QAH@Z 0042dc90 f i CW2TileManager.obj
 0001:0002cd10       ??$exchange@PAH$$T@std@@YAPAHAAPAH$$QA$$T@Z 0042dd10 f i CW2TileManager.obj
 0001:0002cd40       ??$exchange@PAVCW2ImagePixelMapping@@$$T@std@@YAPAVCW2ImagePixelMapping@@AAPAV1@$$QA$$T@Z 0042dd40 f i CW2TileManager.obj
 0001:0002cd70       ??$exchange@PAVCW2ImagePixelMapping@@AAPAV1@@std@@YAPAVCW2ImagePixelMapping@@AAPAV1@0@Z 0042dd70 f i CW2TileManager.obj
 0001:0002cda0       ??$find@V?$_Vector_iterator@V?$_Vector_val@U?$_Simple_types@H@std@@@std@@@std@@H@std@@YA?AV?$_Vector_iterator@V?$_Vector_val@U?$_Simple_types@H@std@@@std@@@0@V10@V10@ABH@Z 0042dda0 f i CW2TileManager.obj
 0001:0002ce90       ??$forward@AAH@std@@YAAAHAAH@Z 0042de90 f i CW2TileManager.obj
 0001:0002cea0       ??$forward@AAPAVCW2ImagePixelMapping@@@std@@YAAAPAVCW2ImagePixelMapping@@AAPAV1@@Z 0042dea0 f i CW2TileManager.obj
 0001:0002ceb0       ??$forward@AAV?$vector@HV?$allocator@H@std@@@std@@@std@@YAAAV?$vector@HV?$allocator@H@std@@@0@AAV10@@Z 0042deb0 f i CW2TileManager.obj
 0001:0002cec0       ??$forward@ABV?$vector@HV?$allocator@H@std@@@std@@@std@@YAABV?$vector@HV?$allocator@H@std@@@0@ABV10@@Z 0042dec0 f i CW2TileManager.obj
 0001:0002ced0       ??$forward@PAH@std@@YA$$QAPAHAAPAH@Z 0042ded0 f i CW2TileManager.obj
 0001:0002cee0       ??$forward@PAVCW2ImagePixelMapping@@@std@@YA$$QAPAVCW2ImagePixelMapping@@AAPAV1@@Z 0042dee0 f i CW2TileManager.obj
 0001:0002cef0       ??$forward@U?$default_delete@VCW2ImagePixelMapping@@@std@@@std@@YA$$QAU?$default_delete@VCW2ImagePixelMapping@@@0@AAU10@@Z 0042def0 f i CW2TileManager.obj
 0001:0002cf00       ??$forward@V?$allocator@H@std@@@std@@YA$$QAV?$allocator@H@0@AAV10@@Z 0042df00 f i CW2TileManager.obj
 0001:0002cf10       ??$forward@V?$allocator@V?$vector@HV?$allocator@H@std@@@std@@@std@@@std@@YA$$QAV?$allocator@V?$vector@HV?$allocator@H@std@@@std@@@0@AAV10@@Z 0042df10 f i CW2TileManager.obj
 0001:0002cf20       ??$forward@V?$vector@HV?$allocator@H@std@@@std@@@std@@YA$$QAV?$vector@HV?$allocator@H@std@@@0@AAV10@@Z 0042df20 f i CW2TileManager.obj
 0001:0002cf30       ??$make_unique@VCW2ImagePixelMapping@@V?$shared_ptr@VRawImageData@@@std@@$0A@@std@@YA?AV?$unique_ptr@VCW2ImagePixelMapping@@U?$default_delete@VCW2ImagePixelMapping@@@std@@@0@$$QAV?$shared_ptr@VRawImageData@@@0@@Z 0042df30 f i CW2TileManager.obj
 0001:0002d030       ??$move@AAH@std@@YA$$QAHAAH@Z 0042e030 f i CW2TileManager.obj
 0001:0002d040       ??$move@AAPAV?$vector@HV?$allocator@H@std@@@std@@@std@@YA$$QAPAV?$vector@HV?$allocator@H@std@@@0@AAPAV10@@Z 0042e040 f i CW2TileManager.obj
 0001:0002d050       ??$move@AAV?$allocator@H@std@@@std@@YA$$QAV?$allocator@H@0@AAV10@@Z 0042e050 f i CW2TileManager.obj
 0001:0002d060       ??$move@AAV?$vector@HV?$allocator@H@std@@@std@@@std@@YA$$QAV?$vector@HV?$allocator@H@std@@@0@AAV10@@Z 0042e060 f i CW2TileManager.obj
 0001:0002d070       ??$swap@PAV?$vector@HV?$allocator@H@std@@@std@@$0A@@std@@YAXAAPAV?$vector@HV?$allocator@H@std@@@0@0@Z 0042e070 f i CW2TileManager.obj
 0001:0002d0c0       ??0?$_Uninitialized_backout_al@V?$allocator@H@std@@@std@@QAE@PAHAAV?$allocator@H@1@@Z 0042e0c0 f i CW2TileManager.obj
 0001:0002d100       ??0?$_Uninitialized_backout_al@V?$allocator@V?$vector@HV?$allocator@H@std@@@std@@@std@@@std@@QAE@PAV?$vector@HV?$allocator@H@std@@@1@AAV?$allocator@V?$vector@HV?$allocator@H@std@@@std@@@1@@Z 0042e100 f i CW2TileManager.obj
 0001:0002d140       ??0?$_Vector_const_iterator@V?$_Vector_val@U?$_Simple_types@H@std@@@std@@@std@@QAE@ABV01@@Z 0042e140 f i CW2TileManager.obj
 0001:0002d180       ??0?$_Vector_const_iterator@V?$_Vector_val@U?$_Simple_types@H@std@@@std@@@std@@QAE@PAHPBU_Container_base12@1@@Z 0042e180 f i CW2TileManager.obj
 0001:0002d1c0       ??0?$_Vector_iterator@V?$_Vector_val@U?$_Simple_types@H@std@@@std@@@std@@QAE@ABV01@@Z 0042e1c0 f i CW2TileManager.obj
 0001:0002d1f0       ??0?$_Vector_iterator@V?$_Vector_val@U?$_Simple_types@H@std@@@std@@@std@@QAE@PAHPBU_Container_base12@1@@Z 0042e1f0 f i CW2TileManager.obj
 0001:0002d220       ??0?$_Vector_val@U?$_Simple_types@H@std@@@std@@QAE@PAH00@Z 0042e220 f i CW2TileManager.obj
 0001:0002d260       ??0?$_Vector_val@U?$_Simple_types@H@std@@@std@@QAE@XZ 0042e260 f i CW2TileManager.obj
 0001:0002d2b0       ??0?$_Vector_val@U?$_Simple_types@V?$vector@HV?$allocator@H@std@@@std@@@std@@@std@@QAE@XZ 0042e2b0 f i CW2TileManager.obj
 0001:0002d300       ??0?$allocator@H@std@@QAE@XZ 0042e300 f i CW2TileManager.obj
 0001:0002d320       ??0?$allocator@V?$vector@HV?$allocator@H@std@@@std@@@std@@QAE@XZ 0042e320 f i CW2TileManager.obj
 0001:0002d340       ??0?$vector@HV?$allocator@H@std@@@std@@QAE@$$QAV01@@Z 0042e340 f i CW2TileManager.obj
 0001:0002d470       ??0?$vector@HV?$allocator@H@std@@@std@@QAE@ABV01@@Z 0042e470 f i CW2TileManager.obj
 0001:0002d5d0       ??0?$vector@HV?$allocator@H@std@@@std@@QAE@XZ 0042e5d0 f i CW2TileManager.obj
 0001:0002d650       ??0?$vector@V?$vector@HV?$allocator@H@std@@@std@@V?$allocator@V?$vector@HV?$allocator@H@std@@@std@@@2@@std@@QAE@ABV01@@Z 0042e650 f i CW2TileManager.obj
 0001:0002d7b0       ??0?$vector@V?$vector@HV?$allocator@H@std@@@std@@V?$allocator@V?$vector@HV?$allocator@H@std@@@std@@@2@@std@@QAE@XZ 0042e7b0 f i CW2TileManager.obj
 0001:0002d830       ??0TileManager@@QAE@HHHH@Z 0042e830 f i CW2TileManager.obj
 0001:0002d8c0       ??1?$_Tidy_guard@V?$vector@HV?$allocator@H@std@@@std@@@std@@QAE@XZ 0042e8c0 f i CW2TileManager.obj
 0001:0002d8f0       ??1?$_Tidy_guard@V?$vector@V?$vector@HV?$allocator@H@std@@@std@@V?$allocator@V?$vector@HV?$allocator@H@std@@@std@@@2@@std@@@std@@QAE@XZ 0042e8f0 f i CW2TileManager.obj
 0001:0002d920       ??1?$_Uninitialized_backout_al@V?$allocator@H@std@@@std@@QAE@XZ 0042e920 f i CW2TileManager.obj
 0001:0002d950       ??1?$_Uninitialized_backout_al@V?$allocator@V?$vector@HV?$allocator@H@std@@@std@@@std@@@std@@QAE@XZ 0042e950 f i CW2TileManager.obj
 0001:0002d980       ??1?$_Vector_const_iterator@V?$_Vector_val@U?$_Simple_types@H@std@@@std@@@std@@QAE@XZ 0042e980 f i CW2TileManager.obj
 0001:0002d9a0       ??1?$_Vector_iterator@V?$_Vector_val@U?$_Simple_types@H@std@@@std@@@std@@QAE@XZ 0042e9a0 f i CW2TileManager.obj
 0001:0002d9c0       ??1?$unique_ptr@VCW2ImagePixelMapping@@U?$default_delete@VCW2ImagePixelMapping@@@std@@@std@@QAE@XZ 0042e9c0 f i CW2TileManager.obj
 0001:0002da00       ??1?$vector@HV?$allocator@H@std@@@std@@QAE@XZ 0042ea00 f i CW2TileManager.obj
 0001:0002da70       ??1?$vector@V?$vector@HV?$allocator@H@std@@@std@@V?$allocator@V?$vector@HV?$allocator@H@std@@@std@@@2@@std@@QAE@XZ 0042ea70 f i CW2TileManager.obj
 0001:0002dae0       ??1TileManager@@UAE@XZ     0042eae0 f i CW2TileManager.obj
 0001:0002db30       ??8?$_Vector_const_iterator@V?$_Vector_val@U?$_Simple_types@H@std@@@std@@@std@@QBE_NABV01@@Z 0042eb30 f i CW2TileManager.obj
 0001:0002db80       ??9?$_Vector_const_iterator@V?$_Vector_val@U?$_Simple_types@H@std@@@std@@@std@@QBE_NABV01@@Z 0042eb80 f i CW2TileManager.obj
 0001:0002dbd0       ??A?$vector@HV?$allocator@H@std@@@std@@QAEAAHI@Z 0042ebd0 f i CW2TileManager.obj
 0001:0002dc80       ??A?$vector@V?$vector@HV?$allocator@H@std@@@std@@V?$allocator@V?$vector@HV?$allocator@H@std@@@std@@@2@@std@@QAEAAV?$vector@HV?$allocator@H@std@@@1@I@Z 0042ec80 f i CW2TileManager.obj
 0001:0002dd30       ??C?$unique_ptr@VCW2ImagePixelMapping@@U?$default_delete@VCW2ImagePixelMapping@@@std@@@std@@QBEPAVCW2ImagePixelMapping@@XZ 0042ed30 f i CW2TileManager.obj
 0001:0002dd50       ??G?$_Vector_const_iterator@V?$_Vector_val@U?$_Simple_types@H@std@@@std@@@std@@QBEHABV01@@Z 0042ed50 f i CW2TileManager.obj
 0001:0002dd90       ??R?$default_delete@VCW2ImagePixelMapping@@@std@@QBEXPAVCW2ImagePixelMapping@@@Z 0042ed90 f i CW2TileManager.obj
 0001:0002ddd0       ??_G?$vector@HV?$allocator@H@std@@@std@@QAEPAXI@Z 0042edd0 f i CW2TileManager.obj
 0001:0002de10       ??_GCW2TileManager@@UAEPAXI@Z 0042ee10 f i CW2TileManager.obj
 0001:0002de10       ??_ECW2TileManager@@UAEPAXI@Z 0042ee10 f i CW2TileManager.obj
 0001:0002de50       ??_ETileManager@@UAEPAXI@Z 0042ee50 f i CW2TileManager.obj
 0001:0002de50       ??_GTileManager@@UAEPAXI@Z 0042ee50 f i CW2TileManager.obj
 0001:0002de90       ?_Buy_raw@?$vector@HV?$allocator@H@std@@@std@@AAEXI@Z 0042ee90 f i CW2TileManager.obj
 0001:0002df10       ?_Buy_raw@?$vector@V?$vector@HV?$allocator@H@std@@@std@@V?$allocator@V?$vector@HV?$allocator@H@std@@@std@@@2@@std@@AAEXI@Z 0042ef10 f i CW2TileManager.obj
 0001:0002df90       ?_Calculate_growth@?$vector@HV?$allocator@H@std@@@std@@ABEII@Z 0042ef90 f i CW2TileManager.obj
 0001:0002e000       ?_Calculate_growth@?$vector@V?$vector@HV?$allocator@H@std@@@std@@V?$allocator@V?$vector@HV?$allocator@H@std@@@std@@@2@@std@@ABEII@Z 0042f000 f i CW2TileManager.obj
 0001:0002e070       ?_Change_array@?$vector@HV?$allocator@H@std@@@std@@AAEXQAHII@Z 0042f070 f i CW2TileManager.obj
 0001:0002e140       ?_Change_array@?$vector@V?$vector@HV?$allocator@H@std@@@std@@V?$allocator@V?$vector@HV?$allocator@H@std@@@std@@@2@@std@@AAEXQAV?$vector@HV?$allocator@H@std@@@2@II@Z 0042f140 f i CW2TileManager.obj
 0001:0002e210       ?_Compat@?$_Vector_const_iterator@V?$_Vector_val@U?$_Simple_types@H@std@@@std@@@std@@QBEXABV12@@Z 0042f210 f i CW2TileManager.obj
 0001:0002e2b0       ?_Destroy@?$vector@HV?$allocator@H@std@@@std@@AAEXPAH0@Z 0042f2b0 f i CW2TileManager.obj
 0001:0002e2e0       ?_Destroy@?$vector@V?$vector@HV?$allocator@H@std@@@std@@V?$allocator@V?$vector@HV?$allocator@H@std@@@std@@@2@@std@@AAEXPAV?$vector@HV?$allocator@H@std@@@2@0@Z 0042f2e0 f i CW2TileManager.obj
 0001:0002e310       ?_Get_first@?$_Compressed_pair@U?$default_delete@VCW2ImagePixelMapping@@@std@@PAVCW2ImagePixelMapping@@$00@std@@QAEAAU?$default_delete@VCW2ImagePixelMapping@@@2@XZ 0042f310 f i CW2TileManager.obj
 0001:0002e330       ?_Get_first@?$_Compressed_pair@V?$allocator@H@std@@V?$_Vector_val@U?$_Simple_types@H@std@@@2@$00@std@@QAEAAV?$allocator@H@2@XZ 0042f330 f i CW2TileManager.obj
 0001:0002e350       ?_Get_first@?$_Compressed_pair@V?$allocator@H@std@@V?$_Vector_val@U?$_Simple_types@H@std@@@2@$00@std@@QBEABV?$allocator@H@2@XZ 0042f350 f i CW2TileManager.obj
 0001:0002e370       ?_Get_first@?$_Compressed_pair@V?$allocator@V?$vector@HV?$allocator@H@std@@@std@@@std@@V?$_Vector_val@U?$_Simple_types@V?$vector@HV?$allocator@H@std@@@std@@@std@@@2@$00@std@@QAEAAV?$allocator@V?$vector@HV?$allocator@H@std@@@std@@@2@XZ 0042f370 f i CW2TileManager.obj
 0001:0002e390       ?_Get_first@?$_Compressed_pair@V?$allocator@V?$vector@HV?$allocator@H@std@@@std@@@std@@V?$_Vector_val@U?$_Simple_types@V?$vector@HV?$allocator@H@std@@@std@@@std@@@2@$00@std@@QBEABV?$allocator@V?$vector@HV?$allocator@H@std@@@std@@@2@XZ 0042f390 f i CW2TileManager.obj
 0001:0002e3b0       ?_Getal@?$vector@HV?$allocator@H@std@@@std@@AAEAAV?$allocator@H@2@XZ 0042f3b0 f i CW2TileManager.obj
 0001:0002e3d0       ?_Getal@?$vector@HV?$allocator@H@std@@@std@@ABEABV?$allocator@H@2@XZ 0042f3d0 f i CW2TileManager.obj
 0001:0002e3f0       ?_Getal@?$vector@V?$vector@HV?$allocator@H@std@@@std@@V?$allocator@V?$vector@HV?$allocator@H@std@@@std@@@2@@std@@AAEAAV?$allocator@V?$vector@HV?$allocator@H@std@@@std@@@2@XZ 0042f3f0 f i CW2TileManager.obj
 0001:0002e410       ?_Getal@?$vector@V?$vector@HV?$allocator@H@std@@@std@@V?$allocator@V?$vector@HV?$allocator@H@std@@@std@@@2@@std@@ABEABV?$allocator@V?$vector@HV?$allocator@H@std@@@std@@@2@XZ 0042f410 f i CW2TileManager.obj
 0001:0002e430       ?_Orphan_range@?$vector@HV?$allocator@H@std@@@std@@ABEXPAH0@Z 0042f430 f i CW2TileManager.obj
 0001:0002e460       ?_Orphan_range@?$vector@V?$vector@HV?$allocator@H@std@@@std@@V?$allocator@V?$vector@HV?$allocator@H@std@@@std@@@2@@std@@ABEXPAV?$vector@HV?$allocator@H@std@@@2@0@Z 0042f460 f i CW2TileManager.obj
 0001:0002e490       ?_Orphan_range_locked@?$vector@HV?$allocator@H@std@@@std@@ABEXPAH0@Z 0042f490 f i CW2TileManager.obj
 0001:0002e520       ?_Orphan_range_locked@?$vector@V?$vector@HV?$allocator@H@std@@@std@@V?$allocator@V?$vector@HV?$allocator@H@std@@@std@@@2@@std@@ABEXPAV?$vector@HV?$allocator@H@std@@@2@0@Z 0042f520 f i CW2TileManager.obj
 0001:0002e5b0       ?_Orphan_range_unlocked@?$vector@HV?$allocator@H@std@@@std@@ABEXPAH0@Z 0042f5b0 f i CW2TileManager.obj
 0001:0002e640       ?_Orphan_range_unlocked@?$vector@V?$vector@HV?$allocator@H@std@@@std@@V?$allocator@V?$vector@HV?$allocator@H@std@@@std@@@2@@std@@ABEXPAV?$vector@HV?$allocator@H@std@@@2@0@Z 0042f640 f i CW2TileManager.obj
 0001:0002e6d0       ?_Release@?$_Uninitialized_backout_al@V?$allocator@H@std@@@std@@QAEPAHXZ 0042f6d0 f i CW2TileManager.obj
 0001:0002e700       ?_Release@?$_Uninitialized_backout_al@V?$allocator@V?$vector@HV?$allocator@H@std@@@std@@@std@@@std@@QAEPAV?$vector@HV?$allocator@H@std@@@2@XZ 0042f700 f i CW2TileManager.obj
 0001:0002e730       ?_Seek_to@?$_Vector_const_iterator@V?$_Vector_val@U?$_Simple_types@H@std@@@std@@@std@@QAEXPBH@Z 0042f730 f i CW2TileManager.obj
 0001:0002e760       ?_Swap_val@?$_Vector_val@U?$_Simple_types@V?$vector@HV?$allocator@H@std@@@std@@@std@@@std@@QAEXAAV12@@Z 0042f760 f i CW2TileManager.obj
 0001:0002e7e0       ?_Tidy@?$vector@HV?$allocator@H@std@@@std@@AAEXXZ 0042f7e0 f i CW2TileManager.obj
 0001:0002e8d0       ?_Tidy@?$vector@V?$vector@HV?$allocator@H@std@@@std@@V?$allocator@V?$vector@HV?$allocator@H@std@@@std@@@2@@std@@AAEXXZ 0042f8d0 f i CW2TileManager.obj
 0001:0002e9c0       ?_Umove@?$vector@HV?$allocator@H@std@@@std@@AAEPAHPAH00@Z 0042f9c0 f i CW2TileManager.obj
 0001:0002ea00       ?_Umove@?$vector@V?$vector@HV?$allocator@H@std@@@std@@V?$allocator@V?$vector@HV?$allocator@H@std@@@std@@@2@@std@@AAEPAV?$vector@HV?$allocator@H@std@@@2@PAV32@00@Z 0042fa00 f i CW2TileManager.obj
 0001:0002ea40       ?_Umove_if_noexcept1@?$vector@HV?$allocator@H@std@@@std@@AAEXPAH00U?$integral_constant@_N$00@2@@Z 0042fa40 f i CW2TileManager.obj
 0001:0002ea80       ?_Umove_if_noexcept1@?$vector@V?$vector@HV?$allocator@H@std@@@std@@V?$allocator@V?$vector@HV?$allocator@H@std@@@std@@@2@@std@@AAEXPAV?$vector@HV?$allocator@H@std@@@2@00U?$integral_constant@_N$00@2@@Z 0042fa80 f i CW2TileManager.obj
 0001:0002eac0       ?_Umove_if_noexcept@?$vector@HV?$allocator@H@std@@@std@@AAEXPAH00@Z 0042fac0 f i CW2TileManager.obj
 0001:0002eb00       ?_Umove_if_noexcept@?$vector@V?$vector@HV?$allocator@H@std@@@std@@V?$allocator@V?$vector@HV?$allocator@H@std@@@std@@@2@@std@@AAEXPAV?$vector@HV?$allocator@H@std@@@2@00@Z 0042fb00 f i CW2TileManager.obj
 0001:0002eb40       ?_Unwrapped@?$_Vector_iterator@V?$_Vector_val@U?$_Simple_types@H@std@@@std@@@std@@QBEPAHXZ 0042fb40 f i CW2TileManager.obj
 0001:0002eb60       ?_Verify_range@std@@YAXABV?$_Vector_const_iterator@V?$_Vector_val@U?$_Simple_types@H@std@@@std@@@1@0@Z 0042fb60 f i CW2TileManager.obj
 0001:0002ec60       ?_Xlength@?$vector@HV?$allocator@H@std@@@std@@CAXXZ 0042fc60 f i CW2TileManager.obj
 0001:0002ec80       ?_Xlength@?$vector@V?$vector@HV?$allocator@H@std@@@std@@V?$allocator@V?$vector@HV?$allocator@H@std@@@std@@@2@@std@@CAXXZ 0042fc80 f i CW2TileManager.obj
 0001:0002eca0       ?allocate@?$allocator@H@std@@QAEPAHI@Z 0042fca0 f i CW2TileManager.obj
 0001:0002ecd0       ?allocate@?$allocator@V?$vector@HV?$allocator@H@std@@@std@@@std@@QAEPAV?$vector@HV?$allocator@H@std@@@2@I@Z 0042fcd0 f i CW2TileManager.obj
 0001:0002ed00       ?begin@?$vector@HV?$allocator@H@std@@@std@@QAE?AV?$_Vector_iterator@V?$_Vector_val@U?$_Simple_types@H@std@@@std@@@2@XZ 0042fd00 f i CW2TileManager.obj
 0001:0002ed50       ?capacity@?$vector@HV?$allocator@H@std@@@std@@QBEIXZ 0042fd50 f i CW2TileManager.obj
 0001:0002ed80       ?capacity@?$vector@V?$vector@HV?$allocator@H@std@@@std@@V?$allocator@V?$vector@HV?$allocator@H@std@@@std@@@2@@std@@QBEIXZ 0042fd80 f i CW2TileManager.obj
 0001:0002edb0       ?clear@?$vector@HV?$allocator@H@std@@@std@@QAEXXZ 0042fdb0 f i CW2TileManager.obj
 0001:0002ee50       ?deallocate@?$allocator@H@std@@QAEXQAHI@Z 0042fe50 f i CW2TileManager.obj
 0001:0002ee80       ?deallocate@?$allocator@V?$vector@HV?$allocator@H@std@@@std@@@std@@QAEXQAV?$vector@HV?$allocator@H@std@@@2@I@Z 0042fe80 f i CW2TileManager.obj
 0001:0002eeb0       ?end@?$vector@HV?$allocator@H@std@@@std@@QAE?AV?$_Vector_iterator@V?$_Vector_val@U?$_Simple_types@H@std@@@std@@@2@XZ 0042feb0 f i CW2TileManager.obj
 0001:0002ef00       ?get_deleter@?$unique_ptr@VCW2ImagePixelMapping@@U?$default_delete@VCW2ImagePixelMapping@@@std@@@std@@QAEAAU?$default_delete@VCW2ImagePixelMapping@@@2@XZ 0042ff00 f i CW2TileManager.obj
 0001:0002ef20       ?max_size@?$_Default_allocator_traits@V?$allocator@H@std@@@std@@SAIABV?$allocator@H@2@@Z 0042ff20 f i CW2TileManager.obj
 0001:0002ef30       ?max_size@?$_Default_allocator_traits@V?$allocator@V?$vector@HV?$allocator@H@std@@@std@@@std@@@std@@SAIABV?$allocator@V?$vector@HV?$allocator@H@std@@@std@@@2@@Z 0042ff30 f i CW2TileManager.obj
 0001:0002ef40       ?max_size@?$vector@HV?$allocator@H@std@@@std@@QBEIXZ 0042ff40 f i CW2TileManager.obj
 0001:0002ef90       ?max_size@?$vector@V?$vector@HV?$allocator@H@std@@@std@@V?$allocator@V?$vector@HV?$allocator@H@std@@@std@@@2@@std@@QBEIXZ 0042ff90 f i CW2TileManager.obj
 0001:0002efe0       ?open@?$basic_ifstream@DU?$char_traits@D@std@@@std@@QAEXABV?$basic_string@DU?$char_traits@D@std@@V?$allocator@D@2@@2@HH@Z 0042ffe0 f i CW2TileManager.obj
 0001:0002f010       ?push_back@?$vector@HV?$allocator@H@std@@@std@@QAEX$$QAH@Z 00430010 f i CW2TileManager.obj
 0001:0002f040       ?push_back@?$vector@V?$vector@HV?$allocator@H@std@@@std@@V?$allocator@V?$vector@HV?$allocator@H@std@@@std@@@2@@std@@QAEXABV?$vector@HV?$allocator@H@std@@@2@@Z 00430040 f i CW2TileManager.obj
 0001:0002f060       ?release@?$unique_ptr@VCW2ImagePixelMapping@@U?$default_delete@VCW2ImagePixelMapping@@@std@@@std@@QAEPAVCW2ImagePixelMapping@@XZ 00430060 f i CW2TileManager.obj
 0001:0002f090       ?reset@?$unique_ptr@VCW2ImagePixelMapping@@U?$default_delete@VCW2ImagePixelMapping@@@std@@@std@@QAEXPAVCW2ImagePixelMapping@@@Z 00430090 f i CW2TileManager.obj
 0001:0002f0e0       ?select_on_container_copy_construction@?$_Default_allocator_traits@V?$allocator@H@std@@@std@@SA?AV?$allocator@H@2@ABV32@@Z 004300e0 f i CW2TileManager.obj
 0001:0002f0f0       ?select_on_container_copy_construction@?$_Default_allocator_traits@V?$allocator@V?$vector@HV?$allocator@H@std@@@std@@@std@@@std@@SA?AV?$allocator@V?$vector@HV?$allocator@H@std@@@std@@@2@ABV32@@Z 004300f0 f i CW2TileManager.obj
 0001:0002f100       ?setMapSize@TileManager@@QAEXHH@Z 00430100 f i CW2TileManager.obj
 0001:0002f1b0       ?setTopLeftPositionOnScreen@TileManager@@QAEXHH@Z 004301b0 f i CW2TileManager.obj
 0001:0002f1e0       ?size@?$vector@HV?$allocator@H@std@@@std@@QBEIXZ 004301e0 f i CW2TileManager.obj
 0001:0002f210       ?size@?$vector@V?$vector@HV?$allocator@H@std@@@std@@V?$allocator@V?$vector@HV?$allocator@H@std@@@std@@@2@@std@@QBEIXZ 00430210 f i CW2TileManager.obj
 0001:0002f240       ?swap@?$vector@V?$vector@HV?$allocator@H@std@@@std@@V?$allocator@V?$vector@HV?$allocator@H@std@@@std@@@2@@std@@QAEXAAV12@@Z 00430240 f i CW2TileManager.obj
 0001:0002f2a0       ?virtSetupBackgroundBuffer@DraggingDemo@@UAEXXZ 004302a0 f   DraggingDemo.obj
 0001:0002f3e0       ?virtInitialiseObjects@DraggingDemo@@UAEHXZ 004303e0 f   DraggingDemo.obj
 0001:0002f630       ?virtKeyDown@DraggingDemo@@UAEXH@Z 00430630 f   DraggingDemo.obj
 0001:0002f750       ??$_Resize@U_Value_init_tag@std@@@?$vector@PAVDisplayableObject@@V?$allocator@PAVDisplayableObject@@@std@@@std@@AAEXIABU_Value_init_tag@1@@Z 00430750 f i DraggingDemo.obj
 0001:0002f870       ??$_Resize_reallocate@U_Value_init_tag@std@@@?$vector@PAVDisplayableObject@@V?$allocator@PAVDisplayableObject@@@std@@@std@@AAEXIABU_Value_init_tag@1@@Z 00430870 f i DraggingDemo.obj
 0001:0002fa20       ??0DragableBaseClassObject@@QAE@HHPAVBaseEngine@@HH_N@Z 00430a20 f i DraggingDemo.obj
 0001:0002fab0       ??0DragableBaseClassObject@@QAE@PAVBaseEngine@@HH_N@Z 00430ab0 f i DraggingDemo.obj
 0001:0002fb30       ??0DragableImageObject@@QAE@HHPAVBaseEngine@@V?$basic_string@DU?$char_traits@D@std@@V?$allocator@D@2@@std@@_N2@Z 00430b30 f i DraggingDemo.obj
 0001:0002fcd0       ??0DragableObject@@QAE@HHPAVBaseEngine@@HH_N1@Z 00430cd0 f i DraggingDemo.obj
 0001:0002fd80       ??0DragableObject@@QAE@PAVBaseEngine@@HH_N1@Z 00430d80 f i DraggingDemo.obj
 0001:0002fe30       ??0ImageObject@@QAE@HHPAVBaseEngine@@V?$basic_string@DU?$char_traits@D@std@@V?$allocator@D@2@@std@@_N2@Z 00430e30 f i DraggingDemo.obj
 0001:0002ffc0       ??1DragableBaseClassObject@@UAE@XZ 00430fc0 f i DraggingDemo.obj
 0001:0002ffe0       ??1DragableImageObject@@UAE@XZ 00430fe0 f i DraggingDemo.obj
 0001:00030010       ??1DragableObject@@UAE@XZ  00431010 f i DraggingDemo.obj
 0001:00030030       ??1ImageObject@@UAE@XZ     00431030 f i DraggingDemo.obj
 0001:00030060       ??_EDragableBaseClassObject@@UAEPAXI@Z 00431060 f i DraggingDemo.obj
 0001:00030060       ??_GDragableBaseClassObject@@UAEPAXI@Z 00431060 f i DraggingDemo.obj
 0001:000300a0       ??_EDragableImageObject@@UAEPAXI@Z 004310a0 f i DraggingDemo.obj
 0001:000300a0       ??_GDragableImageObject@@UAEPAXI@Z 004310a0 f i DraggingDemo.obj
 0001:000300e0       ??_GDragableObject@@UAEPAXI@Z 004310e0 f i DraggingDemo.obj
 0001:000300e0       ??_EDragableObject@@UAEPAXI@Z 004310e0 f i DraggingDemo.obj
 0001:00030120       ??_GImageObject@@UAEPAXI@Z 00431120 f i DraggingDemo.obj
 0001:00030120       ??_EImageObject@@UAEPAXI@Z 00431120 f i DraggingDemo.obj
 0001:00030160       ?checkDoDrag@DragableBaseClassObject@@UAEXHH@Z 00431160 f i DraggingDemo.obj
 0001:000301e0       ?checkFinishDrag@DragableBaseClassObject@@UAEXHH@Z 004311e0 f i DraggingDemo.obj
 0001:00030220       ?checkStartDrag@DragableBaseClassObject@@UAEXHH@Z 00431220 f i DraggingDemo.obj
 0001:000302a0       ?createObjectArray@DisplayableObjectContainer@@QAEXH@Z 004312a0 f i DraggingDemo.obj
 0001:000302f0       ?doDragRedraw@DragableBaseClassObject@@UAEXXZ 004312f0 f i DraggingDemo.obj
 0001:00030310       ?notifyObjectsAboutMouse@BaseEngine@@QAEX_N@Z 00431310 f i DraggingDemo.obj
 0001:00030330       ?resize@?$vector@PAVDisplayableObject@@V?$allocator@PAVDisplayableObject@@@std@@@std@@QAEXI@Z 00431330 f i DraggingDemo.obj
 0001:00030360       ?storeObjectInArray@DisplayableObjectContainer@@QAEXHPAVDisplayableObject@@@Z 00431360 f i DraggingDemo.obj
 0001:000303a0       ?virtDraw@DragableImageObject@@UAEXXZ 004313a0 f i DraggingDemo.obj
 0001:00030420       ?virtDraw@ImageObject@@UAEXXZ 00431420 f i DraggingDemo.obj
 0001:000304a0       ?virtMouseDown@DragableImageObject@@UAEXHHH@Z 004314a0 f i DraggingDemo.obj
 0001:000304d0       ?virtMouseDown@DragableObject@@UAEXHHH@Z 004314d0 f i DraggingDemo.obj
 0001:00030500       ?virtMouseMoved@DragableImageObject@@UAEXHH@Z 00431500 f i DraggingDemo.obj
 0001:00030530       ?virtMouseMoved@DragableObject@@UAEXHH@Z 00431530 f i DraggingDemo.obj
 0001:00030560       ?virtMouseUp@DragableImageObject@@UAEXHHH@Z 00431560 f i DraggingDemo.obj
 0001:00030590       ?virtMouseUp@DragableObject@@UAEXHHH@Z 00431590 f i DraggingDemo.obj
 0001:000305d0       ??0DrawingSurface@@QAE@PAVBaseEngine@@@Z 004315d0 f   DrawingSurface.obj
 0001:00030670       ?drawLine@DrawingSurface@@QAEXNNNNI@Z 00431670 f   DrawingSurface.obj
 0001:00030850       ?drawThickLine@DrawingSurface@@QAEXNNNNIH@Z 00431850 f   DrawingSurface.obj
 0001:00030cf0       ?drawVerticalSidedRegion@DrawingSurface@@QAEXNNNNNNI@Z 00431cf0 f   DrawingSurface.obj
 0001:00031090       ?drawRectangle@DrawingSurface@@QAEXHHHHI@Z 00432090 f   DrawingSurface.obj
 0001:000311a0       ?drawOval@DrawingSurface@@QAEXHHHHI@Z 004321a0 f   DrawingSurface.obj
 0001:00031370       ?rawDrawOval@DrawingSurface@@QAEXHHHHI@Z 00432370 f   DrawingSurface.obj
 0001:000314d0       ?drawHollowOval@DrawingSurface@@QAEXHHHHHHHHI@Z 004324d0 f   DrawingSurface.obj
 0001:000317f0       ?drawPolygon@DrawingSurface@@QAEXHPAN0I@Z 004327f0 f   DrawingSurface.obj
 0001:00031f70       ?drawFastString@DrawingSurface@@QAEXHHPBDIPAVFont@@@Z 00432f70 f   DrawingSurface.obj
 0001:00032060       ?drawScalableString@DrawingSurface@@QAEXHHPBDIPAVFont@@@Z 00433060 f   DrawingSurface.obj
 0001:00032230       ?drawShortenedArrow@DrawingSurface@@QAEXHHHHHHIHH@Z 00433230 f   DrawingSurface.obj
 0001:000327b0       ?drawShortenedLine@DrawingSurface@@QAEXHHHHHHIH@Z 004337b0 f   DrawingSurface.obj
 0001:00032bb0       ?drawTriangle@DrawingSurface@@QAEXNNNNNNI@Z 00433bb0 f   DrawingSurface.obj
 0001:00032f00       ?copyEntireSurface@DrawingSurface@@QAEXPAV1@@Z 00433f00 f   DrawingSurface.obj
 0001:00032f50       ?copyRectangleFrom@DrawingSurface@@QAEXPAV1@HHHHHH@Z 00433f50 f   DrawingSurface.obj
 0001:00033150       ?getAngle@DrawingSurface@@SANNNNN@Z 00434150 f   DrawingSurface.obj
 0001:000331f0       ?getVirtualRedrawMinX@DrawingSurface@@QAEHXZ 004341f0 f   DrawingSurface.obj
 0001:00033240       ?getVirtualRedrawMinY@DrawingSurface@@QAEHXZ 00434240 f   DrawingSurface.obj
 0001:00033290       ?getVirtualRedrawMaxX@DrawingSurface@@QAEHXZ 00434290 f   DrawingSurface.obj
 0001:000332f0       ?getVirtualRedrawMaxY@DrawingSurface@@QAEHXZ 004342f0 f   DrawingSurface.obj
 0001:00033350       ?getRealRedrawMinX@DrawingSurface@@QAEHXZ 00434350 f   DrawingSurface.obj
 0001:000333a0       ?getRealRedrawMinY@DrawingSurface@@QAEHXZ 004343a0 f   DrawingSurface.obj
 0001:000333f0       ?getRealRedrawMaxX@DrawingSurface@@QAEHXZ 004343f0 f   DrawingSurface.obj
 0001:00033440       ?getRealRedrawMaxY@DrawingSurface@@QAEHXZ 00434440 f   DrawingSurface.obj
 0001:00034040       ??$move@AAN@std@@YA$$QANAAN@Z 00435040 f i DrawingSurface.obj
 0001:00034050       ??$swap@H$0A@@std@@YAXAAH0@Z 00435050 f i DrawingSurface.obj
 0001:000340a0       ??$swap@N$0A@@std@@YAXAAN0@Z 004350a0 f i DrawingSurface.obj
 0001:00034100       ?checkBlitable@DrawingSurface@@QAEXXZ 00435100 f i DrawingSurface.obj
 0001:00034150       ?getDefaultFont@BaseEngine@@QBEPAVFont@@XZ 00435150 f i DrawingSurface.obj
 0001:00034170       ?getRedrawRectRealBottom@BaseEngine@@QAEHXZ 00435170 f i DrawingSurface.obj
 0001:00034190       ?getRedrawRectRealLeft@BaseEngine@@QAEHXZ 00435190 f i DrawingSurface.obj
 0001:000341b0       ?getRedrawRectRealRight@BaseEngine@@QAEHXZ 004351b0 f i DrawingSurface.obj
 0001:000341d0       ?getRedrawRectRealTop@BaseEngine@@QAEHXZ 004351d0 f i DrawingSurface.obj
 0001:000341f0       ?getTTFFont@Font@@QAEPAU_TTF_Font@@XZ 004351f0 f i DrawingSurface.obj
 0001:00034210       ?setDrawPointsFilter@DrawingSurface@@QAEXPAVFilterPoints@@@Z 00435210 f i DrawingSurface.obj
 0001:00034230       ??0FlashingDemo@@QAE@XZ    00435230 f   FlashingDemo.obj
 0001:000342f0       ??1FlashingDemo@@UAE@XZ    004352f0 f   FlashingDemo.obj
 0001:00034340       ?virtSetupBackgroundBuffer@FlashingDemo@@UAEXXZ 00435340 f   FlashingDemo.obj
 0001:000347c0       ?virtMainLoopDoBeforeUpdate@FlashingDemo@@UAEXXZ 004357c0 f   FlashingDemo.obj
 0001:00034880       ?virtCreateSurfaces@FlashingDemo@@UAEXXZ 00435880 f   FlashingDemo.obj
 0001:00034aa0       ??1DrawingSurface@@QAE@XZ  00435aa0 f i FlashingDemo.obj
 0001:00034ab0       ??_EFlashingDemo@@UAEPAXI@Z 00435ab0 f i FlashingDemo.obj
 0001:00034ab0       ??_GFlashingDemo@@UAEPAXI@Z 00435ab0 f i FlashingDemo.obj
 0001:00034af0       ?copyAllBackgroundBuffer@BaseEngine@@UAEXXZ 00435af0 f i FlashingDemo.obj
 0001:00034b20       ?createSurface@DrawingSurface@@QAEXHH@Z 00435b20 f i FlashingDemo.obj
 0001:00034b70       ?virtMainLoopDoAfterUpdate@BaseEngine@@UAEXXZ 00435b70 f i FlashingDemo.obj
 0001:00034b80       ?virtSetupBackgroundBuffer@ImageMappingDemo@@UAEXXZ 00435b80 f   ImageMappingDemo.obj
 0001:00034c80       ?virtInitialiseObjects@ImageMappingDemo@@UAEHXZ 00435c80 f   ImageMappingDemo.obj
 0001:00034ff0       ?virtKeyDown@ImageMappingDemo@@UAEXH@Z 00435ff0 f   ImageMappingDemo.obj
 0001:00035020       ?virtMainLoopDoBeforeUpdate@ImageMappingDemo@@UAEXXZ 00436020 f   ImageMappingDemo.obj
 0001:000350b0       ?mapCoordinates@ImageMappingDemo@@UAE_NAAN0ABVSimpleImage@@@Z 004360b0 f   ImageMappingDemo.obj
 0001:00035520       ??0MappableImageObject@@QAE@PAVImagePixelMapping@@HHPAVBaseEngine@@V?$basic_string@DU?$char_traits@D@std@@V?$allocator@D@2@@std@@_N3@Z 00436520 f i ImageMappingDemo.obj
 0001:000355e0       ??1MappableImageObject@@UAE@XZ 004365e0 f i ImageMappingDemo.obj
 0001:00035600       ??_EMappableImageObject@@UAEPAXI@Z 00436600 f i ImageMappingDemo.obj
 0001:00035600       ??_GMappableImageObject@@UAEPAXI@Z 00436600 f i ImageMappingDemo.obj
 0001:00035640       ?getPixelColour@MappableImageObject@@QAEHHH@Z 00436640 f i ImageMappingDemo.obj
 0001:00035670       ?setRotation@ImagePixelMappingRotate@@QAEXN@Z 00436670 f i ImageMappingDemo.obj
 0001:00035690       ?setTransparencyColour@MappableImageObject@@QAEXH@Z 00436690 f i ImageMappingDemo.obj
 0001:000356c0       ?virtDraw@MappableImageObject@@UAEXXZ 004366c0 f i ImageMappingDemo.obj
 0001:00035750       ?savePositions@JigsawDemo@@QAEXXZ 00436750 f   JigsawDemo.obj
 0001:000357c0       ?virtSetupBackgroundBuffer@JigsawDemo@@UAEXXZ 004367c0 f   JigsawDemo.obj
 0001:000357e0       ?virtInitialise@JigsawDemo@@UAEHXZ 004367e0 f   JigsawDemo.obj
 0001:00035830       ?virtInitialiseObjects@JigsawDemo@@UAEHXZ 00436830 f   JigsawDemo.obj
 0001:00035cd0       ?virtKeyDown@JigsawDemo@@UAEXH@Z 00436cd0 f   JigsawDemo.obj
 0001:00035dd0       ?virtMainLoopDoBeforeUpdate@JigsawDemo@@UAEXXZ 00436dd0 f   JigsawDemo.obj
 0001:00035e00       ?virtKeyUp@JigsawDemo@@UAEXH@Z 00436e00 f   JigsawDemo.obj
 0001:00035e20       ?virtRealMouseDown@JigsawDemo@@UAEXHHH@Z 00436e20 f   JigsawDemo.obj
 0001:00036020       ?virtBackgroundMouseDown@JigsawDemo@@UAEXHHHHH@Z 00437020 f   JigsawDemo.obj
 0001:00036050       ?virtMouseMoved@JigsawDemo@@UAEXHH@Z 00437050 f   JigsawDemo.obj
 0001:000360a0       ?virtMouseUp@JigsawDemo@@UAEXHHH@Z 004370a0 f   JigsawDemo.obj
 0001:00036100       ?virtMouseWheel@JigsawDemo@@UAEXHHHH@Z 00437100 f   JigsawDemo.obj
 0001:000361c0       ?virtPreDraw@JigsawDemo@@UAEXXZ 004371c0 f   JigsawDemo.obj
 0001:000361d0       ?virtPostDraw@JigsawDemo@@UAEXXZ 004371d0 f   JigsawDemo.obj
 0001:00036cb0       ??$?0ABV<lambda_2870de01b601283699da779de20905fc>@@$0A@@?$_Func_impl_no_alloc@V<lambda_2870de01b601283699da779de20905fc>@@XPAVDisplayableObject@@@std@@QAE@ABV<lambda_2870de01b601283699da779de20905fc>@@@Z 00437cb0 f i JigsawDemo.obj
 0001:00036cf0       ??$?0ABV<lambda_341a6657abb2758c42a6873833e6116f>@@$0A@@?$_Func_impl_no_alloc@V<lambda_341a6657abb2758c42a6873833e6116f>@@XPAVDisplayableObject@@@std@@QAE@ABV<lambda_341a6657abb2758c42a6873833e6116f>@@@Z 00437cf0 f i JigsawDemo.obj
 0001:00036d40       ??$?0ABV<lambda_369f3aee610e50bbd15c3a78d9c8686f>@@$0A@@?$_Func_impl_no_alloc@V<lambda_369f3aee610e50bbd15c3a78d9c8686f>@@XPAVDisplayableObject@@@std@@QAE@ABV<lambda_369f3aee610e50bbd15c3a78d9c8686f>@@@Z 00437d40 f i JigsawDemo.obj
 0001:00036dd0       ??$?0ABV<lambda_4d3c514b9e5ad6cc29096aa3b57f98f2>@@$0A@@?$_Func_impl_no_alloc@V<lambda_4d3c514b9e5ad6cc29096aa3b57f98f2>@@XPAVDisplayableObject@@@std@@QAE@ABV<lambda_4d3c514b9e5ad6cc29096aa3b57f98f2>@@@Z 00437dd0 f i JigsawDemo.obj
 0001:00036eb0       ??$?0ABV<lambda_817584b2460f1bcab806f46a25c321a8>@@$0A@@?$_Func_impl_no_alloc@V<lambda_817584b2460f1bcab806f46a25c321a8>@@XPAVDisplayableObject@@@std@@QAE@ABV<lambda_817584b2460f1bcab806f46a25c321a8>@@@Z 00437eb0 f i JigsawDemo.obj
 0001:00036f00       ??$?0V<lambda_2870de01b601283699da779de20905fc>@@$0A@@?$_Func_impl_no_alloc@V<lambda_2870de01b601283699da779de20905fc>@@XPAVDisplayableObject@@@std@@QAE@$$QAV<lambda_2870de01b601283699da779de20905fc>@@@Z 00437f00 f i JigsawDemo.obj
 0001:00036f40       ??$?0V<lambda_2870de01b601283699da779de20905fc>@@$0A@@?$function@$$A6AXPAVDisplayableObject@@@Z@std@@QAE@V<lambda_2870de01b601283699da779de20905fc>@@@Z 00437f40 f i JigsawDemo.obj
 0001:00036fc0       ??$?0V<lambda_341a6657abb2758c42a6873833e6116f>@@$0A@@?$_Func_impl_no_alloc@V<lambda_341a6657abb2758c42a6873833e6116f>@@XPAVDisplayableObject@@@std@@QAE@$$QAV<lambda_341a6657abb2758c42a6873833e6116f>@@@Z 00437fc0 f i JigsawDemo.obj
 0001:00037010       ??$?0V<lambda_341a6657abb2758c42a6873833e6116f>@@$0A@@?$function@$$A6AXPAVDisplayableObject@@@Z@std@@QAE@V<lambda_341a6657abb2758c42a6873833e6116f>@@@Z 00438010 f i JigsawDemo.obj
 0001:00037090       ??$?0V<lambda_369f3aee610e50bbd15c3a78d9c8686f>@@$0A@@?$_Func_impl_no_alloc@V<lambda_369f3aee610e50bbd15c3a78d9c8686f>@@XPAVDisplayableObject@@@std@@QAE@$$QAV<lambda_369f3aee610e50bbd15c3a78d9c8686f>@@@Z 00438090 f i JigsawDemo.obj
 0001:000370e0       ??$?0V<lambda_369f3aee610e50bbd15c3a78d9c8686f>@@$0A@@?$function@$$A6AXPAVDisplayableObject@@@Z@std@@QAE@V<lambda_369f3aee610e50bbd15c3a78d9c8686f>@@@Z 004380e0 f i JigsawDemo.obj
 0001:00037220       ??$?0V<lambda_4d3c514b9e5ad6cc29096aa3b57f98f2>@@$0A@@?$_Func_impl_no_alloc@V<lambda_4d3c514b9e5ad6cc29096aa3b57f98f2>@@XPAVDisplayableObject@@@std@@QAE@$$QAV<lambda_4d3c514b9e5ad6cc29096aa3b57f98f2>@@@Z 00438220 f i JigsawDemo.obj
 0001:00037270       ??$?0V<lambda_4d3c514b9e5ad6cc29096aa3b57f98f2>@@$0A@@?$function@$$A6AXPAVDisplayableObject@@@Z@std@@QAE@V<lambda_4d3c514b9e5ad6cc29096aa3b57f98f2>@@@Z 00438270 f i JigsawDemo.obj
 0001:00037480       ??$?0V<lambda_817584b2460f1bcab806f46a25c321a8>@@$0A@@?$_Func_impl_no_alloc@V<lambda_817584b2460f1bcab806f46a25c321a8>@@XPAVDisplayableObject@@@std@@QAE@$$QAV<lambda_817584b2460f1bcab806f46a25c321a8>@@@Z 00438480 f i JigsawDemo.obj
 0001:000374d0       ??$?0V<lambda_817584b2460f1bcab806f46a25c321a8>@@$0A@@?$function@$$A6AXPAVDisplayableObject@@@Z@std@@QAE@V<lambda_817584b2460f1bcab806f46a25c321a8>@@@Z 004384d0 f i JigsawDemo.obj
 0001:00037550       ??$_Adl_verify_range@V?$_Vector_const_iterator@V?$_Vector_val@U?$_Simple_types@PAVDisplayableObject@@@std@@@std@@@std@@V12@@std@@YAXABV?$_Vector_const_iterator@V?$_Vector_val@U?$_Simple_types@PAVDisplayableObject@@@std@@@std@@@0@0@Z 00438550 f i JigsawDemo.obj
 0001:00037570       ??$_Adl_verify_range@V?$_Vector_iterator@V?$_Vector_val@U?$_Simple_types@PAVDisplayableObject@@@std@@@std@@@std@@V12@@std@@YAXABV?$_Vector_iterator@V?$_Vector_val@U?$_Simple_types@PAVDisplayableObject@@@std@@@std@@@0@0@Z 00438570 f i JigsawDemo.obj
 0001:00037590       ??$_Call@AAV<lambda_2870de01b601283699da779de20905fc>@@PAVDisplayableObject@@@?$_Invoker_ret@X$00@std@@SAXAAV<lambda_2870de01b601283699da779de20905fc>@@$$QAPAVDisplayableObject@@@Z 00438590 f i JigsawDemo.obj
 0001:000375b0       ??$_Call@AAV<lambda_341a6657abb2758c42a6873833e6116f>@@PAVDisplayableObject@@@?$_Invoker_ret@X$00@std@@SAXAAV<lambda_341a6657abb2758c42a6873833e6116f>@@$$QAPAVDisplayableObject@@@Z 004385b0 f i JigsawDemo.obj
 0001:000375d0       ??$_Call@AAV<lambda_369f3aee610e50bbd15c3a78d9c8686f>@@PAVDisplayableObject@@@?$_Invoker_ret@X$00@std@@SAXAAV<lambda_369f3aee610e50bbd15c3a78d9c8686f>@@$$QAPAVDisplayableObject@@@Z 004385d0 f i JigsawDemo.obj
 0001:00037610       ??$_Call@AAV<lambda_4d3c514b9e5ad6cc29096aa3b57f98f2>@@PAVDisplayableObject@@@?$_Invoker_ret@X$00@std@@SAXAAV<lambda_4d3c514b9e5ad6cc29096aa3b57f98f2>@@$$QAPAVDisplayableObject@@@Z 00438610 f i JigsawDemo.obj
 0001:00037670       ??$_Call@AAV<lambda_817584b2460f1bcab806f46a25c321a8>@@PAVDisplayableObject@@@?$_Invoker_ret@X$00@std@@SAXAAV<lambda_817584b2460f1bcab806f46a25c321a8>@@$$QAPAVDisplayableObject@@@Z 00438670 f i JigsawDemo.obj
 0001:00037690       ??$_Deallocate@$03$0A@@std@@YAXPAXI@Z 00438690 f i JigsawDemo.obj
 0001:00037710       ??$_Find_unchecked1@PAPAVDisplayableObject@@PAV1@@std@@YAPAPAVDisplayableObject@@PAPAV1@QAPAV1@ABQAV1@U?$integral_constant@_N$0A@@0@@Z 00438710 f i JigsawDemo.obj
 0001:00037750       ??$_Find_unchecked@PAPAVDisplayableObject@@PAV1@@std@@YAPAPAVDisplayableObject@@QAPAV1@0ABQAV1@@Z 00438750 f i JigsawDemo.obj
 0001:00037780       ??$_Get_unwrapped@AAV?$_Vector_const_iterator@V?$_Vector_val@U?$_Simple_types@PAVDisplayableObject@@@std@@@std@@@std@@@std@@YA?A_TAAV?$_Vector_const_iterator@V?$_Vector_val@U?$_Simple_types@PAVDisplayableObject@@@std@@@std@@@0@@Z 00438780 f i JigsawDemo.obj
 0001:00037790       ??$_Get_unwrapped@AAV?$_Vector_iterator@V?$_Vector_val@U?$_Simple_types@PAVDisplayableObject@@@std@@@std@@@std@@@std@@YA?A_TAAV?$_Vector_iterator@V?$_Vector_val@U?$_Simple_types@PAVDisplayableObject@@@std@@@std@@@0@@Z 00438790 f i JigsawDemo.obj
 0001:000377a0       ??$_Get_unwrapped@ABV?$_Vector_iterator@V?$_Vector_val@U?$_Simple_types@PAVDisplayableObject@@@std@@@std@@@std@@@std@@YA?A_TABV?$_Vector_iterator@V?$_Vector_val@U?$_Simple_types@PAVDisplayableObject@@@std@@@std@@@0@@Z 004387a0 f i JigsawDemo.obj
 0001:000377b0       ??$_Refancy@PAPAVDisplayableObject@@$0A@@std@@YAPAPAVDisplayableObject@@PAPAV1@@Z 004387b0 f i JigsawDemo.obj
 0001:000377c0       ??$_Reset@V<lambda_2870de01b601283699da779de20905fc>@@@?$_Func_class@XPAVDisplayableObject@@@std@@IAEX$$QAV<lambda_2870de01b601283699da779de20905fc>@@@Z 004387c0 f i JigsawDemo.obj
 0001:00037830       ??$_Reset@V<lambda_341a6657abb2758c42a6873833e6116f>@@@?$_Func_class@XPAVDisplayableObject@@@std@@IAEX$$QAV<lambda_341a6657abb2758c42a6873833e6116f>@@@Z 00438830 f i JigsawDemo.obj
 0001:000378a0       ??$_Reset@V<lambda_369f3aee610e50bbd15c3a78d9c8686f>@@@?$_Func_class@XPAVDisplayableObject@@@std@@IAEX$$QAV<lambda_369f3aee610e50bbd15c3a78d9c8686f>@@@Z 004388a0 f i JigsawDemo.obj
 0001:00037980       ??$_Reset@V<lambda_4d3c514b9e5ad6cc29096aa3b57f98f2>@@@?$_Func_class@XPAVDisplayableObject@@@std@@IAEX$$QAV<lambda_4d3c514b9e5ad6cc29096aa3b57f98f2>@@@Z 00438980 f i JigsawDemo.obj
 0001:00037ad0       ??$_Reset@V<lambda_817584b2460f1bcab806f46a25c321a8>@@@?$_Func_class@XPAVDisplayableObject@@@std@@IAEX$$QAV<lambda_817584b2460f1bcab806f46a25c321a8>@@@Z 00438ad0 f i JigsawDemo.obj
 0001:00037b40       ??$_Seek_wrapped@V?$_Vector_iterator@V?$_Vector_val@U?$_Simple_types@PAVDisplayableObject@@@std@@@std@@@std@@PAPAVDisplayableObject@@@std@@YAXAAV?$_Vector_iterator@V?$_Vector_val@U?$_Simple_types@PAVDisplayableObject@@@std@@@std@@@0@$$QAPAPAVDisplayableObject@@@Z 00438b40 f i JigsawDemo.obj
 0001:00037b70       ??$_Test_callable@V<lambda_2870de01b601283699da779de20905fc>@@@std@@YA_NABV<lambda_2870de01b601283699da779de20905fc>@@@Z 00438b70 f i JigsawDemo.obj
 0001:00037b80       ??$_Test_callable@V<lambda_341a6657abb2758c42a6873833e6116f>@@@std@@YA_NABV<lambda_341a6657abb2758c42a6873833e6116f>@@@Z 00438b80 f i JigsawDemo.obj
 0001:00037b90       ??$_Test_callable@V<lambda_369f3aee610e50bbd15c3a78d9c8686f>@@@std@@YA_NABV<lambda_369f3aee610e50bbd15c3a78d9c8686f>@@@Z 00438b90 f i JigsawDemo.obj
 0001:00037bb0       ??$_Test_callable@V<lambda_4d3c514b9e5ad6cc29096aa3b57f98f2>@@@std@@YA_NABV<lambda_4d3c514b9e5ad6cc29096aa3b57f98f2>@@@Z 00438bb0 f i JigsawDemo.obj
 0001:00037be0       ??$_Test_callable@V<lambda_817584b2460f1bcab806f46a25c321a8>@@@std@@YA_NABV<lambda_817584b2460f1bcab806f46a25c321a8>@@@Z 00438be0 f i JigsawDemo.obj
 0001:00037bf0       ??$addressof@$$CBV<lambda_2870de01b601283699da779de20905fc>@@@std@@YAPBV<lambda_2870de01b601283699da779de20905fc>@@ABV1@@Z 00438bf0 f i JigsawDemo.obj
 0001:00037c00       ??$addressof@$$CBV<lambda_341a6657abb2758c42a6873833e6116f>@@@std@@YAPBV<lambda_341a6657abb2758c42a6873833e6116f>@@ABV1@@Z 00438c00 f i JigsawDemo.obj
 0001:00037c10       ??$addressof@$$CBV<lambda_369f3aee610e50bbd15c3a78d9c8686f>@@@std@@YAPBV<lambda_369f3aee610e50bbd15c3a78d9c8686f>@@ABV1@@Z 00438c10 f i JigsawDemo.obj
 0001:00037c30       ??$addressof@$$CBV<lambda_4d3c514b9e5ad6cc29096aa3b57f98f2>@@@std@@YAPBV<lambda_4d3c514b9e5ad6cc29096aa3b57f98f2>@@ABV1@@Z 00438c30 f i JigsawDemo.obj
 0001:00037c60       ??$addressof@$$CBV<lambda_817584b2460f1bcab806f46a25c321a8>@@@std@@YAPBV<lambda_817584b2460f1bcab806f46a25c321a8>@@ABV1@@Z 00438c60 f i JigsawDemo.obj
 0001:00037c70       ??$find@V?$_Vector_iterator@V?$_Vector_val@U?$_Simple_types@PAVDisplayableObject@@@std@@@std@@@std@@PAVDisplayableObject@@@std@@YA?AV?$_Vector_iterator@V?$_Vector_val@U?$_Simple_types@PAVDisplayableObject@@@std@@@std@@@0@V10@V10@ABQAVDisplayableObject@@@Z 00438c70 f i JigsawDemo.obj
 0001:00037d60       ??$for_each@V?$_Vector_const_iterator@V?$_Vector_val@U?$_Simple_types@PAVDisplayableObject@@@std@@@std@@@std@@V?$function@$$A6AXPAVDisplayableObject@@@Z@2@@std@@YA?AV?$function@$$A6AXPAVDisplayableObject@@@Z@0@V?$_Vector_const_iterator@V?$_Vector_val@U?$_Simple_types@PAVDisplayableObject@@@std@@@std@@@0@0V10@@Z 00438d60 f i JigsawDemo.obj
 0001:00037e70       ??$forward@ABV<lambda_2870de01b601283699da779de20905fc>@@@std@@YAABV<lambda_2870de01b601283699da779de20905fc>@@ABV1@@Z 00438e70 f i JigsawDemo.obj
 0001:00037e80       ??$forward@ABV<lambda_341a6657abb2758c42a6873833e6116f>@@@std@@YAABV<lambda_341a6657abb2758c42a6873833e6116f>@@ABV1@@Z 00438e80 f i JigsawDemo.obj
 0001:00037e90       ??$forward@ABV<lambda_369f3aee610e50bbd15c3a78d9c8686f>@@@std@@YAABV<lambda_369f3aee610e50bbd15c3a78d9c8686f>@@ABV1@@Z 00438e90 f i JigsawDemo.obj
 0001:00037eb0       ??$forward@ABV<lambda_4d3c514b9e5ad6cc29096aa3b57f98f2>@@@std@@YAABV<lambda_4d3c514b9e5ad6cc29096aa3b57f98f2>@@ABV1@@Z 00438eb0 f i JigsawDemo.obj
 0001:00037ee0       ??$forward@ABV<lambda_817584b2460f1bcab806f46a25c321a8>@@@std@@YAABV<lambda_817584b2460f1bcab806f46a25c321a8>@@ABV1@@Z 00438ee0 f i JigsawDemo.obj
 0001:00037ef0       ??$forward@PAPAVDisplayableObject@@@std@@YA$$QAPAPAVDisplayableObject@@AAPAPAV1@@Z 00438ef0 f i JigsawDemo.obj
 0001:00037f00       ??$forward@V<lambda_2870de01b601283699da779de20905fc>@@@std@@YA$$QAV<lambda_2870de01b601283699da779de20905fc>@@AAV1@@Z 00438f00 f i JigsawDemo.obj
 0001:00037f10       ??$forward@V<lambda_341a6657abb2758c42a6873833e6116f>@@@std@@YA$$QAV<lambda_341a6657abb2758c42a6873833e6116f>@@AAV1@@Z 00438f10 f i JigsawDemo.obj
 0001:00037f20       ??$forward@V<lambda_369f3aee610e50bbd15c3a78d9c8686f>@@@std@@YA$$QAV<lambda_369f3aee610e50bbd15c3a78d9c8686f>@@AAV1@@Z 00438f20 f i JigsawDemo.obj
 0001:00037f40       ??$forward@V<lambda_4d3c514b9e5ad6cc29096aa3b57f98f2>@@@std@@YA$$QAV<lambda_4d3c514b9e5ad6cc29096aa3b57f98f2>@@AAV1@@Z 00438f40 f i JigsawDemo.obj
 0001:00037f70       ??$forward@V<lambda_817584b2460f1bcab806f46a25c321a8>@@@std@@YA$$QAV<lambda_817584b2460f1bcab806f46a25c321a8>@@AAV1@@Z 00438f70 f i JigsawDemo.obj
 0001:00037f80       ??$invoke@AAV<lambda_2870de01b601283699da779de20905fc>@@PAVDisplayableObject@@$$V@std@@YAXAAV<lambda_2870de01b601283699da779de20905fc>@@$$QAPAVDisplayableObject@@@Z 00438f80 f i JigsawDemo.obj
 0001:00037fa0       ??$invoke@AAV<lambda_341a6657abb2758c42a6873833e6116f>@@PAVDisplayableObject@@$$V@std@@YAXAAV<lambda_341a6657abb2758c42a6873833e6116f>@@$$QAPAVDisplayableObject@@@Z 00438fa0 f i JigsawDemo.obj
 0001:00037fc0       ??$invoke@AAV<lambda_369f3aee610e50bbd15c3a78d9c8686f>@@PAVDisplayableObject@@$$V@std@@YAXAAV<lambda_369f3aee610e50bbd15c3a78d9c8686f>@@$$QAPAVDisplayableObject@@@Z 00438fc0 f i JigsawDemo.obj
 0001:00038000       ??$invoke@AAV<lambda_4d3c514b9e5ad6cc29096aa3b57f98f2>@@PAVDisplayableObject@@$$V@std@@YAXAAV<lambda_4d3c514b9e5ad6cc29096aa3b57f98f2>@@$$QAPAVDisplayableObject@@@Z 00439000 f i JigsawDemo.obj
 0001:00038060       ??$invoke@AAV<lambda_817584b2460f1bcab806f46a25c321a8>@@PAVDisplayableObject@@$$V@std@@YAXAAV<lambda_817584b2460f1bcab806f46a25c321a8>@@$$QAPAVDisplayableObject@@@Z 00439060 f i JigsawDemo.obj
 0001:00038080       ??$move@AAV<lambda_2870de01b601283699da779de20905fc>@@@std@@YA$$QAV<lambda_2870de01b601283699da779de20905fc>@@AAV1@@Z 00439080 f i JigsawDemo.obj
 0001:00038090       ??$move@AAV<lambda_341a6657abb2758c42a6873833e6116f>@@@std@@YA$$QAV<lambda_341a6657abb2758c42a6873833e6116f>@@AAV1@@Z 00439090 f i JigsawDemo.obj
 0001:000380a0       ??$move@AAV<lambda_369f3aee610e50bbd15c3a78d9c8686f>@@@std@@YA$$QAV<lambda_369f3aee610e50bbd15c3a78d9c8686f>@@AAV1@@Z 004390a0 f i JigsawDemo.obj
 0001:000380c0       ??$move@AAV<lambda_4d3c514b9e5ad6cc29096aa3b57f98f2>@@@std@@YA$$QAV<lambda_4d3c514b9e5ad6cc29096aa3b57f98f2>@@AAV1@@Z 004390c0 f i JigsawDemo.obj
 0001:000380f0       ??$move@AAV<lambda_817584b2460f1bcab806f46a25c321a8>@@@std@@YA$$QAV<lambda_817584b2460f1bcab806f46a25c321a8>@@AAV1@@Z 004390f0 f i JigsawDemo.obj
 0001:00038100       ??$move@AAV?$function@$$A6AXPAVDisplayableObject@@@Z@std@@@std@@YA$$QAV?$function@$$A6AXPAVDisplayableObject@@@Z@0@AAV10@@Z 00439100 f i JigsawDemo.obj
 0001:00038110       ??0<lambda_341a6657abb2758c42a6873833e6116f>@@QAE@QAVJigsawPiece@@@Z 00439110 f i JigsawDemo.obj
 0001:00038130       ??0<lambda_369f3aee610e50bbd15c3a78d9c8686f>@@QAE@QAVJigsawPiece@@@Z 00439130 f i JigsawDemo.obj
 0001:00038150       ??0<lambda_4d3c514b9e5ad6cc29096aa3b57f98f2>@@QAE@QAVJigsawPiece@@@Z 00439150 f i JigsawDemo.obj
 0001:00038170       ??0<lambda_817584b2460f1bcab806f46a25c321a8>@@QAE@QAVJigsawPiece@@@Z 00439170 f i JigsawDemo.obj
 0001:00038190       ??0?$_Func_base@XPAVDisplayableObject@@@std@@QAE@XZ 00439190 f i JigsawDemo.obj
 0001:000381b0       ??0?$_Func_class@XPAVDisplayableObject@@@std@@QAE@XZ 004391b0 f i JigsawDemo.obj
 0001:000381d0       ??0?$function@$$A6AXPAVDisplayableObject@@@Z@std@@QAE@$$QAV01@@Z 004391d0 f i JigsawDemo.obj
 0001:00038210       ??0?$function@$$A6AXPAVDisplayableObject@@@Z@std@@QAE@ABV01@@Z 00439210 f i JigsawDemo.obj
 0001:00038290       ??0JigsawPiece@@QAE@PAU_iobuf@@HHPAVJigsawDemo@@V?$basic_string@DU?$char_traits@D@std@@V?$allocator@D@2@@std@@HH@Z 00439290 f i JigsawDemo.obj
 0001:00038680       ??1?$_Func_class@XPAVDisplayableObject@@@std@@QAE@XZ 00439680 f i JigsawDemo.obj
 0001:000386a0       ??1?$function@$$A6AXPAVDisplayableObject@@@Z@std@@QAE@XZ 004396a0 f i JigsawDemo.obj
 0001:000386c0       ??1JigsawPiece@@UAE@XZ     004396c0 f i JigsawDemo.obj
 0001:000386e0       ??R<lambda_2870de01b601283699da779de20905fc>@@QBE@PAVDisplayableObject@@@Z 004396e0 f i JigsawDemo.obj
 0001:00038710       ??R<lambda_341a6657abb2758c42a6873833e6116f>@@QBE@PAVDisplayableObject@@@Z 00439710 f i JigsawDemo.obj
 0001:00038740       ??R<lambda_369f3aee610e50bbd15c3a78d9c8686f>@@QBE@PAVDisplayableObject@@@Z 00439740 f i JigsawDemo.obj
 0001:00038770       ??R<lambda_4d3c514b9e5ad6cc29096aa3b57f98f2>@@QBE@PAVDisplayableObject@@@Z 00439770 f i JigsawDemo.obj
 0001:000387a0       ??R<lambda_817584b2460f1bcab806f46a25c321a8>@@QBE@PAVDisplayableObject@@@Z 004397a0 f i JigsawDemo.obj
 0001:000387d0       ??R?$_Func_class@XPAVDisplayableObject@@@std@@QBEXPAVDisplayableObject@@@Z 004397d0 f i JigsawDemo.obj
 0001:00038830       ??_GJigsawPiece@@UAEPAXI@Z 00439830 f i JigsawDemo.obj
 0001:00038830       ??_EJigsawPiece@@UAEPAXI@Z 00439830 f i JigsawDemo.obj
 0001:00038870       ?_Copy@?$_Func_impl_no_alloc@V<lambda_2870de01b601283699da779de20905fc>@@XPAVDisplayableObject@@@std@@EBEPAV?$_Func_base@XPAVDisplayableObject@@@2@PAX@Z 00439870 f i JigsawDemo.obj
 0001:000388b0       ?_Copy@?$_Func_impl_no_alloc@V<lambda_341a6657abb2758c42a6873833e6116f>@@XPAVDisplayableObject@@@std@@EBEPAV?$_Func_base@XPAVDisplayableObject@@@2@PAX@Z 004398b0 f i JigsawDemo.obj
 0001:000388f0       ?_Copy@?$_Func_impl_no_alloc@V<lambda_369f3aee610e50bbd15c3a78d9c8686f>@@XPAVDisplayableObject@@@std@@EBEPAV?$_Func_base@XPAVDisplayableObject@@@2@PAX@Z 004398f0 f i JigsawDemo.obj
 0001:00038930       ?_Copy@?$_Func_impl_no_alloc@V<lambda_4d3c514b9e5ad6cc29096aa3b57f98f2>@@XPAVDisplayableObject@@@std@@EBEPAV?$_Func_base@XPAVDisplayableObject@@@2@PAX@Z 00439930 f i JigsawDemo.obj
 0001:00038970       ?_Copy@?$_Func_impl_no_alloc@V<lambda_817584b2460f1bcab806f46a25c321a8>@@XPAVDisplayableObject@@@std@@EBEPAV?$_Func_base@XPAVDisplayableObject@@@2@PAX@Z 00439970 f i JigsawDemo.obj
 0001:000389b0       ?_Delete_this@?$_Func_impl_no_alloc@V<lambda_2870de01b601283699da779de20905fc>@@XPAVDisplayableObject@@@std@@EAEX_N@Z 004399b0 f i JigsawDemo.obj
 0001:000389e0       ?_Delete_this@?$_Func_impl_no_alloc@V<lambda_341a6657abb2758c42a6873833e6116f>@@XPAVDisplayableObject@@@std@@EAEX_N@Z 004399e0 f i JigsawDemo.obj
 0001:00038a10       ?_Delete_this@?$_Func_impl_no_alloc@V<lambda_369f3aee610e50bbd15c3a78d9c8686f>@@XPAVDisplayableObject@@@std@@EAEX_N@Z 00439a10 f i JigsawDemo.obj
 0001:00038a40       ?_Delete_this@?$_Func_impl_no_alloc@V<lambda_4d3c514b9e5ad6cc29096aa3b57f98f2>@@XPAVDisplayableObject@@@std@@EAEX_N@Z 00439a40 f i JigsawDemo.obj
 0001:00038a70       ?_Delete_this@?$_Func_impl_no_alloc@V<lambda_817584b2460f1bcab806f46a25c321a8>@@XPAVDisplayableObject@@@std@@EAEX_N@Z 00439a70 f i JigsawDemo.obj
 0001:00038aa0       ?_Do_call@?$_Func_impl_no_alloc@V<lambda_2870de01b601283699da779de20905fc>@@XPAVDisplayableObject@@@std@@EAEX$$QAPAVDisplayableObject@@@Z 00439aa0 f i JigsawDemo.obj
 0001:00038ae0       ?_Do_call@?$_Func_impl_no_alloc@V<lambda_341a6657abb2758c42a6873833e6116f>@@XPAVDisplayableObject@@@std@@EAEX$$QAPAVDisplayableObject@@@Z 00439ae0 f i JigsawDemo.obj
 0001:00038b20       ?_Do_call@?$_Func_impl_no_alloc@V<lambda_369f3aee610e50bbd15c3a78d9c8686f>@@XPAVDisplayableObject@@@std@@EAEX$$QAPAVDisplayableObject@@@Z 00439b20 f i JigsawDemo.obj
 0001:00038b60       ?_Do_call@?$_Func_impl_no_alloc@V<lambda_4d3c514b9e5ad6cc29096aa3b57f98f2>@@XPAVDisplayableObject@@@std@@EAEX$$QAPAVDisplayableObject@@@Z 00439b60 f i JigsawDemo.obj
 0001:00038ba0       ?_Do_call@?$_Func_impl_no_alloc@V<lambda_817584b2460f1bcab806f46a25c321a8>@@XPAVDisplayableObject@@@std@@EAEX$$QAPAVDisplayableObject@@@Z 00439ba0 f i JigsawDemo.obj
 0001:00038be0       ?_Empty@?$_Func_class@XPAVDisplayableObject@@@std@@IBE_NXZ 00439be0 f i JigsawDemo.obj
 0001:00038c20       ?_Get@?$_Func_impl_no_alloc@V<lambda_2870de01b601283699da779de20905fc>@@XPAVDisplayableObject@@@std@@EBEPBXXZ 00439c20 f i JigsawDemo.obj
 0001:00038c40       ?_Get@?$_Func_impl_no_alloc@V<lambda_341a6657abb2758c42a6873833e6116f>@@XPAVDisplayableObject@@@std@@EBEPBXXZ 00439c40 f i JigsawDemo.obj
 0001:00038c60       ?_Get@?$_Func_impl_no_alloc@V<lambda_369f3aee610e50bbd15c3a78d9c8686f>@@XPAVDisplayableObject@@@std@@EBEPBXXZ 00439c60 f i JigsawDemo.obj
 0001:00038c80       ?_Get@?$_Func_impl_no_alloc@V<lambda_4d3c514b9e5ad6cc29096aa3b57f98f2>@@XPAVDisplayableObject@@@std@@EBEPBXXZ 00439c80 f i JigsawDemo.obj
 0001:00038ca0       ?_Get@?$_Func_impl_no_alloc@V<lambda_817584b2460f1bcab806f46a25c321a8>@@XPAVDisplayableObject@@@std@@EBEPBXXZ 00439ca0 f i JigsawDemo.obj
 0001:00038cc0       ?_Getimpl@?$_Func_class@XPAVDisplayableObject@@@std@@ABEPAV?$_Func_base@XPAVDisplayableObject@@@2@XZ 00439cc0 f i JigsawDemo.obj
 0001:00038ce0       ?_Local@?$_Func_class@XPAVDisplayableObject@@@std@@ABE_NXZ 00439ce0 f i JigsawDemo.obj
 0001:00038d20       ?_Move@?$_Func_impl_no_alloc@V<lambda_2870de01b601283699da779de20905fc>@@XPAVDisplayableObject@@@std@@EAEPAV?$_Func_base@XPAVDisplayableObject@@@2@PAX@Z 00439d20 f i JigsawDemo.obj
 0001:00038da0       ?_Move@?$_Func_impl_no_alloc@V<lambda_341a6657abb2758c42a6873833e6116f>@@XPAVDisplayableObject@@@std@@EAEPAV?$_Func_base@XPAVDisplayableObject@@@2@PAX@Z 00439da0 f i JigsawDemo.obj
 0001:00038e20       ?_Move@?$_Func_impl_no_alloc@V<lambda_369f3aee610e50bbd15c3a78d9c8686f>@@XPAVDisplayableObject@@@std@@EAEPAV?$_Func_base@XPAVDisplayableObject@@@2@PAX@Z 00439e20 f i JigsawDemo.obj
 0001:00038ea0       ?_Move@?$_Func_impl_no_alloc@V<lambda_4d3c514b9e5ad6cc29096aa3b57f98f2>@@XPAVDisplayableObject@@@std@@EAEPAV?$_Func_base@XPAVDisplayableObject@@@2@PAX@Z 00439ea0 f i JigsawDemo.obj
 0001:00038f20       ?_Move@?$_Func_impl_no_alloc@V<lambda_817584b2460f1bcab806f46a25c321a8>@@XPAVDisplayableObject@@@std@@EAEPAV?$_Func_base@XPAVDisplayableObject@@@2@PAX@Z 00439f20 f i JigsawDemo.obj
 0001:00038fa0       ?_Reset_copy@?$_Func_class@XPAVDisplayableObject@@@std@@IAEXABV12@@Z 00439fa0 f i JigsawDemo.obj
 0001:00039000       ?_Reset_move@?$_Func_class@XPAVDisplayableObject@@@std@@IAEX$$QAV12@@Z 0043a000 f i JigsawDemo.obj
 0001:000390a0       ?_Seek_to@?$_Vector_const_iterator@V?$_Vector_val@U?$_Simple_types@PAVDisplayableObject@@@std@@@std@@@std@@QAEXPBQAVDisplayableObject@@@Z 0043a0a0 f i JigsawDemo.obj
 0001:000390d0       ?_Set@?$_Func_class@XPAVDisplayableObject@@@std@@AAEXPAV?$_Func_base@XPAVDisplayableObject@@@2@@Z 0043a0d0 f i JigsawDemo.obj
 0001:00039100       ?_Target_type@?$_Func_impl_no_alloc@V<lambda_2870de01b601283699da779de20905fc>@@XPAVDisplayableObject@@@std@@EBEABVtype_info@@XZ 0043a100 f i JigsawDemo.obj
 0001:00039120       ?_Target_type@?$_Func_impl_no_alloc@V<lambda_341a6657abb2758c42a6873833e6116f>@@XPAVDisplayableObject@@@std@@EBEABVtype_info@@XZ 0043a120 f i JigsawDemo.obj
 0001:00039140       ?_Target_type@?$_Func_impl_no_alloc@V<lambda_369f3aee610e50bbd15c3a78d9c8686f>@@XPAVDisplayableObject@@@std@@EBEABVtype_info@@XZ 0043a140 f i JigsawDemo.obj
 0001:00039160       ?_Target_type@?$_Func_impl_no_alloc@V<lambda_4d3c514b9e5ad6cc29096aa3b57f98f2>@@XPAVDisplayableObject@@@std@@EBEABVtype_info@@XZ 0043a160 f i JigsawDemo.obj
 0001:00039180       ?_Target_type@?$_Func_impl_no_alloc@V<lambda_817584b2460f1bcab806f46a25c321a8>@@XPAVDisplayableObject@@@std@@EBEABVtype_info@@XZ 0043a180 f i JigsawDemo.obj
 0001:000391a0       ?_Tidy@?$_Func_class@XPAVDisplayableObject@@@std@@IAEXXZ 0043a1a0 f i JigsawDemo.obj
 0001:00039220       ?_Unwrapped@?$_Vector_const_iterator@V?$_Vector_val@U?$_Simple_types@PAVDisplayableObject@@@std@@@std@@@std@@QBEPBQAVDisplayableObject@@XZ 0043a220 f i JigsawDemo.obj
 0001:00039240       ?_Unwrapped@?$_Vector_iterator@V?$_Vector_val@U?$_Simple_types@PAVDisplayableObject@@@std@@@std@@@std@@QBEPAPAVDisplayableObject@@XZ 0043a240 f i JigsawDemo.obj
 0001:00039260       ?_Verify_range@std@@YAXABV?$_Vector_const_iterator@V?$_Vector_val@U?$_Simple_types@PAVDisplayableObject@@@std@@@std@@@1@0@Z 0043a260 f i JigsawDemo.obj
 0001:00039360       ?applyToAll@DisplayableObjectContainer@@QBEXV?$function@$$A6AXPAVDisplayableObject@@@Z@std@@@Z 0043a360 f i JigsawDemo.obj
 0001:00039440       ?changeOffset@FilterPointsTranslation@@QAEXHH@Z 0043a440 f i JigsawDemo.obj
 0001:00039480       ?checkForLinksWithOthers@JigsawPiece@@QAEXXZ 0043a480 f i JigsawDemo.obj
 0001:000395a0       ?checkJoinBottom@JigsawPiece@@QAEXPAV1@@Z 0043a5a0 f i JigsawDemo.obj
 0001:00039670       ?checkJoinLeft@JigsawPiece@@QAEXPAV1@@Z 0043a670 f i JigsawDemo.obj
 0001:00039740       ?checkJoinRight@JigsawPiece@@QAEXPAV1@@Z 0043a740 f i JigsawDemo.obj
 0001:00039810       ?checkJoinTop@JigsawPiece@@QAEXPAV1@@Z 0043a810 f i JigsawDemo.obj
 0001:000398e0       ?compress@FilterPointsScaling@@QAEXXZ 0043a8e0 f i JigsawDemo.obj
 0001:00039910       ?compressX@FilterPointsScaling@@QAEXXZ 0043a910 f i JigsawDemo.obj
 0001:00039960       ?compressY@FilterPointsScaling@@QAEXXZ 0043a960 f i JigsawDemo.obj
 0001:000399b0       ?doDragRedraw@JigsawPiece@@UAEXXZ 0043a9b0 f i JigsawDemo.obj
 0001:000399d0       ?getMode@JigsawDemo@@QAE?AW4mode@1@XZ 0043a9d0 f i JigsawDemo.obj
 0001:000399f0       ?getXInImage@JigsawPiece@@QAEHXZ 0043a9f0 f i JigsawDemo.obj
 0001:00039a10       ?getYInImage@JigsawPiece@@QAEHXZ 0043aa10 f i JigsawDemo.obj
 0001:00039a30       ?joinBottom@JigsawPiece@@QAEXPAV1@@Z 0043aa30 f i JigsawDemo.obj
 0001:00039a60       ?joinLeft@JigsawPiece@@QAEXPAV1@@Z 0043aa60 f i JigsawDemo.obj
 0001:00039a90       ?joinRight@JigsawPiece@@QAEXPAV1@@Z 0043aa90 f i JigsawDemo.obj
 0001:00039ac0       ?joinTop@JigsawPiece@@QAEXPAV1@@Z 0043aac0 f i JigsawDemo.obj
 0001:00039af0       ?mapCoordinates@JigsawPiece@@UAE_NAAN0ABVSimpleImage@@@Z 0043aaf0 f i JigsawDemo.obj
 0001:00039cc0       ?moveToLast@DisplayableObjectContainer@@QAE_NPAVDisplayableObject@@@Z 0043acc0 f i JigsawDemo.obj
 0001:00039e40       ?recursiveDrag@JigsawPiece@@UAEXHH@Z 0043ae40 f i JigsawDemo.obj
 0001:00039fa0       ?setFilter@JigsawPiece@@QAEXPAVPieceFilter@@@Z 0043afa0 f i JigsawDemo.obj
 0001:00039fc0       ?setOffset@FilterPointsTranslation@@QAEXHH@Z 0043afc0 f i JigsawDemo.obj
 0001:00039ff0       ?shouldDraw@PieceFilter@@QAE_NHH@Z 0043aff0 f i JigsawDemo.obj
 0001:0003a070       ?stretch@FilterPointsScaling@@QAEXXZ 0043b070 f i JigsawDemo.obj
 0001:0003a0a0       ?stretchX@FilterPointsScaling@@QAEXXZ 0043b0a0 f i JigsawDemo.obj
 0001:0003a0f0       ?stretchY@FilterPointsScaling@@QAEXXZ 0043b0f0 f i JigsawDemo.obj
 0001:0003a140       ?virtDraw@JigsawPiece@@UAEXXZ 0043b140 f i JigsawDemo.obj
 0001:0003a1f0       ?virtMouseDown@JigsawPiece@@UAEXHHH@Z 0043b1f0 f i JigsawDemo.obj
 0001:0003a220       ?virtMouseMoved@JigsawPiece@@UAEXHH@Z 0043b220 f i JigsawDemo.obj
 0001:0003a300       ?virtMouseUp@JigsawPiece@@UAEXHHH@Z 0043b300 f i JigsawDemo.obj
 0001:0003a3c0       ?virtSingleItemMouseDown@JigsawPiece@@UAE_NHHH@Z 0043b3c0 f i JigsawDemo.obj
 0001:0003a530       ?write@JigsawPiece@@QAEXPAU_iobuf@@H@Z 0043b530 f i JigsawDemo.obj
 0001:0003a5a0       ?zoomIn@JigsawDemo@@QAEXXZ 0043b5a0 f i JigsawDemo.obj
 0001:0003a670       ?zoomOut@JigsawDemo@@QAEXXZ 0043b670 f i JigsawDemo.obj
 0001:0003a740       _fprintf                   0043b740 f i JigsawDemo.obj
 0001:0003a780       _SDL_main                  0043b780 f   mainfunction.obj
 0001:0003a7e0       ?doProgram@@YAHHQAPAD@Z    0043b7e0 f   mainfunction.obj
 0001:0003a920       ??0BaseEngine@@QAE@XZ      0043b920 f   BaseEngine.obj
 0001:0003ab60       ??1BaseEngine@@UAE@XZ      0043bb60 f   BaseEngine.obj
 0001:0003abb0       ?initialise@BaseEngine@@QAEHPBDHH0H@Z 0043bbb0 f   BaseEngine.obj
 0001:0003ad00       ?deinitialise@BaseEngine@@QAEXXZ 0043bd00 f   BaseEngine.obj
 0001:0003ad30       ?mainLoop@BaseEngine@@QAEHXZ 0043bd30 f   BaseEngine.obj
 0001:0003ae80       ?handleEvent@BaseEngine@@QAE_NPATSDL_Event@@@Z 0043be80 f   BaseEngine.obj
 0001:0003b4c0       ?isKeyPressed@BaseEngine@@QBE_NH@Z 0043c4c0 f   BaseEngine.obj
 0001:0003b4f0       ?virtKeyUp@BaseEngine@@UAEXH@Z 0043c4f0 f   BaseEngine.obj
 0001:0003b500       ?virtKeyDown@BaseEngine@@UAEXH@Z 0043c500 f   BaseEngine.obj
 0001:0003b510       ?virtMouseMoved@BaseEngine@@UAEXHH@Z 0043c510 f   BaseEngine.obj
 0001:0003b520       ?virtMouseDown@BaseEngine@@UAEXHHH@Z 0043c520 f   BaseEngine.obj
 0001:0003b530       ?virtMouseUp@BaseEngine@@UAEXHHH@Z 0043c530 f   BaseEngine.obj
 0001:0003b540       ?virtInitialise@BaseEngine@@UAEHXZ 0043c540 f   BaseEngine.obj
 0001:0003b590       ?virtCreateWindows@BaseEngine@@UAEXPBD@Z 0043c590 f   BaseEngine.obj
 0001:0003b620       ?virtCreateSurfaces@BaseEngine@@UAEXXZ 0043c620 f   BaseEngine.obj
 0001:0003b670       ?virtCleanUp@BaseEngine@@UAEXXZ 0043c670 f   BaseEngine.obj
 0001:0003b680       ?virtSetupBackgroundBuffer@BaseEngine@@UAEXXZ 0043c680 f   BaseEngine.obj
 0001:0003b6a0       ?virtDrawStringsUnderneath@BaseEngine@@UAEXXZ 0043c6a0 f   BaseEngine.obj
 0001:0003b6b0       ?virtDrawStringsOnTop@BaseEngine@@UAEXXZ 0043c6b0 f   BaseEngine.obj
 0001:0003b6c0       ?virtCheckForUpdateTime@BaseEngine@@UAE_NXZ 0043c6c0 f   BaseEngine.obj
 0001:0003b710       ?virtRenderScreen@BaseEngine@@UAEXXZ 0043c710 f   BaseEngine.obj
 0001:0003b8a0       ?getColour@BaseEngine@@QBEIH@Z 0043c8a0 f   BaseEngine.obj
 0001:0003bae0       ?virtInitialiseObjects@BaseEngine@@UAEHXZ 0043cae0 f   BaseEngine.obj
 0001:0003bb30       ?drawAllObjects@BaseEngine@@UAEXXZ 0043cb30 f   BaseEngine.obj
 0001:0003bcf0       ?updateAllObjects@BaseEngine@@UAEXH@Z 0043ccf0 f   BaseEngine.obj
 0001:0003beb0       _mydebug                   0043ceb0 f   BaseEngine.obj
 0001:0003cb10       ??0FilterPoints@@QAE@XZ    0043db10 f i BaseEngine.obj
 0001:0003cb30       ??D?$_Vector_iterator@V?$_Vector_val@U?$_Simple_types@PAVDisplayableObject@@@std@@@std@@@std@@QBEAAPAVDisplayableObject@@XZ 0043db30 f i BaseEngine.obj
 0001:0003cb50       ??_GBaseEngine@@UAEPAXI@Z  0043db50 f i BaseEngine.obj
 0001:0003cb50       ??_EBaseEngine@@UAEPAXI@Z  0043db50 f i BaseEngine.obj
 0001:0003cb90       ?getHasActed@DisplayableObject@@QBE_NXZ 0043db90 f i BaseEngine.obj
 0001:0003cbb0       ?isTimeToAct@BaseEngine@@QBE_NXZ 0043dbb0 f i BaseEngine.obj
 0001:0003cbf0       ?mySDLUpdateTexture@DrawingSurface@@QAEXPAUSDL_Texture@@@Z 0043dbf0 f i BaseEngine.obj
 0001:0003cc30       ?setHasActed@DisplayableObject@@QAEX_N@Z 0043dc30 f i BaseEngine.obj
 0001:0003cc50       ?setTimeToAct@BaseEngine@@QAEXH@Z 0043dc50 f i BaseEngine.obj
 0001:0003cc80       ?symbolToKeycode@BaseEngine@@SAHH@Z 0043dc80 f i BaseEngine.obj
 0001:0003d170       ?virtMainLoopDoBeforeUpdate@BaseEngine@@UAEXXZ 0043e170 f i BaseEngine.obj
 0001:0003d180       ??0DisplayableObject@@QAE@PAVBaseEngine@@HH_N@Z 0043e180 f   DisplayableObject.obj
 0001:0003d240       ??0DisplayableObject@@QAE@HHPAVBaseEngine@@HH_N@Z 0043e240 f   DisplayableObject.obj
 0001:0003d300       ??1DisplayableObject@@UAE@XZ 0043e300 f   DisplayableObject.obj
 0001:0003d320       ?virtDraw@DisplayableObject@@UAEXXZ 0043e320 f   DisplayableObject.obj
 0001:0003d3c0       ?virtDoUpdate@DisplayableObject@@UAEXH@Z 0043e3c0 f   DisplayableObject.obj
 0001:0003d3d0       ?redrawDisplay@DisplayableObject@@QAEXXZ 0043e3d0 f   DisplayableObject.obj
 0001:0003d3f0       ?redrawRectangle@DisplayableObject@@QAEXXZ 0043e3f0 f   DisplayableObject.obj
 0001:0003d430       ?virtIsObjectInRedrawArea@DisplayableObject@@QAE_NXZ 0043e430 f   DisplayableObject.obj
 0001:0003d4d0       ?fixPosition@DisplayableObject@@QAEXXZ 0043e4d0 f   DisplayableObject.obj
 0001:0003d6a0       ??_GDisplayableObject@@UAEPAXI@Z 0043e6a0 f i DisplayableObject.obj
 0001:0003d6a0       ??_EDisplayableObject@@UAEPAXI@Z 0043e6a0 f i DisplayableObject.obj
 0001:0003d6e0       ?convertVirtualPixelToClickedXPosition@BaseEngine@@QAEHH@Z 0043e6e0 f i DisplayableObject.obj
 0001:0003d710       ?convertVirtualPixelToClickedYPosition@BaseEngine@@QAEHH@Z 0043e710 f i DisplayableObject.obj
 0001:0003d740       ?convertVirtualToRealXPosition@DrawingSurface@@QAEHH@Z 0043e740 f i DisplayableObject.obj
 0001:0003d780       ?convertVirtualToRealYPosition@DrawingSurface@@QAEHH@Z 0043e780 f i DisplayableObject.obj
 0001:0003d7c0       ?redrawRectangle@BaseEngine@@QAEXHHHH@Z 0043e7c0 f i DisplayableObject.obj
 0001:0003d930       ?setForegroundPixel@BaseEngine@@QAEXHHI@Z 0043e930 f i DisplayableObject.obj
 0001:0003d960       ??0FontManager@@QAE@XZ     0043e960 f   FontManager.obj
 0001:0003d9d0       ??1FontManager@@QAE@XZ     0043e9d0 f   FontManager.obj
 0001:0003da40       ?getFont@FontManager@@QAEPAVFont@@PBDH@Z 0043ea40 f   FontManager.obj
 0001:0003dbe0       ?loadFonts@FontManager@@QAEXXZ 0043ebe0 f   FontManager.obj
 0001:0003dd10       ??$growArrayOfObjects@PAVFont@@@@YAPAPAVFont@@PAPAV0@AAHH@Z 0043ed10 f i FontManager.obj
 0001:0003ddd0       ??0Font@@QAE@PBDH@Z        0043edd0 f i FontManager.obj
 0001:0003de50       ??1Font@@QAE@XZ            0043ee50 f i FontManager.obj
 0001:0003ded0       ??_GFont@@QAEPAXI@Z        0043eed0 f i FontManager.obj
 0001:0003df10       ?getName@Font@@QAEPBDXZ    0043ef10 f i FontManager.obj
 0001:0003df30       ?getSize@Font@@QAEHXZ      0043ef30 f i FontManager.obj
 0001:0003df50       ?virtSetupBackgroundBuffer@MyDemoA@@UAEXXZ 0043ef50 f   MyDemoA.obj
 0001:0003e190       ?virtMouseDown@MyDemoA@@UAEXHHH@Z 0043f190 f   MyDemoA.obj
 0001:0003e2e0       ?virtKeyDown@MyDemoA@@UAEXH@Z 0043f2e0 f   MyDemoA.obj
 0001:0003e330       ?virtInitialiseObjects@MyDemoA@@UAEHXZ 0043f330 f   MyDemoA.obj
 0001:0003e510       ?drawBackgroundOval@BaseEngine@@QAEXHHHHI@Z 0043f510 f i MyDemoA.obj
 0001:0003e550       ?getMapValue@TileManager@@QBEHHH@Z 0043f550 f i MyDemoA.obj
 0001:0003e580       ?getMapXForScreenX@TileManager@@QBEHH@Z 0043f580 f i MyDemoA.obj
 0001:0003e5b0       ?getMapYForScreenY@TileManager@@QBEHH@Z 0043f5b0 f i MyDemoA.obj
 0001:0003e5e0       ?getTileHeight@TileManager@@QBEHXZ 0043f5e0 f i MyDemoA.obj
 0001:0003e600       ?getTileWidth@TileManager@@QBEHXZ 0043f600 f i MyDemoA.obj
 0001:0003e620       ?isValidTilePosition@TileManager@@QBE_NHH@Z 0043f620 f i MyDemoA.obj
 0001:0003e6b0       ?setAndRedrawMapValueAt@TileManager@@QAEXHHHPAVBaseEngine@@PAVDrawingSurface@@@Z 0043f6b0 f i MyDemoA.obj
 0001:0003e750       ?setMapValue@TileManager@@QAEHHHH@Z 0043f750 f i MyDemoA.obj
 0001:0003e790       ??0MyObjectB@@QAE@PAVBaseEngine@@@Z 0043f790 f   MyObjectB.obj
 0001:0003e7f0       ?virtDraw@MyObjectB@@UAEXXZ 0043f7f0 f   MyObjectB.obj
 0001:0003e840       ?virtDoUpdate@MyObjectB@@UAEXH@Z 0043f840 f   MyObjectB.obj
 0001:0003ea20       ??1MyObjectB@@UAE@XZ       0043fa20 f i MyObjectB.obj
 0001:0003ea40       ??_EMyObjectB@@UAEPAXI@Z   0043fa40 f i MyObjectB.obj
 0001:0003ea40       ??_GMyObjectB@@UAEPAXI@Z   0043fa40 f i MyObjectB.obj
 0001:0003ea80       ?virtDrawTileAt@MyTileManager@@UBEXPAVBaseEngine@@PAVDrawingSurface@@HHHH@Z 0043fa80 f   MyTileManager.obj
 0001:0003eb20       ?virtInitialise@PlayingCardsDemo@@UAEHXZ 0043fb20 f   PlayingCardsDemo.obj
 0001:0003eb70       ?virtSetupBackgroundBuffer@PlayingCardsDemo@@UAEXXZ 0043fb70 f   PlayingCardsDemo.obj
 0001:0003eb90       ?virtInitialiseObjects@PlayingCardsDemo@@UAEHXZ 0043fb90 f   PlayingCardsDemo.obj
 0001:0003f1f0       ?virtMouseDown@PlayingCardsDemo@@UAEXHHH@Z 004401f0 f   PlayingCardsDemo.obj
 0001:0003f210       ?virtKeyDown@PlayingCardsDemo@@UAEXH@Z 00440210 f   PlayingCardsDemo.obj
 0001:0003f310       ?virtKeyUp@PlayingCardsDemo@@UAEXH@Z 00440310 f   PlayingCardsDemo.obj
 0001:0003f330       ?virtMouseWheel@PlayingCardsDemo@@UAEXHHHH@Z 00440330 f   PlayingCardsDemo.obj
 0001:0003f630       ??$?8VRawImageData@@@std@@YA_NABV?$shared_ptr@VRawImageData@@@0@$$T@Z 00440630 f i PlayingCardsDemo.obj
 0001:0003f660       ??$_Random_shuffle1@V?$_Vector_iterator@V?$_Vector_val@U?$_Simple_types@PAVDisplayableObject@@@std@@@std@@@std@@V?$_Rng_from_urng@HU_Rand_urng_from_func@std@@@2@@std@@YAXV?$_Vector_iterator@V?$_Vector_val@U?$_Simple_types@PAVDisplayableObject@@@std@@@std@@@0@0AAV?$_Rng_from_urng@HU_Rand_urng_from_func@std@@@0@@Z 00440660 f i PlayingCardsDemo.obj
 0001:0003f830       ??$for_each@V?$_Vector_const_iterator@V?$_Vector_val@U?$_Simple_types@PAVDisplayableObject@@@std@@@std@@@std@@V<lambda_30e6a374895662ded208c9cbe5dce392>@@@std@@YA?AV<lambda_30e6a374895662ded208c9cbe5dce392>@@V?$_Vector_const_iterator@V?$_Vector_val@U?$_Simple_types@PAVDisplayableObject@@@std@@@std@@@0@0V1@@Z 00440830 f i PlayingCardsDemo.obj
 0001:0003f920       ??$for_each@V?$_Vector_iterator@V?$_Vector_val@U?$_Simple_types@PAVDisplayableObject@@@std@@@std@@@std@@V<lambda_357b4ee994050758da51b6d8503d100a>@@@std@@YA?AV<lambda_357b4ee994050758da51b6d8503d100a>@@V?$_Vector_iterator@V?$_Vector_val@U?$_Simple_types@PAVDisplayableObject@@@std@@@std@@@0@0V1@@Z 00440920 f i PlayingCardsDemo.obj
 0001:0003fa10       ??$iter_swap@PAPAVDisplayableObject@@PAPAV1@@std@@YAXPAPAVDisplayableObject@@0@Z 00440a10 f i PlayingCardsDemo.obj
 0001:0003fa30       ??$random_shuffle@V?$_Vector_iterator@V?$_Vector_val@U?$_Simple_types@PAVDisplayableObject@@@std@@@std@@@std@@@std@@YAXV?$_Vector_iterator@V?$_Vector_val@U?$_Simple_types@PAVDisplayableObject@@@std@@@std@@@0@0@Z 00440a30 f i PlayingCardsDemo.obj
 0001:0003fae0       ??$shuffle@V?$_Vector_iterator@V?$_Vector_val@U?$_Simple_types@PAVDisplayableObject@@@std@@@std@@@std@@AAU_Rand_urng_from_func@2@@std@@YAXV?$_Vector_iterator@V?$_Vector_val@U?$_Simple_types@PAVDisplayableObject@@@std@@@std@@@0@0AAU_Rand_urng_from_func@0@@Z 00440ae0 f i PlayingCardsDemo.obj
 0001:0003fba0       ??$swap@PAVDisplayableObject@@$0A@@std@@YAXAAPAVDisplayableObject@@0@Z 00440ba0 f i PlayingCardsDemo.obj
 0001:0003fbf0       ??0<lambda_30e6a374895662ded208c9cbe5dce392>@@QAE@ABH00@Z 00440bf0 f i PlayingCardsDemo.obj
 0001:0003fc30       ??0<lambda_357b4ee994050758da51b6d8503d100a>@@QAE@ABH00@Z 00440c30 f i PlayingCardsDemo.obj
 0001:0003fc70       ??0?$_Rng_from_urng@HU_Rand_urng_from_func@std@@@std@@QAE@AAU_Rand_urng_from_func@1@@Z 00440c70 f i PlayingCardsDemo.obj
 0001:0003fcf0       ??0CardContainer@@QAE@PAVBaseEngine@@HHV?$basic_string@DU?$char_traits@D@std@@V?$allocator@D@2@@std@@@Z 00440cf0 f i PlayingCardsDemo.obj
 0001:0003fdf0       ??0CardOrTile@@QAE@PAVBaseEngine@@HHV?$basic_string@DU?$char_traits@D@std@@V?$allocator@D@2@@std@@HHHH1HHHHHHH_N2@Z 00440df0 f i PlayingCardsDemo.obj
 0001:0003ffe0       ??0CardOrTile@@QAE@PAVBaseEngine@@HHV?$basic_string@DU?$char_traits@D@std@@V?$allocator@D@2@@std@@H_N2@Z 00440fe0 f i PlayingCardsDemo.obj
 0001:00040200       ??0DragableToken@@QAE@PAVBaseEngine@@HHH_N@Z 00441200 f i PlayingCardsDemo.obj
 0001:000402d0       ??0DragableTokenContainer@@QAE@HHPAVBaseEngine@@HH_N1@Z 004412d0 f i PlayingCardsDemo.obj
 0001:000403b0       ??0ImagePixelMappingRotate@@QAE@N@Z 004413b0 f i PlayingCardsDemo.obj
 0001:000403f0       ??0ImagePixelMappingRotateAndColour@@QAE@XZ 004413f0 f i PlayingCardsDemo.obj
 0001:000404b0       ??0TokenTray@@QAE@PAVBaseEngine@@HH@Z 004414b0 f i PlayingCardsDemo.obj
 0001:00040500       ??1CardContainer@@UAE@XZ   00441500 f i PlayingCardsDemo.obj
 0001:00040550       ??1CardOrTile@@UAE@XZ      00441550 f i PlayingCardsDemo.obj
 0001:000405b0       ??1DragableToken@@UAE@XZ   004415b0 f i PlayingCardsDemo.obj
 0001:000405d0       ??1DragableTokenContainer@@UAE@XZ 004415d0 f i PlayingCardsDemo.obj
 0001:00040600       ??1ImagePixelMappingRotateAndColour@@UAE@XZ 00441600 f i PlayingCardsDemo.obj
 0001:00040620       ??1TokenTray@@UAE@XZ       00441620 f i PlayingCardsDemo.obj
 0001:00040650       ??R<lambda_30e6a374895662ded208c9cbe5dce392>@@QBE@PAVDisplayableObject@@@Z 00441650 f i PlayingCardsDemo.obj
 0001:000406a0       ??R<lambda_357b4ee994050758da51b6d8503d100a>@@QBE@PAVDisplayableObject@@@Z 004416a0 f i PlayingCardsDemo.obj
 0001:000406f0       ??R?$_Rng_from_urng@HU_Rand_urng_from_func@std@@@std@@QAEHH@Z 004416f0 f i PlayingCardsDemo.obj
 0001:000407d0       ??R_Rand_urng_from_func@std@@QAEIXZ 004417d0 f i PlayingCardsDemo.obj
 0001:000407e5       ??_ECardContainer@@WDM@AEPAXI@Z 004417e5 f i PlayingCardsDemo.obj
 0001:000407ef       ??_ECardOrTile@@WDM@AEPAXI@Z 004417ef f i PlayingCardsDemo.obj
 0001:000407f9       ??_EDragableTokenContainer@@WDM@AEPAXI@Z 004417f9 f i PlayingCardsDemo.obj
 0001:00040803       ??_ETokenTray@@WDM@AEPAXI@Z 00441803 f i PlayingCardsDemo.obj
 0001:00040810       ??_GCardContainer@@UAEPAXI@Z 00441810 f i PlayingCardsDemo.obj
 0001:00040810       ??_ECardContainer@@UAEPAXI@Z 00441810 f i PlayingCardsDemo.obj
 0001:00040850       ??_ECardOrTile@@UAEPAXI@Z  00441850 f i PlayingCardsDemo.obj
 0001:00040850       ??_GCardOrTile@@UAEPAXI@Z  00441850 f i PlayingCardsDemo.obj
 0001:00040890       ??_GDragableToken@@UAEPAXI@Z 00441890 f i PlayingCardsDemo.obj
 0001:00040890       ??_EDragableToken@@UAEPAXI@Z 00441890 f i PlayingCardsDemo.obj
 0001:000408d0       ??_EDragableTokenContainer@@UAEPAXI@Z 004418d0 f i PlayingCardsDemo.obj
 0001:000408d0       ??_GDragableTokenContainer@@UAEPAXI@Z 004418d0 f i PlayingCardsDemo.obj
 0001:00040910       ??_EImagePixelMappingRotateAndColour@@UAEPAXI@Z 00441910 f i PlayingCardsDemo.obj
 0001:00040910       ??_GImagePixelMappingRotateAndColour@@UAEPAXI@Z 00441910 f i PlayingCardsDemo.obj
 0001:00040950       ??_ETokenTray@@UAEPAXI@Z   00441950 f i PlayingCardsDemo.obj
 0001:00040950       ??_GTokenTray@@UAEPAXI@Z   00441950 f i PlayingCardsDemo.obj
 0001:00040990       ?_Get_bits@?$_Rng_from_urng@HU_Rand_urng_from_func@std@@@std@@AAEIXZ 00441990 f i PlayingCardsDemo.obj
 0001:000409e0       ?addCardToContainer@CardContainer@@QAE_NPAVCardOrTile@@_N@Z 004419e0 f i PlayingCardsDemo.obj
 0001:00040a30       ?bringToFront@CardOrTile@@UAEXXZ 00441a30 f i PlayingCardsDemo.obj
 0001:00040a70       ?bringToFront@DragableTokenContainer@@UAEXXZ 00441a70 f i PlayingCardsDemo.obj
 0001:00040aa0       ?changePixelColour@ImagePixelMappingRotateAndColour@@UAE_NHHAAHPAVDrawingSurface@@@Z 00441aa0 f i PlayingCardsDemo.obj
 0001:00040e80       ?checkForAndHandleTokenClick@DragableTokenContainer@@QAE_NHH@Z 00441e80 f i PlayingCardsDemo.obj
 0001:00040f20       ?clear@?$vector@PAVDisplayableObject@@V?$allocator@PAVDisplayableObject@@@std@@@std@@QAEXXZ 00441f20 f i PlayingCardsDemo.obj
 0001:00040fc0       ?createToken@TokenTray@@QAEXIHH@Z 00441fc0 f i PlayingCardsDemo.obj
 0001:000410a0       ?destroyable@DragableToken@@UAE_NXZ 004420a0 f i PlayingCardsDemo.obj
 0001:000410b0       ?doDragRedraw@DragableTokenContainer@@UAEXXZ 004420b0 f i PlayingCardsDemo.obj
 0001:000410d0       ?drawForegroundLine@BaseEngine@@QAEXHHHHI@Z 004420d0 f i PlayingCardsDemo.obj
 0001:00041140       ?drawTokensOnItem@DragableTokenContainer@@QAEXXZ 00442140 f i PlayingCardsDemo.obj
 0001:00041250       ?getFont@BaseEngine@@QAEPAVFont@@PBDH@Z 00442250 f i PlayingCardsDemo.obj
 0001:00041280       ?getPixel@DrawingSurface@@QAEIHH@Z 00442280 f i PlayingCardsDemo.obj
 0001:000412f0       ?getTopCardFromContainer@CardContainer@@QAEPAVDisplayableObject@@_N@Z 004422f0 f i PlayingCardsDemo.obj
 0001:000413c0       ?getTopObjectForNotifyValue@DisplayableObjectContainer@@QBEPAVDisplayableObject@@HHHH@Z 004423c0 f i PlayingCardsDemo.obj
 0001:00041480       ?handleTokenWasClicked@DragableToken@@QAEXXZ 00442480 f i PlayingCardsDemo.obj
 0001:00041500       ?mapCoordinates@ImagePixelMappingRotate@@UAE_NAAN0ABVSimpleImage@@@Z 00442500 f i PlayingCardsDemo.obj
 0001:000417f0       ?mapCoordinates@ImagePixelMappingRotateAndColour@@UAE_NAAN0ABVSimpleImage@@@Z 004427f0 f i PlayingCardsDemo.obj
 0001:00041b10       ?max@_Rand_urng_from_func@std@@SAIXZ 00442b10 f i PlayingCardsDemo.obj
 0001:00041b20       ?min@_Rand_urng_from_func@std@@SAIXZ 00442b20 f i PlayingCardsDemo.obj
 0001:00041b30       ?notifyAllObjects@DisplayableObjectContainer@@QBEXHHH@Z 00442b30 f i PlayingCardsDemo.obj
 0001:00041bc0       ?notifyTopObjectAboutMouseClick@BaseEngine@@QAEX_N@Z 00442bc0 f i PlayingCardsDemo.obj
 0001:00041be0       ?rawGetPixel@DrawingSurface@@QBEIHH@Z 00442be0 f i PlayingCardsDemo.obj
 0001:00041c50       ?readyBackImage@CardOrTile@@QAEXXZ 00442c50 f i PlayingCardsDemo.obj
 0001:00041f30       ?readyFrontImage@CardOrTile@@QAEXXZ 00442f30 f i PlayingCardsDemo.obj
 0001:000421f0       ?removeDisplayableObject@DisplayableObjectContainer@@QAE_NPAVDisplayableObject@@@Z 004431f0 f i PlayingCardsDemo.obj
 0001:00042300       ?removeTopCardFromContainer@CardContainer@@QAEPAVDisplayableObject@@_N@Z 00443300 f i PlayingCardsDemo.obj
 0001:00042380       ?setDefaultColour@DisplayableObject@@QAEXH@Z 00443380 f i PlayingCardsDemo.obj
 0001:000423a0       ?setPosition@DragableTokenContainer@@UAEXHH@Z 004433a0 f i PlayingCardsDemo.obj
 0001:00042400       ?setTransparencyColour@ImagePixelMappingRotateAndColour@@QAEXH@Z 00443400 f i PlayingCardsDemo.obj
 0001:00042420       ?setTransparencyPixel@CardOrTile@@QAEXHH@Z 00443420 f i PlayingCardsDemo.obj
 0001:00042460       ?showCorrectImage@CardOrTile@@QAEXXZ 00443460 f i PlayingCardsDemo.obj
 0001:000424a0       ?shuffle@DisplayableObjectContainer@@QAEXXZ 004434a0 f i PlayingCardsDemo.obj
 0001:000424f0       ?updateTransparency@CardOrTile@@QAEXXZ 004434f0 f i PlayingCardsDemo.obj
 0001:000427b0       ?virtDraw@CardContainer@@UAEXXZ 004437b0 f i PlayingCardsDemo.obj
 0001:00042ea0       ?virtDraw@CardOrTile@@UAEXXZ 00443ea0 f i PlayingCardsDemo.obj
 0001:00043190       ?virtDraw@DragableToken@@UAEXXZ 00444190 f i PlayingCardsDemo.obj
 0001:000434f0       ?virtDraw@DragableTokenContainer@@UAEXXZ 004444f0 f i PlayingCardsDemo.obj
 0001:000436e0       ?virtDraw@TokenTray@@UAEXXZ 004446e0 f i PlayingCardsDemo.obj
 0001:00043c50       ?virtMouseDown@DragableToken@@UAEXHHH@Z 00444c50 f i PlayingCardsDemo.obj
 0001:00043c60       ?virtMouseDown@DragableTokenContainer@@UAEXHHH@Z 00444c60 f i PlayingCardsDemo.obj
 0001:00043d10       ?virtMouseMoved@DragableToken@@UAEXHH@Z 00444d10 f i PlayingCardsDemo.obj
 0001:00043d80       ?virtMouseMoved@DragableTokenContainer@@UAEXHH@Z 00444d80 f i PlayingCardsDemo.obj
 0001:00043e00       ?virtMouseUp@CardContainer@@UAEXHHH@Z 00444e00 f i PlayingCardsDemo.obj
 0001:00043e50       ?virtMouseUp@CardOrTile@@UAEXHHH@Z 00444e50 f i PlayingCardsDemo.obj
 0001:00043f40       ?virtMouseUp@DragableToken@@UAEXHHH@Z 00444f40 f i PlayingCardsDemo.obj
 0001:00044140       ?virtMouseUp@DragableTokenContainer@@UAEXHHH@Z 00445140 f i PlayingCardsDemo.obj
 0001:000441e0       ?virtNotify@CardContainer@@UAEJHHH@Z 004451e0 f i PlayingCardsDemo.obj
 0001:00044260       ?virtNotify@DragableToken@@UAEJHHH@Z 00445260 f i PlayingCardsDemo.obj
 0001:00044360       ?virtNotify@DragableTokenContainer@@UAEJHHH@Z 00445360 f i PlayingCardsDemo.obj
 0001:000443c0       ?virtSingleItemMouseDown@CardContainer@@UAE_NHHH@Z 004453c0 f i PlayingCardsDemo.obj
 0001:000445e0       ?virtSingleItemMouseDown@CardOrTile@@UAE_NHHH@Z 004455e0 f i PlayingCardsDemo.obj
 0001:00044780       ?virtSingleItemMouseDown@DragableToken@@UAE_NHHH@Z 00445780 f i PlayingCardsDemo.obj
 0001:00044830       ?virtSingleItemMouseDown@DragableTokenContainer@@UAE_NHHH@Z 00445830 f i PlayingCardsDemo.obj
 0001:000448c0       ?virtSingleItemMouseDown@TokenTray@@UAE_NHHH@Z 004458c0 f i PlayingCardsDemo.obj
 0001:00044c00       ??0SimpleImage@@QAE@XZ     00445c00 f   SimpleImage.obj
 0001:00044c30       ??0SimpleImage@@QAE@V?$shared_ptr@VRawImageData@@@std@@@Z 00445c30 f   SimpleImage.obj
 0001:00044c70       ?exists@SimpleImage@@QBE_NXZ 00445c70 f   SimpleImage.obj
 0001:00044c90       ?renderImage@SimpleImage@@QBEXPAVDrawingSurface@@HHHHHH@Z 00445c90 f   SimpleImage.obj
 0001:00044da0       ?renderImageWithMask@SimpleImage@@QBEXPAVDrawingSurface@@HHHHHHH@Z 00445da0 f   SimpleImage.obj
 0001:00044ee0       ?renderImageWithMaskAndTransparency@SimpleImage@@QBEXPAVDrawingSurface@@HHHHHHHH@Z 00445ee0 f   SimpleImage.obj
 0001:000450b0       ?renderImageBlit@SimpleImage@@QAEXPAVBaseEngine@@PAVDrawingSurface@@HHHHHHHH@Z 004460b0 f   SimpleImage.obj
 0001:00045360       ?adjustXYWidthHeight@SimpleImage@@SA_NPAVDrawingSurface@@AAH11111@Z 00446360 f   SimpleImage.obj
 0001:00045560       ?renderImageApplyingMapping@SimpleImage@@QBEXPAVBaseEngine@@PAVDrawingSurface@@HHHHPAVImagePixelMapping@@@Z 00446560 f   SimpleImage.obj
 0001:00045b70       ??BDrawingSurface@@QAEPAUSDL_Surface@@XZ 00446b70 f i SimpleImage.obj
 0001:00045b90       ?getSurface@RawImageData@@QAEPAUSDL_Surface@@XZ 00446b90 f i SimpleImage.obj
 0001:00045bb0       ?virtSetupBackgroundBuffer@SimpleDemo@@UAEXXZ 00446bb0 f   SimpleDemo.obj
 0001:00045cf0       ?virtInitialiseObjects@SimpleDemo@@UAEHXZ 00446cf0 f   SimpleDemo.obj
 0001:00045e70       ?virtDrawStringsUnderneath@SimpleDemo@@UAEXXZ 00446e70 f   SimpleDemo.obj
 0001:00045ef0       ?virtDrawStringsOnTop@SimpleDemo@@UAEXXZ 00446ef0 f   SimpleDemo.obj
 0001:00045fb0       ?virtMouseDown@SimpleDemo@@UAEXHHH@Z 00446fb0 f   SimpleDemo.obj
 0001:00045fd0       ?virtKeyDown@SimpleDemo@@UAEXH@Z 00446fd0 f   SimpleDemo.obj
 0001:00046140       ??0BouncingObject@@QAE@PAVBaseEngine@@HHNNNN@Z 00447140 f i SimpleDemo.obj
 0001:00046210       ??1BouncingObject@@UAE@XZ  00447210 f i SimpleDemo.obj
 0001:00046230       ??_GBouncingObject@@UAEPAXI@Z 00447230 f i SimpleDemo.obj
 0001:00046230       ??_EBouncingObject@@UAEPAXI@Z 00447230 f i SimpleDemo.obj
 0001:00046270       ?virtDoUpdate@BouncingObject@@UAEXH@Z 00447270 f i SimpleDemo.obj
 0001:00046670       ?virtDraw@BouncingObject@@UAEXXZ 00447670 f i SimpleDemo.obj
 0001:00046710       ??0StarfieldDemo@@QAE@XZ   00447710 f   StarfieldDemo.obj
 0001:00046750       ??1StarfieldDemo@@UAE@XZ   00447750 f   StarfieldDemo.obj
 0001:00046780       ?virtSetupBackgroundBuffer@StarfieldDemo@@UAEXXZ 00447780 f   StarfieldDemo.obj
 0001:000468c0       ?virtMainLoopDoBeforeUpdate@StarfieldDemo@@UAEXXZ 004478c0 f   StarfieldDemo.obj
 0001:00046900       ?copyAllBackgroundBuffer@StarfieldDemo@@UAEXXZ 00447900 f   StarfieldDemo.obj
 0001:00046a40       ??_EStarfieldDemo@@UAEPAXI@Z 00447a40 f i StarfieldDemo.obj
 0001:00046a40       ??_GStarfieldDemo@@UAEPAXI@Z 00447a40 f i StarfieldDemo.obj
 0001:00046a80       ?drawAllTiles@TileManager@@QBEXPAVBaseEngine@@PAVDrawingSurface@@@Z 00447a80 f   TileManager.obj
 0001:00046b20       ?drawSomeTiles@TileManager@@QBEXPAVBaseEngine@@PAVDrawingSurface@@HHHH@Z 00447b20 f   TileManager.obj
 0001:00046bc0       ?virtDrawTileAt@TileManager@@UBEXPAVBaseEngine@@PAVDrawingSurface@@HHHH@Z 00447bc0 f   TileManager.obj
 0001:00046cb0       ??0BouncingBall@@QAE@PAVBouncingBallMain@@HHHHPBDHH@Z 00447cb0 f   BouncingBall.obj
 0001:00046d80       ??1BouncingBall@@UAE@XZ    00447d80 f   BouncingBall.obj
 0001:00046da0       ?virtDraw@BouncingBall@@UAEXXZ 00447da0 f   BouncingBall.obj
 0001:00047070       ?virtDoUpdate@BouncingBall@@UAEXH@Z 00448070 f   BouncingBall.obj
 0001:00047090       ??0BouncingBall1@@QAE@PAVBouncingBallMain@@HHHHPBDHHPAVTileManager@@@Z 00448090 f   BouncingBall.obj
 0001:00047130       ?setMovement@BouncingBall1@@QAEXHHHHHHH@Z 00448130 f   BouncingBall.obj
 0001:000471a0       ?virtDoUpdate@BouncingBall1@@UAEXH@Z 004481a0 f   BouncingBall.obj
 0001:00047310       ??0BouncingBall2@@QAE@PAVBouncingBallMain@@HHHHPBDHH@Z 00448310 f   BouncingBall.obj
 0001:00047390       ?setPosition@BouncingBall2@@QAEXNN@Z 00448390 f   BouncingBall.obj
 0001:000473c0       ?setSpeed@BouncingBall2@@QAEXNN@Z 004483c0 f   BouncingBall.obj
 0001:000473f0       ?virtDoUpdate@BouncingBall2@@UAEXH@Z 004483f0 f   BouncingBall.obj
 0001:000479e0       ??0MovementPosition@@QAE@XZ 004489e0 f i BouncingBall.obj
 0001:00047a60       ??1BouncingBall1@@UAE@XZ   00448a60 f i BouncingBall.obj
 0001:00047a80       ??1BouncingBall2@@UAE@XZ   00448a80 f i BouncingBall.obj
 0001:00047aa0       ??_EBouncingBall1@@UAEPAXI@Z 00448aa0 f i BouncingBall.obj
 0001:00047aa0       ??_GBouncingBall1@@UAEPAXI@Z 00448aa0 f i BouncingBall.obj
 0001:00047ae0       ??_GBouncingBall2@@UAEPAXI@Z 00448ae0 f i BouncingBall.obj
 0001:00047ae0       ??_EBouncingBall2@@UAEPAXI@Z 00448ae0 f i BouncingBall.obj
 0001:00047b20       ??_GBouncingBall@@UAEPAXI@Z 00448b20 f i BouncingBall.obj
 0001:00047b20       ??_EBouncingBall@@UAEPAXI@Z 00448b20 f i BouncingBall.obj
 0001:00047b60       ?calculate@MovementPosition@@QAEXH@Z 00448b60 f i BouncingBall.obj
 0001:00047c50       ?getX@MovementPosition@@QBEHXZ 00448c50 f i BouncingBall.obj
 0001:00047c70       ?getY@MovementPosition@@QBEHXZ 00448c70 f i BouncingBall.obj
 0001:00047c90       ?hasMovementFinished@MovementPosition@@QBE_NH@Z 00448c90 f i BouncingBall.obj
 0001:00047cd0       ?reverse@MovementPosition@@QAEXXZ 00448cd0 f i BouncingBall.obj
 0001:00047d60       ?setup@MovementPosition@@QAEXHHHHHH@Z 00448d60 f i BouncingBall.obj
 0001:00047dd0       ?virtMouseDown@BouncingBall@@UAEXHHH@Z 00448dd0 f i BouncingBall.obj
 0001:00047e10       ?virtSetupBackgroundBuffer@BouncingBallMain@@UAEXXZ 00448e10 f   BouncingBallMain.obj
 0001:00048a60       ?virtInitialiseObjects@BouncingBallMain@@UAEHXZ 00449a60 f   BouncingBallMain.obj
 0001:00048d30       ?virtDrawStringsUnderneath@BouncingBallMain@@UAEXXZ 00449d30 f   BouncingBallMain.obj
 0001:00048d70       ?virtMouseDown@BouncingBallMain@@UAEXHHH@Z 00449d70 f   BouncingBallMain.obj
 0001:00048db0       ?virtKeyDown@BouncingBallMain@@UAEXH@Z 00449db0 f   BouncingBallMain.obj
 0001:000491d0       ??0ImagePixelMappingRotateAndColour@@QAE@NHH@Z 0044a1d0 f i BouncingBallMain.obj
 0001:00049290       ?drawBackgroundLine@BaseEngine@@QAEXHHHHI@Z 0044a290 f i BouncingBallMain.obj
 0001:00049300       ?drawBackgroundPolygon@BaseEngine@@QAEXNNNNNNNNI@Z 0044a300 f i BouncingBallMain.obj
 0001:000493c0       ?drawBackgroundPolygon@BaseEngine@@QAEXNNNNNNNNNNI@Z 0044a3c0 f i BouncingBallMain.obj
 0001:00049490       ?drawBackgroundPolygon@BaseEngine@@QAEXNNNNNNNNNNNNI@Z 0044a490 f i BouncingBallMain.obj
 0001:00049580       ?drawBackgroundPolygon@BaseEngine@@QAEXNNNNNNNNNNNNNNI@Z 0044a580 f i BouncingBallMain.obj
 0001:00049680       ?drawBackgroundPolygon@BaseEngine@@QAEXNNNNNNNNNNNNNNNNI@Z 0044a680 f i BouncingBallMain.obj
 0001:000497c0       ?drawBackgroundTriangle@BaseEngine@@QAEXHHHHHHI@Z 0044a7c0 f i BouncingBallMain.obj
 0001:00049850       ?drawBackgroundVerticalSidedRegion@BaseEngine@@QAEXNNNNNNI@Z 0044a850 f i BouncingBallMain.obj
 0001:000498e0       ?setBrightnessPercentage@ImagePixelMappingRotateAndColour@@QAEXH@Z 0044a8e0 f i BouncingBallMain.obj
 0001:00049900       ?setMergePercentage@ImagePixelMappingRotateAndColour@@QAEXHH@Z 0044a900 f i BouncingBallMain.obj
 0001:00049930       ?setNthPixelColours@ImagePixelMappingRotateAndColour@@QAEXHHH@Z 0044a930 f i BouncingBallMain.obj
 0001:00049970       ?setTopLeftPositionInImage@ImagePixelMappingRotateAndColour@@QAEXHH@Z 0044a970 f i BouncingBallMain.obj
 0001:000499a0       ?virtInitialise@ZoomingDemo@@UAEHXZ 0044a9a0 f   ZoomingDemo.obj
 0001:000499f0       ?virtSetupBackgroundBuffer@ZoomingDemo@@UAEXXZ 0044a9f0 f   ZoomingDemo.obj
 0001:00049a10       ?virtInitialiseObjects@ZoomingDemo@@UAEHXZ 0044aa10 f   ZoomingDemo.obj
 0001:00049bd0       ?virtDrawStringsUnderneath@ZoomingDemo@@UAEXXZ 0044abd0 f   ZoomingDemo.obj
 0001:00049c80       ?virtDrawStringsOnTop@ZoomingDemo@@UAEXXZ 0044ac80 f   ZoomingDemo.obj
 0001:00049d00       ?virtMouseDown@ZoomingDemo@@UAEXHHH@Z 0044ad00 f   ZoomingDemo.obj
 0001:00049d50       ?virtKeyDown@ZoomingDemo@@UAEXH@Z 0044ad50 f   ZoomingDemo.obj
 0001:00049e50       ?virtMouseWheel@ZoomingDemo@@UAEXHHHH@Z 0044ae50 f   ZoomingDemo.obj
 0001:0004a050       ??0SimpleFlashingDragableImageObject@@QAE@HHPAVBaseEngine@@V?$basic_string@DU?$char_traits@D@std@@V?$allocator@D@2@@std@@1_N2@Z 0044b050 f i ZoomingDemo.obj
 0001:0004a250       ??1SimpleFlashingDragableImageObject@@UAE@XZ 0044b250 f i ZoomingDemo.obj
 0001:0004a290       ??_ESimpleFlashingDragableImageObject@@UAEPAXI@Z 0044b290 f i ZoomingDemo.obj
 0001:0004a290       ??_GSimpleFlashingDragableImageObject@@UAEPAXI@Z 0044b290 f i ZoomingDemo.obj
 0001:0004a2d0       ?virtDoUpdate@SimpleFlashingDragableImageObject@@UAEXH@Z 0044b2d0 f i ZoomingDemo.obj
 0001:0004a330       ?virtDraw@SimpleFlashingDragableImageObject@@UAEXXZ 0044b330 f i ZoomingDemo.obj
 0001:0004a420       ?virtMouseDown@SimpleFlashingDragableImageObject@@UAEXHHH@Z 0044b420 f i ZoomingDemo.obj
 0001:0004a490       ?virtMouseMoved@SimpleFlashingDragableImageObject@@UAEXHH@Z 0044b490 f i ZoomingDemo.obj
 0001:0004a4f0       ?virtMouseUp@SimpleFlashingDragableImageObject@@UAEXHHH@Z 0044b4f0 f i ZoomingDemo.obj
 0001:0004a510       ??0MazeDemoMain@@QAE@XZ    0044b510 f   MazeDemoMain.obj
 0001:0004a590       ??1MazeDemoMain@@UAE@XZ    0044b590 f   MazeDemoMain.obj
 0001:0004a5d0       ?virtSetupBackgroundBuffer@MazeDemoMain@@UAEXXZ 0044b5d0 f   MazeDemoMain.obj
 0001:0004a7c0       ?virtInitialiseObjects@MazeDemoMain@@UAEHXZ 0044b7c0 f   MazeDemoMain.obj
 0001:0004a9c0       ?virtDrawStringsUnderneath@MazeDemoMain@@UAEXXZ 0044b9c0 f   MazeDemoMain.obj
 0001:0004aa50       ?virtMouseDown@MazeDemoMain@@UAEXHHH@Z 0044ba50 f   MazeDemoMain.obj
 0001:0004aa60       ?virtKeyDown@MazeDemoMain@@UAEXH@Z 0044ba60 f   MazeDemoMain.obj
 0001:0004acb0       ??0MazeDemoTileManager@@QAE@XZ 0044bcb0 f i MazeDemoMain.obj
 0001:0004ace0       ??0TileManager@@QAE@HH@Z   0044bce0 f i MazeDemoMain.obj
 0001:0004ad60       ??1MazeDemoTileManager@@UAE@XZ 0044bd60 f i MazeDemoMain.obj
 0001:0004ad90       ??_GMazeDemoMain@@UAEPAXI@Z 0044bd90 f i MazeDemoMain.obj
 0001:0004ad90       ??_EMazeDemoMain@@UAEPAXI@Z 0044bd90 f i MazeDemoMain.obj
 0001:0004add0       ??_GMazeDemoTileManager@@UAEPAXI@Z 0044bdd0 f i MazeDemoMain.obj
 0001:0004add0       ??_EMazeDemoTileManager@@UAEPAXI@Z 0044bdd0 f i MazeDemoMain.obj
 0001:0004ae10       ??0MazeDemoObject@@QAE@PAVMazeDemoMain@@HH@Z 0044be10 f   MazeDemoObject.obj
 0001:0004aef0       ??1MazeDemoObject@@UAE@XZ  0044bef0 f   MazeDemoObject.obj
 0001:0004af10       ?virtDraw@MazeDemoObject@@UAEXXZ 0044bf10 f   MazeDemoObject.obj
 0001:0004afc0       ?virtDoUpdate@MazeDemoObject@@UAEXH@Z 0044bfc0 f   MazeDemoObject.obj
 0001:0004b660       ??_GMazeDemoObject@@UAEPAXI@Z 0044c660 f i MazeDemoObject.obj
 0001:0004b660       ??_EMazeDemoObject@@UAEPAXI@Z 0044c660 f i MazeDemoObject.obj
 0001:0004b6a0       ?GetTileManager@MazeDemoMain@@QAEAAVMazeDemoTileManager@@XZ 0044c6a0 f i MazeDemoObject.obj
 0001:0004b6c0       ?checkCircles@CollisionDetection@@SA_NHHHHH@Z 0044c6c0 f i MazeDemoObject.obj
 0001:0004b720       ?drawForegroundOval@BaseEngine@@QAEXHHHHI@Z 0044c720 f i MazeDemoObject.obj
 0001:0004b760       ?getDisplayableObject@DisplayableObjectContainer@@QBEPAVDisplayableObject@@H@Z 0044c760 f i MazeDemoObject.obj
 0001:0004b7a0       ?getXDiffForDirection@MazeDemoObject@@QAEHH@Z 0044c7a0 f i MazeDemoObject.obj
 0001:0004b810       ?getYDiffForDirection@MazeDemoObject@@QAEHH@Z 0044c810 f i MazeDemoObject.obj
 0001:0004b880       ?virtDrawTileAt@MazeDemoTileManager@@UBEXPAVBaseEngine@@PAVDrawingSurface@@HHHH@Z 0044c880 f   MazeDemoTileManager.obj
 0001:0004ba65       _SDL_CreateRGBSurface      0044ca65 f   SDL2:SDL2.dll
 0001:0004ba6b       _SDL_FreeSurface           0044ca6b f   SDL2:SDL2.dll
 0001:0004ba71       _SDL_LockSurface           0044ca71 f   SDL2:SDL2.dll
 0001:0004ba77       _SDL_UnlockSurface         0044ca77 f   SDL2:SDL2.dll
 0001:0004ba7d       _SDL_UpperBlit             0044ca7d f   SDL2:SDL2.dll
 0001:0004ba83       _SDL_FillRect              0044ca83 f   SDL2:SDL2.dll
 0001:0004ba89       _SDL_GetError              0044ca89 f   SDL2:SDL2.dll
 0001:0004ba8f       _SDL_CreateWindow          0044ca8f f   SDL2:SDL2.dll
 0001:0004ba95       _SDL_PollEvent             0044ca95 f   SDL2:SDL2.dll
 0001:0004ba9b       _SDL_WaitEvent             0044ca9b f   SDL2:SDL2.dll
 0001:0004baa1       _SDL_CreateRenderer        0044caa1 f   SDL2:SDL2.dll
 0001:0004baa7       _SDL_CreateTexture         0044caa7 f   SDL2:SDL2.dll
 0001:0004baad       _SDL_UpdateTexture         0044caad f   SDL2:SDL2.dll
 0001:0004bab3       _SDL_RenderCopy            0044cab3 f   SDL2:SDL2.dll
 0001:0004bab9       _SDL_RenderPresent         0044cab9 f   SDL2:SDL2.dll
 0001:0004babf       _SDL_GetTicks              0044cabf f   SDL2:SDL2.dll
 0001:0004bac5       _SDL_Init                  0044cac5 f   SDL2:SDL2.dll
 0001:0004bacb       _SDL_Quit                  0044cacb f   SDL2:SDL2.dll
 0001:0004bad1       _SDL_SetClipRect           0044cad1 f   SDL2:SDL2.dll
 0001:0004bad7       _SDL_UpperBlitScaled       0044cad7 f   SDL2:SDL2.dll
 0001:0004badd       _IMG_Load                  0044cadd f   SDL2_image:SDL2_image.dll
 0001:0004bae3       _TTF_RenderText_Solid      0044cae3 f   SDL2_ttf:SDL2_ttf.dll
 0001:0004bae9       _TTF_Init                  0044cae9 f   SDL2_ttf:SDL2_ttf.dll
 0001:0004baef       _TTF_Quit                  0044caef f   SDL2_ttf:SDL2_ttf.dll
 0001:0004baf5       _TTF_OpenFont              0044caf5 f   SDL2_ttf:SDL2_ttf.dll
 0001:0004bafb       _TTF_CloseFont             0044cafb f   SDL2_ttf:SDL2_ttf.dll
 0001:0004bb01       ??0_Lockit@std@@QAE@H@Z    0044cb01 f   msvcprtd:MSVCP140D.dll
 0001:0004bb07       ??1_Lockit@std@@QAE@XZ     0044cb07 f   msvcprtd:MSVCP140D.dll
 0001:0004bb0d       ?_Xlength_error@std@@YAXPBD@Z 0044cb0d f   msvcprtd:MSVCP140D.dll
 0001:0004bb13       ?_Xout_of_range@std@@YAXPBD@Z 0044cb13 f   msvcprtd:MSVCP140D.dll
 0001:0004bb19       ?uncaught_exception@std@@YA_NXZ 0044cb19 f   msvcprtd:MSVCP140D.dll
 0001:0004bb1f       ?good@ios_base@std@@QBE_NXZ 0044cb1f f   msvcprtd:MSVCP140D.dll
 0001:0004bb25       ?flags@ios_base@std@@QBEHXZ 0044cb25 f   msvcprtd:MSVCP140D.dll
 0001:0004bb2b       ?width@ios_base@std@@QBE_JXZ 0044cb2b f   msvcprtd:MSVCP140D.dll
 0001:0004bb31       ?width@ios_base@std@@QAE_J_J@Z 0044cb31 f   msvcprtd:MSVCP140D.dll
 0001:0004bb37       ?sputc@?$basic_streambuf@DU?$char_traits@D@std@@@std@@QAEHD@Z 0044cb37 f   msvcprtd:MSVCP140D.dll
 0001:0004bb3d       ?sputn@?$basic_streambuf@DU?$char_traits@D@std@@@std@@QAE_JPBD_J@Z 0044cb3d f   msvcprtd:MSVCP140D.dll
 0001:0004bb43       ?setstate@?$basic_ios@DU?$char_traits@D@std@@@std@@QAEXH_N@Z 0044cb43 f   msvcprtd:MSVCP140D.dll
 0001:0004bb49       ?tie@?$basic_ios@DU?$char_traits@D@std@@@std@@QBEPAV?$basic_ostream@DU?$char_traits@D@std@@@2@XZ 0044cb49 f   msvcprtd:MSVCP140D.dll
 0001:0004bb4f       ?rdbuf@?$basic_ios@DU?$char_traits@D@std@@@std@@QBEPAV?$basic_streambuf@DU?$char_traits@D@std@@@2@XZ 0044cb4f f   msvcprtd:MSVCP140D.dll
 0001:0004bb55       ?fill@?$basic_ios@DU?$char_traits@D@std@@@std@@QBEDXZ 0044cb55 f   msvcprtd:MSVCP140D.dll
 0001:0004bb5b       ?widen@?$basic_ios@DU?$char_traits@D@std@@@std@@QBEDD@Z 0044cb5b f   msvcprtd:MSVCP140D.dll
 0001:0004bb61       ?_Osfx@?$basic_ostream@DU?$char_traits@D@std@@@std@@QAEXXZ 0044cb61 f   msvcprtd:MSVCP140D.dll
 0001:0004bb67       ??6?$basic_ostream@DU?$char_traits@D@std@@@std@@QAEAAV01@P6AAAV01@AAV01@@Z@Z 0044cb67 f   msvcprtd:MSVCP140D.dll
 0001:0004bb6d       ??6?$basic_ostream@DU?$char_traits@D@std@@@std@@QAEAAV01@H@Z 0044cb6d f   msvcprtd:MSVCP140D.dll
 0001:0004bb73       ?put@?$basic_ostream@DU?$char_traits@D@std@@@std@@QAEAAV12@D@Z 0044cb73 f   msvcprtd:MSVCP140D.dll
 0001:0004bb79       ?flush@?$basic_ostream@DU?$char_traits@D@std@@@std@@QAEAAV12@XZ 0044cb79 f   msvcprtd:MSVCP140D.dll
 0001:0004bb7f       ??6?$basic_ostream@DU?$char_traits@D@std@@@std@@QAEAAV01@I@Z 0044cb7f f   msvcprtd:MSVCP140D.dll
 0001:0004bb85       ?_Xbad_alloc@std@@YAXXZ    0044cb85 f   msvcprtd:MSVCP140D.dll
 0001:0004bb8b       ?_Xinvalid_argument@std@@YAXPBD@Z 0044cb8b f   msvcprtd:MSVCP140D.dll
 0001:0004bba0       ??0_Fac_node@std@@QAE@PAU01@PAV_Facet_base@1@@Z 0044cba0 f i msvcprtd:locale0_implib.obj
 0001:0004bbd0       ??1_Fac_node@std@@QAE@XZ   0044cbd0 f i msvcprtd:locale0_implib.obj
 0001:0004bc50       ??1_Fac_tidy_reg_t@std@@QAE@XZ 0044cc50 f i msvcprtd:locale0_implib.obj
 0001:0004bcb0       ??2_Fac_node@std@@SAPAXI@Z 0044ccb0 f i msvcprtd:locale0_implib.obj
 0001:0004bd10       ??3_Fac_node@std@@SAXPAX@Z 0044cd10 f i msvcprtd:locale0_implib.obj
 0001:0004bd30       ??_G_Fac_node@std@@QAEPAXI@Z 0044cd30 f i msvcprtd:locale0_implib.obj
 0001:0004bd90       ?_Facet_Register@std@@YAXPAV_Facet_base@1@@Z 0044cd90 f   msvcprtd:locale0_implib.obj
 0001:0004be40       ?__empty_global_delete@@YAXPAXIW4align_val_t@std@@@Z 0044ce40 f i msvcprtd:locale0_implib.obj
 0001:0004be50       ?__empty_global_delete@@YAXPAXW4align_val_t@std@@@Z 0044ce50 f i msvcprtd:locale0_implib.obj
 0001:0004be55       ??Bid@locale@std@@QAEIXZ   0044ce55 f   msvcprtd:MSVCP140D.dll
 0001:0004be5b       ?_Getgloballocale@locale@std@@CAPAV_Locimp@12@XZ 0044ce5b f   msvcprtd:MSVCP140D.dll
 0001:0004be61       ?always_noconv@codecvt_base@std@@QBE_NXZ 0044ce61 f   msvcprtd:MSVCP140D.dll
 0001:0004be67       ?in@?$codecvt@DDU_Mbstatet@@@std@@QBEHAAU_Mbstatet@@PBD1AAPBDPAD3AAPAD@Z 0044ce67 f   msvcprtd:MSVCP140D.dll
 0001:0004be6d       ?out@?$codecvt@DDU_Mbstatet@@@std@@QBEHAAU_Mbstatet@@PBD1AAPBDPAD3AAPAD@Z 0044ce6d f   msvcprtd:MSVCP140D.dll
 0001:0004be73       ?unshift@?$codecvt@DDU_Mbstatet@@@std@@QBEHAAU_Mbstatet@@PAD1AAPAD@Z 0044ce73 f   msvcprtd:MSVCP140D.dll
 0001:0004be79       ?_Getcat@?$codecvt@DDU_Mbstatet@@@std@@SAIPAPBVfacet@locale@2@PBV42@@Z 0044ce79 f   msvcprtd:MSVCP140D.dll
 0001:0004be7f       ??Bios_base@std@@QBE_NXZ   0044ce7f f   msvcprtd:MSVCP140D.dll
 0001:0004be85       ??0?$basic_streambuf@DU?$char_traits@D@std@@@std@@IAE@XZ 0044ce85 f   msvcprtd:MSVCP140D.dll
 0001:0004be8b       ??1?$basic_streambuf@DU?$char_traits@D@std@@@std@@UAE@XZ 0044ce8b f   msvcprtd:MSVCP140D.dll
 0001:0004be91       ?getloc@?$basic_streambuf@DU?$char_traits@D@std@@@std@@QBE?AVlocale@2@XZ 0044ce91 f   msvcprtd:MSVCP140D.dll
 0001:0004be97       ?sbumpc@?$basic_streambuf@DU?$char_traits@D@std@@@std@@QAEHXZ 0044ce97 f   msvcprtd:MSVCP140D.dll
 0001:0004be9d       ?sgetc@?$basic_streambuf@DU?$char_traits@D@std@@@std@@QAEHXZ 0044ce9d f   msvcprtd:MSVCP140D.dll
 0001:0004bea3       ?snextc@?$basic_streambuf@DU?$char_traits@D@std@@@std@@QAEHXZ 0044cea3 f   msvcprtd:MSVCP140D.dll
 0001:0004bea9       ?eback@?$basic_streambuf@DU?$char_traits@D@std@@@std@@IBEPADXZ 0044cea9 f   msvcprtd:MSVCP140D.dll
 0001:0004beaf       ?gptr@?$basic_streambuf@DU?$char_traits@D@std@@@std@@IBEPADXZ 0044ceaf f   msvcprtd:MSVCP140D.dll
 0001:0004beb5       ?pptr@?$basic_streambuf@DU?$char_traits@D@std@@@std@@IBEPADXZ 0044ceb5 f   msvcprtd:MSVCP140D.dll
 0001:0004bebb       ?egptr@?$basic_streambuf@DU?$char_traits@D@std@@@std@@IBEPADXZ 0044cebb f   msvcprtd:MSVCP140D.dll
 0001:0004bec1       ?gbump@?$basic_streambuf@DU?$char_traits@D@std@@@std@@IAEXH@Z 0044cec1 f   msvcprtd:MSVCP140D.dll
 0001:0004bec7       ?setg@?$basic_streambuf@DU?$char_traits@D@std@@@std@@IAEXPAD00@Z 0044cec7 f   msvcprtd:MSVCP140D.dll
 0001:0004becd       ?epptr@?$basic_streambuf@DU?$char_traits@D@std@@@std@@IBEPADXZ 0044cecd f   msvcprtd:MSVCP140D.dll
 0001:0004bed3       ?_Gndec@?$basic_streambuf@DU?$char_traits@D@std@@@std@@IAEPADXZ 0044ced3 f   msvcprtd:MSVCP140D.dll
 0001:0004bed9       ?_Gninc@?$basic_streambuf@DU?$char_traits@D@std@@@std@@IAEPADXZ 0044ced9 f   msvcprtd:MSVCP140D.dll
 0001:0004bedf       ?_Gnavail@?$basic_streambuf@DU?$char_traits@D@std@@@std@@IBE_JXZ 0044cedf f   msvcprtd:MSVCP140D.dll
 0001:0004bee5       ?pbump@?$basic_streambuf@DU?$char_traits@D@std@@@std@@IAEXH@Z 0044cee5 f   msvcprtd:MSVCP140D.dll
 0001:0004beeb       ?setp@?$basic_streambuf@DU?$char_traits@D@std@@@std@@IAEXPAD0@Z 0044ceeb f   msvcprtd:MSVCP140D.dll
 0001:0004bef1       ?setp@?$basic_streambuf@DU?$char_traits@D@std@@@std@@IAEXPAD00@Z 0044cef1 f   msvcprtd:MSVCP140D.dll
 0001:0004bef7       ?_Pninc@?$basic_streambuf@DU?$char_traits@D@std@@@std@@IAEPADXZ 0044cef7 f   msvcprtd:MSVCP140D.dll
 0001:0004befd       ?_Pnavail@?$basic_streambuf@DU?$char_traits@D@std@@@std@@IBE_JXZ 0044cefd f   msvcprtd:MSVCP140D.dll
 0001:0004bf03       ?_Init@?$basic_streambuf@DU?$char_traits@D@std@@@std@@IAEXXZ 0044cf03 f   msvcprtd:MSVCP140D.dll
 0001:0004bf09       ?_Init@?$basic_streambuf@DU?$char_traits@D@std@@@std@@IAEXPAPAD0PAH001@Z 0044cf09 f   msvcprtd:MSVCP140D.dll
 0001:0004bf0f       ?xsgetn@?$basic_streambuf@DU?$char_traits@D@std@@@std@@MAE_JPAD_J@Z 0044cf0f f   msvcprtd:MSVCP140D.dll
 0001:0004bf15       ?xsputn@?$basic_streambuf@DU?$char_traits@D@std@@@std@@MAE_JPBD_J@Z 0044cf15 f   msvcprtd:MSVCP140D.dll
 0001:0004bf1b       ??1?$basic_ios@DU?$char_traits@D@std@@@std@@UAE@XZ 0044cf1b f   msvcprtd:MSVCP140D.dll
 0001:0004bf21       ?clear@?$basic_ios@DU?$char_traits@D@std@@@std@@QAEXH_N@Z 0044cf21 f   msvcprtd:MSVCP140D.dll
 0001:0004bf27       ??0?$basic_ios@DU?$char_traits@D@std@@@std@@IAE@XZ 0044cf27 f   msvcprtd:MSVCP140D.dll
 0001:0004bf2d       ??0?$basic_ostream@DU?$char_traits@D@std@@@std@@QAE@PAV?$basic_streambuf@DU?$char_traits@D@std@@@1@_N@Z 0044cf2d f   msvcprtd:MSVCP140D.dll
 0001:0004bf33       ??1?$basic_ostream@DU?$char_traits@D@std@@@std@@UAE@XZ 0044cf33 f   msvcprtd:MSVCP140D.dll
 0001:0004bf39       ??6?$basic_ostream@DU?$char_traits@D@std@@@std@@QAEAAV01@N@Z 0044cf39 f   msvcprtd:MSVCP140D.dll
 0001:0004bf3f       ??0?$basic_istream@DU?$char_traits@D@std@@@std@@QAE@PAV?$basic_streambuf@DU?$char_traits@D@std@@@1@_N@Z 0044cf3f f   msvcprtd:MSVCP140D.dll
 0001:0004bf45       ??1?$basic_istream@DU?$char_traits@D@std@@@std@@UAE@XZ 0044cf45 f   msvcprtd:MSVCP140D.dll
 0001:0004bf4b       ?_Ipfx@?$basic_istream@DU?$char_traits@D@std@@@std@@QAE_N_N@Z 0044cf4b f   msvcprtd:MSVCP140D.dll
 0001:0004bf51       ??0?$basic_iostream@DU?$char_traits@D@std@@@std@@QAE@PAV?$basic_streambuf@DU?$char_traits@D@std@@@1@@Z 0044cf51 f   msvcprtd:MSVCP140D.dll
 0001:0004bf57       ??1?$basic_iostream@DU?$char_traits@D@std@@@std@@UAE@XZ 0044cf57 f   msvcprtd:MSVCP140D.dll
 0001:0004bf5d       ?_Fiopen@std@@YAPAU_iobuf@@PBDHH@Z 0044cf5d f   msvcprtd:MSVCP140D.dll
 0001:0004bf63       ?_Lock@?$basic_streambuf@DU?$char_traits@D@std@@@std@@UAEXXZ 0044cf63 f   msvcprtd:MSVCP140D.dll
 0001:0004bf69       ?_Unlock@?$basic_streambuf@DU?$char_traits@D@std@@@std@@UAEXXZ 0044cf69 f   msvcprtd:MSVCP140D.dll
 0001:0004bf6f       ?imbue@?$basic_streambuf@DU?$char_traits@D@std@@@std@@MAEXABVlocale@2@@Z 0044cf6f f   msvcprtd:MSVCP140D.dll
 0001:0004bf75       ?setbuf@?$basic_streambuf@DU?$char_traits@D@std@@@std@@MAEPAV12@PAD_J@Z 0044cf75 f   msvcprtd:MSVCP140D.dll
 0001:0004bf7b       ?showmanyc@?$basic_streambuf@DU?$char_traits@D@std@@@std@@MAE_JXZ 0044cf7b f   msvcprtd:MSVCP140D.dll
 0001:0004bf81       ?sync@?$basic_streambuf@DU?$char_traits@D@std@@@std@@MAEHXZ 0044cf81 f   msvcprtd:MSVCP140D.dll
 0001:0004bf87       ?uflow@?$basic_streambuf@DU?$char_traits@D@std@@@std@@MAEHXZ 0044cf87 f   msvcprtd:MSVCP140D.dll
 0001:0004bf8d       ?_Xbad_function_call@std@@YAXXZ 0044cf8d f   msvcprtd:MSVCP140D.dll
 0001:0004c370       ?configure_argv@__scrt_narrow_argv_policy@@SAHXZ 0044d370 f i MSVCRTD:exe_main.obj
 0001:0004c390       ?initialize_environment@__scrt_narrow_environment_policy@@SAHXZ 0044d390 f i MSVCRTD:exe_main.obj
 0001:0004c3f0       ?set_app_type@__scrt_main_policy@@SAXXZ 0044d3f0 f i MSVCRTD:exe_main.obj
 0001:0004c410       ?set_commode@__scrt_file_policy@@SAXXZ 0044d410 f i MSVCRTD:exe_main.obj
 0001:0004c430       ?set_fmode@__scrt_file_policy@@SAXXZ 0044d430 f i MSVCRTD:exe_main.obj
 0001:0004c450       _mainCRTStartup            0044d450 f   MSVCRTD:exe_main.obj
 0001:0004c460       ??1type_info@@UAE@XZ       0044d460 f   MSVCRTD:std_type_info_static.obj
 0001:0004c480       ??_Gtype_info@@UAEPAXI@Z   0044d480 f i MSVCRTD:std_type_info_static.obj
 0001:0004c480       ??_Etype_info@@UAEPAXI@Z   0044d480 f i MSVCRTD:std_type_info_static.obj
 0001:0004c4c0       ??_M@YGXPAXIHP6EX0@Z@Z     0044d4c0 f   MSVCRTD:ehvecdtr.obj
 0001:0004c4f0       ??_M@YGXPAXIIP6EX0@Z@Z     0044d4f0 f   MSVCRTD:ehvecdtr.obj
 0001:0004c650       ?__ArrayUnwind@@YGXPAXIIP6EX0@Z@Z 0044d650 f   MSVCRTD:ehvecdtr.obj
 0001:0004c730       ??2@YAPAXI@Z               0044d730 f   MSVCRTD:new_scalar.obj
 0001:0004c790       ??3@YAXPAXI@Z              0044d790 f   MSVCRTD:delete_scalar_size.obj
 0001:0004c7b0       ??_V@YAXPAX@Z              0044d7b0 f   MSVCRTD:delete_array.obj
 0001:0004c7d0       @__security_check_cookie@4 0044d7d0 f   MSVCRTD:secchk.obj
 0001:0004c7f0       ??_U@YAPAXI@Z              0044d7f0 f   MSVCRTD:new_array.obj
 0001:0004c950       _NtCurrentTeb              0044d950 f i MSVCRTD:utility.obj
 0001:0004c960       ___scrt_acquire_startup_lock 0044d960 f   MSVCRTD:utility.obj
 0001:0004c9c0       ___scrt_dllmain_after_initialize_c 0044d9c0 f   MSVCRTD:utility.obj
 0001:0004ca00       ___scrt_dllmain_before_initialize_c 0044da00 f   MSVCRTD:utility.obj
 0001:0004ca30       ___scrt_dllmain_crt_thread_attach 0044da30 f   MSVCRTD:utility.obj
 0001:0004ca70       ___scrt_dllmain_crt_thread_detach 0044da70 f   MSVCRTD:utility.obj
 0001:0004ca90       ___scrt_dllmain_exception_filter 0044da90 f   MSVCRTD:utility.obj
 0001:0004caf0       ___scrt_dllmain_uninitialize_c 0044daf0 f   MSVCRTD:utility.obj
 0001:0004cb30       ___scrt_dllmain_uninitialize_critical 0044db30 f   MSVCRTD:utility.obj
 0001:0004cb50       ___scrt_initialize_crt     0044db50 f   MSVCRTD:utility.obj
 0001:0004cbb0       ___scrt_initialize_onexit_tables 0044dbb0 f   MSVCRTD:utility.obj
 0001:0004ccc0       ___scrt_is_nonwritable_in_current_image 0044dcc0 f   MSVCRTD:utility.obj
 0001:0004ce40       ___scrt_release_startup_lock 0044de40 f   MSVCRTD:utility.obj
 0001:0004ce70       ___scrt_uninitialize_crt   0044de70 f   MSVCRTD:utility.obj
 0001:0004cec0       __onexit                   0044dec0 f   MSVCRTD:utility.obj
 0001:0004cf40       _at_quick_exit             0044df40 f   MSVCRTD:utility.obj
 0001:0004cf90       _atexit                    0044df90 f   MSVCRTD:utility.obj
 0001:0004cfd0       @_guard_check_icall_nop@4  0044dfd0 f i MSVCRTD:guard_support.obj
 0001:0004cfe0       _ReadNoFence               0044dfe0 f i MSVCRTD:guard_support.obj
 0001:0004d000       _ReadPointerNoFence        0044e000 f i MSVCRTD:guard_support.obj
 0001:0004d020       ___castguard_check_failure_debugbreak 0044e020 f i MSVCRTD:guard_support.obj
 0001:0004d040       ___castguard_check_failure_fastfail 0044e040 f i MSVCRTD:guard_support.obj
 0001:0004d070       ___castguard_check_failure_nop 0044e070 f i MSVCRTD:guard_support.obj
 0001:0004d080       ___castguard_check_failure_os_handled 0044e080 f i MSVCRTD:guard_support.obj
 0001:0004d120       ___castguard_slow_path_check_debugbreak 0044e120 f i MSVCRTD:guard_support.obj
 0001:0004d160       ___castguard_slow_path_check_fastfail 0044e160 f i MSVCRTD:guard_support.obj
 0001:0004d1b0       ___castguard_slow_path_check_nop 0044e1b0 f i MSVCRTD:guard_support.obj
 0001:0004d1c0       ___castguard_slow_path_check_os_handled 0044e1c0 f i MSVCRTD:guard_support.obj
 0001:0004d280       __guard_icall_checks_enforced 0044e280 f i MSVCRTD:guard_support.obj
 0001:0004d350       ___security_init_cookie    0044e350 f   MSVCRTD:gs_support.obj
 0001:0004d3f0       __matherr                  0044e3f0 f   MSVCRTD:matherr.obj
 0001:0004d400       __get_startup_argv_mode    0044e400 f   MSVCRTD:argv_mode.obj
 0001:0004d410       __get_startup_commit_mode  0044e410 f   MSVCRTD:commit_mode.obj
 0001:0004d420       __get_startup_file_mode    0044e420 f   MSVCRTD:file_mode.obj
 0001:0004d430       __get_startup_new_mode     0044e430 f   MSVCRTD:new_mode.obj
 0001:0004d440       __get_startup_thread_locale_mode 0044e440 f   MSVCRTD:thread_locale.obj
 0001:0004d450       ?__scrt_initialize_type_info@@YAXXZ 0044e450 f   MSVCRTD:tncleanup.obj
 0001:0004d470       ?__scrt_uninitialize_type_info@@YAXXZ 0044e470 f   MSVCRTD:tncleanup.obj
 0001:0004d490       __should_initialize_environment 0044e490 f   MSVCRTD:env_mode.obj
 0001:0004d4a0       __initialize_default_precision 0044e4a0 f   MSVCRTD:default_precision.obj
 0001:0004d4d0       __initialize_invalid_parameter_handler 0044e4d0 f   MSVCRTD:invalid_parameter_handler.obj
 0001:0004d4e0       __initialize_denormal_control 0044e4e0 f   MSVCRTD:denormal_control.obj
 0001:0004d4f0       ___local_stdio_scanf_options 0044e4f0 f i MSVCRTD:default_local_stdio_options.obj
 0001:0004d500       ___scrt_initialize_default_local_stdio_options 0044e500 f   MSVCRTD:default_local_stdio_options.obj
 0001:0004d550       ___scrt_is_user_matherr_present 0044e550 f   MSVCRTD:matherr_detection.obj
 0001:0004d580       ___scrt_get_dyn_tls_init_callback 0044e580 f   MSVCRTD:dyn_tls_init.obj
 0001:0004d590       ___scrt_get_dyn_tls_dtor_callback 0044e590 f   MSVCRTD:dyn_tls_dtor.obj
 0001:0004d5a0       ___scrt_fastfail           0044e5a0 f   MSVCRTD:utility_desktop.obj
 0001:0004d730       ___scrt_get_show_window_mode 0044e730 f   MSVCRTD:utility_desktop.obj
 0001:0004d780       ___scrt_initialize_mta     0044e780 f   MSVCRTD:utility_desktop.obj
 0001:0004d790       ___scrt_initialize_winrt   0044e790 f   MSVCRTD:utility_desktop.obj
 0001:0004d7a0       ___scrt_is_managed_app     0044e7a0 f   MSVCRTD:utility_desktop.obj
 0001:0004d850       ___scrt_set_unhandled_exception_filter 0044e850 f   MSVCRTD:utility_desktop.obj
 0001:0004d870       ___scrt_exe_initialize_mta 0044e870 f   MSVCRTD:utility_desktop.obj
 0001:0004d870       ___scrt_stub_for_initialize_mta 0044e870 f   MSVCRTD:utility_desktop.obj
 0001:0004d880       ___scrt_unhandled_exception_filter@4 0044e880 f   MSVCRTD:utility_desktop.obj
 0001:0004d920       __crt_debugger_hook        0044e920 f   MSVCRTD:utility_desktop.obj
 0001:0004d940       __RTC_Initialize           0044e940 f   MSVCRTD:initsect.obj
 0001:0004d980       __RTC_Terminate            0044e980 f   MSVCRTD:initsect.obj
 0001:0004d9c0       __except_handler4          0044e9c0 f   MSVCRTD:chandler4gs.obj
 0001:0004da10       ??0bad_alloc@std@@QAE@XZ   0044ea10 f i MSVCRTD:throw_bad_alloc.obj
 0001:0004da40       ?__scrt_throw_std_bad_alloc@@YAXXZ 0044ea40 f   MSVCRTD:throw_bad_alloc.obj
 0001:0004da70       ?__scrt_throw_std_bad_array_new_length@@YAXXZ 0044ea70 f   MSVCRTD:throw_bad_alloc.obj
 0001:0004daa0       ??3@YAXPAX@Z               0044eaa0 f   MSVCRTD:delete_scalar.obj
 0001:0004dac0       ___raise_securityfailure   0044eac0 f   MSVCRTD:gs_report.obj
 0001:0004db00       ___report_gsfailure        0044eb00 f   MSVCRTD:gs_report.obj
 0001:0004dc50       ___report_rangecheckfailure 0044ec50 f   MSVCRTD:gs_report.obj
 0001:0004dc60       ___report_securityfailure  0044ec60 f   MSVCRTD:gs_report.obj
 0001:0004dd70       ___report_securityfailureEx 0044ed70 f   MSVCRTD:gs_report.obj
 0001:0004dee0       ___isa_available_init      0044eee0 f   MSVCRTD:cpu_disp.obj
 0001:0004e2e0       ___scrt_is_ucrt_dll_in_use 0044f2e0 f   MSVCRTD:ucrt_detection.obj
 0001:0004e30d       __purecall                 0044f30d f   vcruntimed:VCRUNTIME140D.dll
 0001:0004e313       _memcmp                    0044f313 f   vcruntimed:VCRUNTIME140D.dll
 0001:0004e319       _memcpy                    0044f319 f   vcruntimed:VCRUNTIME140D.dll
 0001:0004e31f       _memmove                   0044f31f f   vcruntimed:VCRUNTIME140D.dll
 0001:0004e325       _memset                    0044f325 f   vcruntimed:VCRUNTIME140D.dll
 0001:0004e32b       ___std_exception_copy      0044f32b f   vcruntimed:VCRUNTIME140D.dll
 0001:0004e331       ___std_exception_destroy   0044f331 f   vcruntimed:VCRUNTIME140D.dll
 0001:0004e337       __CxxThrowException@8      0044f337 f   vcruntimed:VCRUNTIME140D.dll
 0001:0004e33d       ___CxxFrameHandler3        0044f33d f   vcruntimed:VCRUNTIME140D.dll
 0001:0004e343       ___RTDynamicCast           0044f343 f   vcruntimed:VCRUNTIME140D.dll
 0001:0004e349       ___current_exception       0044f349 f   vcruntimed:VCRUNTIME140D.dll
 0001:0004e34f       ___current_exception_context 0044f34f f   vcruntimed:VCRUNTIME140D.dll
 0001:0004e355       ___std_type_info_destroy_list 0044f355 f   vcruntimed:VCRUNTIME140D.dll
 0001:0004e35b       __except_handler4_common   0044f35b f   vcruntimed:VCRUNTIME140D.dll
 0001:0004e361       __invalid_parameter        0044f361 f   ucrtd:ucrtbased.dll
 0001:0004e367       __CrtDbgReport             0044f367 f   ucrtd:ucrtbased.dll
 0001:0004e36d       _abs                       0044f36d f   ucrtd:ucrtbased.dll
 0001:0004e373       _pow                       0044f373 f   ucrtd:ucrtbased.dll
 0001:0004e379       _sqrt                      0044f379 f   ucrtd:ucrtbased.dll
 0001:0004e37f       _rand                      0044f37f f   ucrtd:ucrtbased.dll
 0001:0004e385       ___acrt_iob_func           0044f385 f   ucrtd:ucrtbased.dll
 0001:0004e38b       ___stdio_common_vfprintf   0044f38b f   ucrtd:ucrtbased.dll
 0001:0004e391       ___stdio_common_vsprintf   0044f391 f   ucrtd:ucrtbased.dll
 0001:0004e397       _strlen                    0044f397 f   ucrtd:ucrtbased.dll
 0001:0004e39d       __errno                    0044f39d f   ucrtd:ucrtbased.dll
 0001:0004e3a3       _atan2                     0044f3a3 f   ucrtd:ucrtbased.dll
 0001:0004e3a9       _cos                       0044f3a9 f   ucrtd:ucrtbased.dll
 0001:0004e3af       _sin                       0044f3af f   ucrtd:ucrtbased.dll
 0001:0004e3b5       _strtol                    0044f3b5 f   ucrtd:ucrtbased.dll
 0001:0004e3bb       __get_stream_buffer_pointers 0044f3bb f   ucrtd:ucrtbased.dll
 0001:0004e3c1       _fclose                    0044f3c1 f   ucrtd:ucrtbased.dll
 0001:0004e3c7       _fflush                    0044f3c7 f   ucrtd:ucrtbased.dll
 0001:0004e3cd       _fgetc                     0044f3cd f   ucrtd:ucrtbased.dll
 0001:0004e3d3       _fgetpos                   0044f3d3 f   ucrtd:ucrtbased.dll
 0001:0004e3d9       _fputc                     0044f3d9 f   ucrtd:ucrtbased.dll
 0001:0004e3df       _fread                     0044f3df f   ucrtd:ucrtbased.dll
 0001:0004e3e5       _fsetpos                   0044f3e5 f   ucrtd:ucrtbased.dll
 0001:0004e3eb       __fseeki64                 0044f3eb f   ucrtd:ucrtbased.dll
 0001:0004e3f1       _fwrite                    0044f3f1 f   ucrtd:ucrtbased.dll
 0001:0004e3f7       _remove                    0044f3f7 f   ucrtd:ucrtbased.dll
 0001:0004e3fd       _setvbuf                   0044f3fd f   ucrtd:ucrtbased.dll
 0001:0004e403       _ungetc                    0044f403 f   ucrtd:ucrtbased.dll
 0001:0004e409       __lock_file                0044f409 f   ucrtd:ucrtbased.dll
 0001:0004e40f       __unlock_file              0044f40f f   ucrtd:ucrtbased.dll
 0001:0004e415       ___stdio_common_vsprintf_s 0044f415 f   ucrtd:ucrtbased.dll
 0001:0004e41b       _atan                      0044f41b f   ucrtd:ucrtbased.dll
 0001:0004e421       _atoi                      0044f421 f   ucrtd:ucrtbased.dll
 0001:0004e427       _fgets                     0044f427 f   ucrtd:ucrtbased.dll
 0001:0004e42d       _fopen                     0044f42d f   ucrtd:ucrtbased.dll
 0001:0004e433       __CrtDumpMemoryLeaks       0044f433 f   ucrtd:ucrtbased.dll
 0001:0004e439       _srand                     0044f439 f   ucrtd:ucrtbased.dll
 0001:0004e43f       __time64                   0044f43f f   ucrtd:ucrtbased.dll
 0001:0004e445       _puts                      0044f445 f   ucrtd:ucrtbased.dll
 0001:0004e44b       _strcmp                    0044f44b f   ucrtd:ucrtbased.dll
 0001:0004e451       _strcpy                    0044f451 f   ucrtd:ucrtbased.dll
 0001:0004e457       __free_dbg                 0044f457 f   ucrtd:ucrtbased.dll
 0001:0004e45d       __malloc_dbg               0044f45d f   ucrtd:ucrtbased.dll
 0001:0004e463       __seh_filter_exe           0044f463 f   ucrtd:ucrtbased.dll
 0001:0004e469       __set_app_type             0044f469 f   ucrtd:ucrtbased.dll
 0001:0004e46f       ___setusermatherr          0044f46f f   ucrtd:ucrtbased.dll
 0001:0004e475       __configure_narrow_argv    0044f475 f   ucrtd:ucrtbased.dll
 0001:0004e47b       __initialize_narrow_environment 0044f47b f   ucrtd:ucrtbased.dll
 0001:0004e481       __get_initial_narrow_environment 0044f481 f   ucrtd:ucrtbased.dll
 0001:0004e487       __initterm                 0044f487 f   ucrtd:ucrtbased.dll
 0001:0004e48d       __initterm_e               0044f48d f   ucrtd:ucrtbased.dll
 0001:0004e493       _exit                      0044f493 f   ucrtd:ucrtbased.dll
 0001:0004e499       __exit                     0044f499 f   ucrtd:ucrtbased.dll
 0001:0004e49f       __set_fmode                0044f49f f   ucrtd:ucrtbased.dll
 0001:0004e4a5       ___p___argc                0044f4a5 f   ucrtd:ucrtbased.dll
 0001:0004e4ab       ___p___argv                0044f4ab f   ucrtd:ucrtbased.dll
 0001:0004e4b1       __cexit                    0044f4b1 f   ucrtd:ucrtbased.dll
 0001:0004e4b7       __c_exit                   0044f4b7 f   ucrtd:ucrtbased.dll
 0001:0004e4bd       __register_thread_local_exe_atexit_callback 0044f4bd f   ucrtd:ucrtbased.dll
 0001:0004e4c3       __configthreadlocale       0044f4c3 f   ucrtd:ucrtbased.dll
 0001:0004e4c9       __set_new_mode             0044f4c9 f   ucrtd:ucrtbased.dll
 0001:0004e4cf       ___p__commode              0044f4cf f   ucrtd:ucrtbased.dll
 0001:0004e4d5       _terminate                 0044f4d5 f   ucrtd:ucrtbased.dll
 0001:0004e4db       __callnewh                 0044f4db f   ucrtd:ucrtbased.dll
 0001:0004e4e1       _malloc                    0044f4e1 f   ucrtd:ucrtbased.dll
 0001:0004e4e7       __seh_filter_dll           0044f4e7 f   ucrtd:ucrtbased.dll
 0001:0004e4ed       __initialize_onexit_table  0044f4ed f   ucrtd:ucrtbased.dll
 0001:0004e4f3       __register_onexit_function 0044f4f3 f   ucrtd:ucrtbased.dll
 0001:0004e4f9       __execute_onexit_table     0044f4f9 f   ucrtd:ucrtbased.dll
 0001:0004e4ff       __crt_atexit               0044f4ff f   ucrtd:ucrtbased.dll
 0001:0004e505       __crt_at_quick_exit        0044f505 f   ucrtd:ucrtbased.dll
 0001:0004e50b       __controlfp_s              0044f50b f   ucrtd:ucrtbased.dll
 0001:0004e660       _WinMain@16                0044f660 f   SDL2main:SDL_windows_main.obj
 0001:0004e670       _main                      0044f670 f   SDL2main:SDL_windows_main.obj
 0001:0004e7c0       _wmain                     0044f7c0 f   SDL2main:SDL_windows_main.obj
 0001:0004e7c5       _QueryPerformanceCounter@4 0044f7c5 f   kernel32:KERNEL32.dll
 0001:0004e7cb       _GetCurrentProcessId@0     0044f7cb f   kernel32:KERNEL32.dll
 0001:0004e7d1       _GetCurrentThreadId@0      0044f7d1 f   kernel32:KERNEL32.dll
 0001:0004e7d7       _GetSystemTimeAsFileTime@4 0044f7d7 f   kernel32:KERNEL32.dll
 0001:0004e7dd       _InitializeSListHead@4     0044f7dd f   kernel32:KERNEL32.dll
 0001:0004e7e3       _IsDebuggerPresent@0       0044f7e3 f   kernel32:KERNEL32.dll
 0001:0004e7e9       _UnhandledExceptionFilter@4 0044f7e9 f   kernel32:KERNEL32.dll
 0001:0004e7ef       _SetUnhandledExceptionFilter@4 0044f7ef f   kernel32:KERNEL32.dll
 0001:0004e7f5       _GetStartupInfoW@4         0044f7f5 f   kernel32:KERNEL32.dll
 0001:0004e7fb       _IsProcessorFeaturePresent@4 0044f7fb f   kernel32:KERNEL32.dll
 0001:0004e801       _GetModuleHandleW@4        0044f801 f   kernel32:KERNEL32.dll
 0001:0004e807       _GetCurrentProcess@0       0044f807 f   kernel32:KERNEL32.dll
 0001:0004e80d       _TerminateProcess@8        0044f80d f   kernel32:KERNEL32.dll
 0001:0004e813       _GetCommandLineW@0         0044f813 f   kernel32:KERNEL32.dll
 0001:0004e819       _VirtualAlloc@16           0044f819 f   kernel32:KERNEL32.dll
 0001:0004e81f       _VirtualFree@12            0044f81f f   kernel32:KERNEL32.dll
 0001:0004e825       _WideCharToMultiByte@32    0044f825 f   kernel32:KERNEL32.dll
 0001:0004e82b       _SDL_SetMainReady          0044f82b f   SDL2:SDL2.dll
 0001:0004e831       _SDL_ShowSimpleMessageBox  0044f831 f   SDL2:SDL2.dll
 0001:0004e840       ___scrt_stub_for_acrt_initialize 0044f840 f   MSVCRTD:ucrt_stubs.obj
 0001:0004e840       ___vcrt_initialize         0044f840 f   MSVCRTD:ucrt_stubs.obj
 0001:0004e840       ___acrt_initialize         0044f840 f   MSVCRTD:ucrt_stubs.obj
 0001:0004e850       ___acrt_thread_attach      0044f850 f   MSVCRTD:ucrt_stubs.obj
 0001:0004e850       ___scrt_stub_for_acrt_thread_attach 0044f850 f   MSVCRTD:ucrt_stubs.obj
 0001:0004e850       ___vcrt_thread_attach      0044f850 f   MSVCRTD:ucrt_stubs.obj
 0001:0004e860       ___vcrt_thread_detach      0044f860 f   MSVCRTD:ucrt_stubs.obj
 0001:0004e860       ___scrt_stub_for_acrt_thread_detach 0044f860 f   MSVCRTD:ucrt_stubs.obj
 0001:0004e860       ___acrt_thread_detach      0044f860 f   MSVCRTD:ucrt_stubs.obj
 0001:0004e870       ___scrt_stub_for_acrt_uninitialize 0044f870 f   MSVCRTD:ucrt_stubs.obj
 0001:0004e870       ___acrt_uninitialize       0044f870 f   MSVCRTD:ucrt_stubs.obj
 0001:0004e870       ___vcrt_uninitialize       0044f870 f   MSVCRTD:ucrt_stubs.obj
 0001:0004e880       ___vcrt_uninitialize_critical 0044f880 f   MSVCRTD:ucrt_stubs.obj
 0001:0004e880       ___acrt_uninitialize_critical 0044f880 f   MSVCRTD:ucrt_stubs.obj
 0001:0004e880       ___scrt_stub_for_acrt_uninitialize_critical 0044f880 f   MSVCRTD:ucrt_stubs.obj
 0001:0004e890       __is_c_termination_complete 0044f890 f   MSVCRTD:ucrt_stubs.obj
 0001:0004e890       ___scrt_stub_for_is_c_termination_complete 0044f890 f   MSVCRTD:ucrt_stubs.obj
 0001:0004e8a0       __filter_x86_sse2_floating_point_exception 0044f8a0 f   MSVCRTD:x86_exception_filter.obj
 0001:0004e8a0       __filter_x86_sse2_floating_point_exception_default 0044f8a0 f   MSVCRTD:x86_exception_filter.obj
 0002:00000000       ___xc_a                    00459000     MSVCRTD:initializers.obj
 0002:0000030c       ___xc_z                    0045930c     MSVCRTD:initializers.obj
 0002:00000410       ___xi_a                    00459410     MSVCRTD:initializers.obj
 0002:0000071c       ___xi_z                    0045971c     MSVCRTD:initializers.obj
 0002:00000820       ___xp_a                    00459820     MSVCRTD:initializers.obj
 0002:00000924       ___xp_z                    00459924     MSVCRTD:initializers.obj
 0002:00000a28       ___xt_a                    00459a28     MSVCRTD:initializers.obj
 0002:00000b2c       ___xt_z                    00459b2c     MSVCRTD:initializers.obj
 0002:00001498       ??_7CroppedImagePixelMapping@@6B@ 0045a498     CW2Creature.obj
 0002:000014a8       ??_7exception@std@@6B@     0045a4a8     CW2Creature.obj
 0002:000014b4       ??_C@_0BC@EOODALEL@Unknown?5exception@ 0045a4b4     CW2Creature.obj
 0002:000014d0       ??_7bad_alloc@std@@6B@     0045a4d0     CW2Creature.obj
 0002:000014e0       ??_7bad_array_new_length@std@@6B@ 0045a4e0     CW2Creature.obj
 0002:000014ec       ??_C@_0BF@KINCDENJ@bad?5array?5new?5length@ 0045a4ec     CW2Creature.obj
 0002:00001508       ??_C@_0BB@FCMFBGOM@invalid?5argument@ 0045a508     CW2Creature.obj
 0002:0000151c       ??_C@_02DKCKIIND@?$CFs@    0045a51c     CW2Creature.obj
 0002:00001520       ??_C@_0GI@MNEMJBML@C?3?2Program?5Files?5?$CIx86?$CJ?2Microsof@ 0045a520     CW2Creature.obj
 0002:000015a0       ??_C@_1NA@MJBOBEJL@?$AAC?$AA?3?$AA?2?$AAP?$AAr?$AAo?$AAg?$AAr?$AAa?$AAm?$AA?5?$AAF?$AAi?$AAl?$AAe@ 0045a5a0     CW2Creature.obj
 0002:000016a0       ??_C@_1EK@NIFDJFDG@?$AAs?$AAt?$AAd?$AA?3?$AA?3?$AA_?$AAA?$AAd?$AAj?$AAu?$AAs?$AAt?$AA_?$AAm?$AAa@ 0045a6a0     CW2Creature.obj
 0002:000016f8       ??_C@_1CG@JNLFBNGN@?$AA?$CC?$AAi?$AAn?$AAv?$AAa?$AAl?$AAi?$AAd?$AA?5?$AAa?$AAr?$AAg?$AAu?$AAm?$AAe@ 0045a6f8     CW2Creature.obj
 0002:00001728       ??_C@_0BJ@LFDBABJJ@ITERATOR?5LIST?5CORRUPTED?$CB@ 0045a728     CW2Creature.obj
 0002:00001748       ??_C@_1FM@FOFDAEGI@?$AAs?$AAt?$AAd?$AA?3?$AA?3?$AA_?$AAI?$AAt?$AAe?$AAr?$AAa?$AAt?$AAo?$AAr?$AA_@ 0045a748     CW2Creature.obj
 0002:000017b8       ??_C@_1DG@PLBPCAEM@?$AA?$CC?$AAI?$AAT?$AAE?$AAR?$AAA?$AAT?$AAO?$AAR?$AA?5?$AAL?$AAI?$AAS?$AAT?$AA?5@ 0045a7b8     CW2Creature.obj
 0002:000017f8       ??_C@_0BA@JFNIOLAK@string?5too?5long@ 0045a7f8     CW2Creature.obj
 0002:0000180c       ??_C@_0CN@GHCLOPHF@Error?5in?5setting?5pixel?9?5should?5@ 0045a80c     CW2Creature.obj
 0002:00001848       ??_C@_0JM@GIEKPEHN@WARNING?3?5Attempted?5write?5to?5sur@ 0045a848     CW2Creature.obj
 0002:00001908       ??_7DisplayableObjectContainer@@6B@ 0045a908     CW2Creature.obj
 0002:00001914       ??_C@_02BBAHNLBA@?$CFp@    0045a914     CW2Creature.obj
 0002:00001918       ??_C@_0BB@GCADKGJO@map?1set?5too?5long@ 0045a918     CW2Creature.obj
 0002:0000192c       ??_C@_0DC@BNOGMHFL@Error?5creating?5surface?5in?5RawIm@ 0045a92c     CW2Creature.obj
 0002:00001968       ??_C@_0BD@IFIGDDIC@?7?7?$CL?$CL?$CL?5Load?5image?3?5@ 0045a968     CW2Creature.obj
 0002:00001980       ??_C@_0DJ@OJEPJEDH@ImageManager?3?3getImagePtrbyURL?$CI@ 0045a980     CW2Creature.obj
 0002:000019c4       ??_C@_0BJ@LOCNEGOL@Failed?5to?5load?5image?5?$CFs?6@ 0045a9c4     CW2Creature.obj
 0002:000019e8       ??_7CW2Object@@6BDisplayableObject@@@ 0045a9e8     CW2Creature.obj
 0002:00001a30       ??_7CW2Object@@6BDisplayableObjectContainer@@@ 0045aa30     CW2Creature.obj
 0002:00001a40       ??_7CW2Creature@@6BDisplayableObject@@@ 0045aa40     CW2Creature.obj
 0002:00001a8c       ??_7CW2Creature@@6BDisplayableObjectContainer@@@ 0045aa8c     CW2Creature.obj
 0002:00001a98       ??_C@_04NAFIGEAM@hurt@     0045aa98     CW2Creature.obj
 0002:00001aa0       ??_C@_05PPJGDEGI@?$CFi?1?$CFi@ 0045aaa0     CW2Creature.obj
 0002:00001aac       ??_7Player@@6BDisplayableObject@@@ 0045aaac     CW2Creature.obj
 0002:00001af8       ??_7Player@@6BDisplayableObjectContainer@@@ 0045aaf8     CW2Creature.obj
 0002:00001b08       ??_7Monster@@6BDisplayableObject@@@ 0045ab08     CW2Creature.obj
 0002:00001b5c       ??_7Monster@@6BDisplayableObjectContainer@@@ 0045ab5c     CW2Creature.obj
 0002:00001b6c       ??_7AggressiveMonster@@6BDisplayableObject@@@ 0045ab6c     CW2Creature.obj
 0002:00001bc0       ??_7AggressiveMonster@@6BDisplayableObjectContainer@@@ 0045abc0     CW2Creature.obj
 0002:00001bd0       ??_7PeacefulMonster@@6BDisplayableObject@@@ 0045abd0     CW2Creature.obj
 0002:00001c24       ??_7PeacefulMonster@@6BDisplayableObjectContainer@@@ 0045ac24     CW2Creature.obj
 0002:00001c34       ??_7NomalMonster@@6BDisplayableObject@@@ 0045ac34     CW2Creature.obj
 0002:00001c88       ??_7NomalMonster@@6BDisplayableObjectContainer@@@ 0045ac88     CW2Creature.obj
 0002:00001c98       ??_7ImagePixelMapping@@6B@ 0045ac98     CW2Creature.obj
 0002:00001ca8       ??_7ImagePixelMappingShiftXY@@6B@ 0045aca8     CW2Creature.obj
 0002:00001cb8       ??_7CW2ImagePixelMapping@@6B@ 0045acb8     CW2Creature.obj
 0002:00001cc8       ??_7CW2AnimatedManager@@6B@ 0045acc8     CW2Creature.obj
 0002:00001cd4       ??_C@_0BO@PFKOHNJC@vector?5subscript?5out?5of?5range@ 0045acd4     CW2Creature.obj
 0002:00001cf8       ??_C@_0GH@KMHDIFOI@C?3?2Program?5Files?5?$CIx86?$CJ?2Microsof@ 0045acf8     CW2Creature.obj
 0002:00001d78       ??_C@_1MO@NOHEJINP@?$AAC?$AA?3?$AA?2?$AAP?$AAr?$AAo?$AAg?$AAr?$AAa?$AAm?$AA?5?$AAF?$AAi?$AAl?$AAe@ 0045ad78     CW2Creature.obj
 0002:00001e70       ??_C@_1MO@FCDMCIDO@?$AAs?$AAt?$AAd?$AA?3?$AA?3?$AAv?$AAe?$AAc?$AAt?$AAo?$AAr?$AA?$DM?$AAc?$AAl?$AAa@ 0045ae70     CW2Creature.obj
 0002:00001f68       ??_C@_1EA@LEKOKFNB@?$AA?$CC?$AAv?$AAe?$AAc?$AAt?$AAo?$AAr?$AA?5?$AAs?$AAu?$AAb?$AAs?$AAc?$AAr?$AAi@ 0045af68     CW2Creature.obj
 0002:00001fb8       ??_C@_1MK@PODALHBD@?$AAs?$AAt?$AAd?$AA?3?$AA?3?$AAv?$AAe?$AAc?$AAt?$AAo?$AAr?$AA?$DM?$AAc?$AAl?$AAa@ 0045afb8     CW2Creature.obj
 0002:000020ac       ??_C@_0BJ@DHFDPMIM@invalid?5vector?5subscript@ 0045b0ac     CW2Creature.obj
 0002:000020cc       ??_C@_0BP@OLDKBHLM@map?1set?5iterators?5incompatible@ 0045b0cc     CW2Creature.obj
 0002:000020f8       ??_C@_0GG@BJFDHGEO@C?3?2Program?5Files?5?$CIx86?$CJ?2Microsof@ 0045b0f8     CW2Creature.obj
 0002:00002178       ??_C@_1MM@JHPNFGGF@?$AAC?$AA?3?$AA?2?$AAP?$AAr?$AAo?$AAg?$AAr?$AAa?$AAm?$AA?5?$AAF?$AAi?$AAl?$AAe@ 0045b178     CW2Creature.obj
 0002:00002270       ??_C@_1EC@JLIDLCDH@?$AA?$CC?$AAm?$AAa?$AAp?$AA?1?$AAs?$AAe?$AAt?$AA?5?$AAi?$AAt?$AAe?$AAr?$AAa?$AAt@ 0045b270     CW2Creature.obj
 0002:000022c0       ??_C@_1BPG@KHABJGCD@?$AAs?$AAt?$AAd?$AA?3?$AA?3?$AA_?$AAT?$AAr?$AAe?$AAe?$AA_?$AAc?$AAo?$AAn?$AAs@ 0045b2c0     CW2Creature.obj
 0002:0000251c       ??_C@_0DG@LCFNIIPB@cannot?5dereference?5value?9initia@ 0045b51c     CW2Creature.obj
 0002:00002560       ??_C@_1BPE@BBFPAJEC@?$AAs?$AAt?$AAd?$AA?3?$AA?3?$AA_?$AAT?$AAr?$AAe?$AAe?$AA_?$AAc?$AAo?$AAn?$AAs@ 0045b560     CW2Creature.obj
 0002:000027b8       ??_C@_1HA@ILGCNILF@?$AA?$CC?$AAc?$AAa?$AAn?$AAn?$AAo?$AAt?$AA?5?$AAd?$AAe?$AAr?$AAe?$AAf?$AAe?$AAr@ 0045b7b8     CW2Creature.obj
 0002:00002840       ??_C@_0CI@OKFEHCEB@cannot?5dereference?5end?5map?1set?5@ 0045b840     CW2Creature.obj
 0002:00002870       ??_C@_1FE@NKHAAGMB@?$AA?$CC?$AAc?$AAa?$AAn?$AAn?$AAo?$AAt?$AA?5?$AAd?$AAe?$AAr?$AAe?$AAf?$AAe?$AAr@ 0045b870     CW2Creature.obj
 0002:000028d4       ??_C@_0DA@GGPHOHEL@map?1set?5erase?5iterator?5from?5inc@ 0045b8d4     CW2Creature.obj
 0002:00002910       ??_C@_1DJG@KIJFPGMB@?$AAs?$AAt?$AAd?$AA?3?$AA?3?$AA_?$AAT?$AAr?$AAe?$AAe?$AA?$DM?$AAc?$AAl?$AAa?$AAs@ 0045b910     CW2Creature.obj
 0002:00002d60       ??_C@_1GE@FENJBJJO@?$AA?$CC?$AAm?$AAa?$AAp?$AA?1?$AAs?$AAe?$AAt?$AA?5?$AAe?$AAr?$AAa?$AAs?$AAe?$AA?5@ 0045bd60     CW2Creature.obj
 0002:00002dd8       ??_C@_0CE@JAJNKOFK@cannot?5erase?5map?1set?5end?$CI?$CJ?5iter@ 0045bdd8     CW2Creature.obj
 0002:00002e08       ??_C@_1EM@MEAEPHLP@?$AA?$CC?$AAc?$AAa?$AAn?$AAn?$AAo?$AAt?$AA?5?$AAe?$AAr?$AAa?$AAs?$AAe?$AA?5?$AAm@ 0045be08     CW2Creature.obj
 0002:00002e68       ??_7?$_Ref_count@VRawImageData@@@std@@6B@ 0045be68     CW2Creature.obj
 0002:00002e80       ??_7?$_Ref_count_obj2@VCW2ImagePixelMapping@@@std@@6B@ 0045be80     CW2Creature.obj
 0002:00002e94       ??_C@_0BO@OCPIDEK@Template?5function?5exception?3?5@ 0045be94     CW2Creature.obj
 0002:00002ebc       ??_7?$_Ref_count_obj2@VCW2AnimatedManager@@@std@@6B@ 0045bebc     CW2Creature.obj
 0002:00002ed0       ??_C@_0CB@PKNBJHCN@containers?5incompatible?5for?5swa@ 0045bed0     CW2Creature.obj
 0002:00002ef8       ??_C@_1BG@JNFEFFGJ@?$AAs?$AAt?$AAd?$AA?3?$AA?3?$AA_?$AAP?$AAo?$AAc?$AAs@ 0045bef8     CW2Creature.obj
 0002:00002f18       ??_C@_1EG@DFCHKBDO@?$AA?$CC?$AAc?$AAo?$AAn?$AAt?$AAa?$AAi?$AAn?$AAe?$AAr?$AAs?$AA?5?$AAi?$AAn?$AAc@ 0045bf18     CW2Creature.obj
 0002:00002f6c       ??_C@_0BA@FOIKENOD@vector?5too?5long@ 0045bf6c     CW2Creature.obj
 0002:00002f80       ??_C@_0BJ@HAJGEHKO@transposed?5pointer?5range@ 0045bf80     CW2Creature.obj
 0002:00002fa0       ??_C@_0GJ@MPIAFDPJ@C?3?2Program?5Files?5?$CIx86?$CJ?2Microsof@ 0045bfa0     CW2Creature.obj
 0002:00003020       ??_C@_1NC@IFKPGDLA@?$AAC?$AA?3?$AA?2?$AAP?$AAr?$AAo?$AAg?$AAr?$AAa?$AAm?$AA?5?$AAF?$AAi?$AAl?$AAe@ 0045c020     CW2Creature.obj
 0002:0000311c       ??_C@_1CG@LJCPDKEJ@?$AAs?$AAt?$AAd?$AA?3?$AA?3?$AA_?$AAV?$AAe?$AAr?$AAi?$AAf?$AAy?$AA_?$AAr?$AAa@ 0045c11c     CW2Creature.obj
 0002:0000314c       ??_C@_1DG@FJIKMGFD@?$AA?$CC?$AAt?$AAr?$AAa?$AAn?$AAs?$AAp?$AAo?$AAs?$AAe?$AAd?$AA?5?$AAp?$AAo?$AAi@ 0045c14c     CW2Creature.obj
 0002:0000318c       ??_C@_0BD@FEEMDEPI@invalid?5comparator@ 0045c18c     CW2Creature.obj
 0002:000031a4       ??_C@_1CI@JONCLBEJ@?$AAs?$AAt?$AAd?$AA?3?$AA?3?$AA_?$AAD?$AAe?$AAb?$AAu?$AAg?$AA_?$AAl?$AAt?$AA_@ 0045c1a4     CW2Creature.obj
 0002:000031d4       ??_C@_1CK@NDNHPKPI@?$AA?$CC?$AAi?$AAn?$AAv?$AAa?$AAl?$AAi?$AAd?$AA?5?$AAc?$AAo?$AAm?$AAp?$AAa?$AAr@ 0045c1d4     CW2Creature.obj
 0002:00003208       __real@3fe0000000000000    0045c208     CW2Creature.obj
 0002:00003218       __real@4072c00000000000    0045c218     CW2Creature.obj
 0002:00003790       ??_7CW2Engine@@6BDisplayableObjectContainer@@@ 0045c790     CW2Engine.obj
 0002:0000383c       ??_7CW2Engine@@6BFilterPoints@@@ 0045c83c     CW2Engine.obj
 0002:00003854       ??_C@_0CE@EAMOGAIE@vector?5erase?5iterator?5outside?5r@ 0045c854     CW2Engine.obj
 0002:00003880       ??_C@_1LO@PHHLNKEP@?$AAs?$AAt?$AAd?$AA?3?$AA?3?$AAv?$AAe?$AAc?$AAt?$AAo?$AAr?$AA?$DM?$AAc?$AAl?$AAa@ 0045c880     CW2Engine.obj
 0002:00003968       ??_C@_1EM@BEMPOGMM@?$AA?$CC?$AAv?$AAe?$AAc?$AAt?$AAo?$AAr?$AA?5?$AAe?$AAr?$AAa?$AAs?$AAe?$AA?5?$AAi@ 0045c968     CW2Engine.obj
 0002:000039c4       ??_C@_0DC@KEKNBAEB@can?8t?5increment?5value?9initializ@ 0045c9c4     CW2Engine.obj
 0002:00003a00       ??_C@_1PC@LAHDNGHL@?$AAs?$AAt?$AAd?$AA?3?$AA?3?$AA_?$AAV?$AAe?$AAc?$AAt?$AAo?$AAr?$AA_?$AAc?$AAo@ 0045ca00     CW2Engine.obj
 0002:00003b28       ??_C@_1GI@EDCILPL@?$AA?$CC?$AAc?$AAa?$AAn?$AA?8?$AAt?$AA?5?$AAi?$AAn?$AAc?$AAr?$AAe?$AAm?$AAe?$AAn@ 0045cb28     CW2Engine.obj
 0002:00003ba4       ??_C@_0CJ@OAAAAGPM@can?8t?5increment?5vector?5iterator@ 0045cba4     CW2Engine.obj
 0002:00003bd8       ??_C@_1FG@LDPPKMGP@?$AA?$CC?$AAc?$AAa?$AAn?$AA?8?$AAt?$AA?5?$AAi?$AAn?$AAc?$AAr?$AAe?$AAm?$AAe?$AAn@ 0045cbd8     CW2Engine.obj
 0002:00003c40       ??_C@_0BO@CAOBBIOC@vector?5iterators?5incompatible@ 0045cc40     CW2Engine.obj
 0002:00003c68       ??_C@_1OK@EOCJDFAL@?$AAs?$AAt?$AAd?$AA?3?$AA?3?$AA_?$AAV?$AAe?$AAc?$AAt?$AAo?$AAr?$AA_?$AAc?$AAo@ 0045cc68     CW2Engine.obj
 0002:00003d80       ??_C@_1EA@DJDGNIII@?$AA?$CC?$AAv?$AAe?$AAc?$AAt?$AAo?$AAr?$AA?5?$AAi?$AAt?$AAe?$AAr?$AAa?$AAt?$AAo@ 0045cd80     CW2Engine.obj
 0002:00003dcc       ??_C@_0CO@LHPFLLJB@cannot?5seek?5value?9initialized?5v@ 0045cdcc     CW2Engine.obj
 0002:00003e08       ??_C@_1PI@JIEMALDJ@?$AAs?$AAt?$AAd?$AA?3?$AA?3?$AA_?$AAV?$AAe?$AAc?$AAt?$AAo?$AAr?$AA_?$AAc?$AAo@ 0045ce08     CW2Engine.obj
 0002:00003f38       ??_C@_1GA@EIHBFEJD@?$AA?$CC?$AAc?$AAa?$AAn?$AAn?$AAo?$AAt?$AA?5?$AAs?$AAe?$AAe?$AAk?$AA?5?$AAv?$AAa@ 0045cf38     CW2Engine.obj
 0002:00003fac       ??_C@_0CJ@DIFMEJBE@cannot?5seek?5vector?5iterator?5bef@ 0045cfac     CW2Engine.obj
 0002:00003fe0       ??_C@_1FG@JCGKNFIB@?$AA?$CC?$AAc?$AAa?$AAn?$AAn?$AAo?$AAt?$AA?5?$AAs?$AAe?$AAe?$AAk?$AA?5?$AAv?$AAe@ 0045cfe0     CW2Engine.obj
 0002:00004048       ??_C@_0CG@JDIOCKHH@cannot?5seek?5vector?5iterator?5aft@ 0045d048     CW2Engine.obj
 0002:00004078       ??_C@_1FA@LCODAPOP@?$AA?$CC?$AAc?$AAa?$AAn?$AAn?$AAo?$AAt?$AA?5?$AAs?$AAe?$AAe?$AAk?$AA?5?$AAv?$AAe@ 0045d078     CW2Engine.obj
 0002:00004cdc       ?_BUF_SIZE@?$basic_string@DU?$char_traits@D@std@@V?$allocator@D@2@@std@@0IB 0045dcdc     CW2GameState.obj
 0002:00004ce4       ??_7bad_cast@std@@6B@      0045dce4     CW2GameState.obj
 0002:00004cf0       ??_C@_08EPJLHIJG@bad?5cast@ 0045dcf0     CW2GameState.obj
 0002:00004cfc       ??_C@_0BG@HGEDEDEC@invalid?5stoi?5argument@ 0045dcfc     CW2GameState.obj
 0002:00004d18       ??_C@_0BL@MFFNMGGC@stoi?5argument?5out?5of?5range@ 0045dd18     CW2GameState.obj
 0002:00004d38       ??_C@_02NJPGOMH@?$CFf@     0045dd38     CW2GameState.obj
 0002:00004d40       ??_7CW2GameState@@6B@      0045dd40     CW2GameState.obj
 0002:00004d6c       ??_7InitState@@6B@         0045dd6c     CW2GameState.obj
 0002:00004d98       ??_7MenuState@@6B@         0045dd98     CW2GameState.obj
 0002:00004dc4       ??_7PlayState@@6B@         0045ddc4     CW2GameState.obj
 0002:00004df0       ??_7LoseState@@6B@         0045ddf0     CW2GameState.obj
 0002:00004e1c       ??_7HighscoreState@@6B@    0045de1c     CW2GameState.obj
 0002:00004e48       ??_7CW2Magic@@6BDisplayableObject@@@ 0045de48     CW2GameState.obj
 0002:00004e90       ??_7CW2Magic@@6BDisplayableObjectContainer@@@ 0045de90     CW2GameState.obj
 0002:00004e9c       ??_C@_0BL@PIANANO@images?2magic_31x31px_1?4png@ 0045de9c     CW2GameState.obj
 0002:00004ebc       ??_C@_0BL@IJBEKCHA@images?2magic_31x31px_2?4png@ 0045debc     CW2GameState.obj
 0002:00004edc       ??_C@_0BE@BNPPAHFH@magic?5created?0?5ID?3?5@ 0045dedc     CW2GameState.obj
 0002:00004ef4       ??_C@_0BA@MBIHHABC@magic?5destroied@ 0045def4     CW2GameState.obj
 0002:00004f08       ??_C@_0BB@NBKAFCKK@magic?5m_dRange?3?5@ 0045df08     CW2GameState.obj
 0002:00004f1c       ??_C@_0BI@EHMEMDOO@magic?5delete?5m_dRange?3?5@ 0045df1c     CW2GameState.obj
 0002:00004f38       ??_C@_05PGIOBOGC@Magic@    0045df38     CW2GameState.obj
 0002:00004f44       ??_7CW2Wand@@6BDisplayableObject@@@ 0045df44     CW2GameState.obj
 0002:00004f90       ??_7CW2Wand@@6BDisplayableObjectContainer@@@ 0045df90     CW2GameState.obj
 0002:00004f9c       ??_C@_0BJ@LINPLKEL@images?2wand1_32x32px?4png@ 0045df9c     CW2GameState.obj
 0002:00004fbc       ??_C@_0BJ@MELOJPJA@images?2wand2_32x32px?4png@ 0045dfbc     CW2GameState.obj
 0002:00004fdc       ??_C@_0N@KOIMEOLM@wand?5created@ 0045dfdc     CW2GameState.obj
 0002:00004fec       ??_C@_0P@FNFFBIKC@wand?5destroied@ 0045dfec     CW2GameState.obj
 0002:00005000       ??_C@_08JIMIDKJL@add?5succ@ 0045e000     CW2GameState.obj
 0002:0000500c       ??_C@_04HDKMMDNG@Wand@     0045e00c     CW2GameState.obj
 0002:00005018       ??_7?$basic_filebuf@DU?$char_traits@D@std@@@std@@6B@ 0045e018     CW2GameState.obj
 0002:00005064       ??_7?$basic_ifstream@DU?$char_traits@D@std@@@std@@6B@ 0045e064     CW2GameState.obj
 0002:0000506c       ??_8?$basic_ifstream@DU?$char_traits@D@std@@@std@@7B@ 0045e06c     CW2GameState.obj
 0002:0000507c       ??_7?$basic_stringbuf@DU?$char_traits@D@std@@V?$allocator@D@2@@std@@6B@ 0045e07c     CW2GameState.obj
 0002:000050c8       ??_7?$basic_stringstream@DU?$char_traits@D@std@@V?$allocator@D@2@@std@@6B@ 0045e0c8     CW2GameState.obj
 0002:000050d0       ??_8?$basic_stringstream@DU?$char_traits@D@std@@V?$allocator@D@2@@std@@7B?$basic_istream@DU?$char_traits@D@std@@@1@@ 0045e0d0     CW2GameState.obj
 0002:000050dc       ??_8?$basic_stringstream@DU?$char_traits@D@std@@V?$allocator@D@2@@std@@7B?$basic_ostream@DU?$char_traits@D@std@@@1@@ 0045e0dc     CW2GameState.obj
 0002:000050ec       ??_7?$basic_ofstream@DU?$char_traits@D@std@@@std@@6B@ 0045e0ec     CW2GameState.obj
 0002:000050f4       ??_8?$basic_ofstream@DU?$char_traits@D@std@@@std@@7B@ 0045e0f4     CW2GameState.obj
 0002:00005100       ??_C@_1BME@NCIPHHDN@?$AAs?$AAt?$AAd?$AA?3?$AA?3?$AAv?$AAe?$AAc?$AAt?$AAo?$AAr?$AA?$DM?$AAc?$AAl?$AAa@ 0045e100     CW2GameState.obj
 0002:00005320       ??_C@_1LG@EGAEMKII@?$AAs?$AAt?$AAd?$AA?3?$AA?3?$AAv?$AAe?$AAc?$AAt?$AAo?$AAr?$AA?$DM?$AAc?$AAl?$AAa@ 0045e320     CW2GameState.obj
 0002:000053fc       ??_C@_0DE@CHADHGFF@can?8t?5dereference?5value?9initial@ 0045e3fc     CW2GameState.obj
 0002:00005440       ??_C@_1PA@DMJFJEGO@?$AAs?$AAt?$AAd?$AA?3?$AA?3?$AA_?$AAV?$AAe?$AAc?$AAt?$AAo?$AAr?$AA_?$AAc?$AAo@ 0045e440     CW2GameState.obj
 0002:00005560       ??_C@_1GM@FNBFNBEL@?$AA?$CC?$AAc?$AAa?$AAn?$AA?8?$AAt?$AA?5?$AAd?$AAe?$AAr?$AAe?$AAf?$AAe?$AAr?$AAe@ 0045e560     CW2GameState.obj
 0002:000055e4       ??_C@_0CP@MDHADBHN@can?8t?5dereference?5out?5of?5range?5@ 0045e5e4     CW2GameState.obj
 0002:00005620       ??_C@_1GC@JDCKOLAC@?$AA?$CC?$AAc?$AAa?$AAn?$AA?8?$AAt?$AA?5?$AAd?$AAe?$AAr?$AAe?$AAf?$AAe?$AAr?$AAe@ 0045e620     CW2GameState.obj
 0002:00005698       ??_C@_0BO@LFGPDMIB@string?5subscript?5out?5of?5range@ 0045e698     CW2GameState.obj
 0002:000056c0       ??_C@_0GI@DEIBJNCC@C?3?2Program?5Files?5?$CIx86?$CJ?2Microsof@ 0045e6c0     CW2GameState.obj
 0002:00005740       ??_C@_1NA@CHJCONEK@?$AAC?$AA?3?$AA?2?$AAP?$AAr?$AAo?$AAg?$AAr?$AAa?$AAm?$AA?5?$AAF?$AAi?$AAl?$AAe@ 0045e740     CW2GameState.obj
 0002:00005840       ??_C@_1EA@OADAPGGK@?$AA?$CC?$AAs?$AAt?$AAr?$AAi?$AAn?$AAg?$AA?5?$AAs?$AAu?$AAb?$AAs?$AAc?$AAr?$AAi@ 0045e840     CW2GameState.obj
 0002:0000588c       ??_C@_0CB@EJBNKHHC@invalid?5to?5pop_back?5empty?5strin@ 0045e88c     CW2GameState.obj
 0002:000058b8       ??_C@_1LI@HCBEBID@?$AAs?$AAt?$AAd?$AA?3?$AA?3?$AAb?$AAa?$AAs?$AAi?$AAc?$AA_?$AAs?$AAt?$AAr?$AAi@ 0045e8b8     CW2GameState.obj
 0002:00005998       ??_C@_1EG@GNALHNOG@?$AA?$CC?$AAi?$AAn?$AAv?$AAa?$AAl?$AAi?$AAd?$AA?5?$AAt?$AAo?$AA?5?$AAp?$AAo?$AAp@ 0045e998     CW2GameState.obj
 0002:000059f0       ??_C@_1LO@NPPEKPAI@?$AAs?$AAt?$AAd?$AA?3?$AA?3?$AAb?$AAa?$AAs?$AAi?$AAc?$AA_?$AAs?$AAt?$AAr?$AAi@ 0045e9f0     CW2GameState.obj
 0002:00005ad4       ??_C@_0BP@PFIPNLNI@front?$CI?$CJ?5called?5on?5empty?5string@ 0045ead4     CW2GameState.obj
 0002:00005b00       ??_C@_1LC@BJDDPGPA@?$AAs?$AAt?$AAd?$AA?3?$AA?3?$AAb?$AAa?$AAs?$AAi?$AAc?$AA_?$AAs?$AAt?$AAr?$AAi@ 0045eb00     CW2GameState.obj
 0002:00005bd8       ??_C@_1EC@DINNLDHA@?$AA?$CC?$AAf?$AAr?$AAo?$AAn?$AAt?$AA?$CI?$AA?$CJ?$AA?5?$AAc?$AAa?$AAl?$AAl?$AAe?$AAd@ 0045ebd8     CW2GameState.obj
 0002:00005c28       ??_C@_0BI@CFPLBAOH@invalid?5string?5position@ 0045ec28     CW2GameState.obj
 0002:00005c48       ??_7?$_Ref_count_obj2@VCW2TileManager@@@std@@6B@ 0045ec48     CW2GameState.obj
 0002:00005c60       ??_C@_0PC@KBJGOMJG@You?5cannot?5concatenate?5the?5same@ 0045ec60     CW2GameState.obj
 0002:00005d84       ??_C@_1CA@DFIMIFBJ@?$AAs?$AAt?$AAd?$AA?3?$AA?3?$AAo?$AAp?$AAe?$AAr?$AAa?$AAt?$AAo?$AAr?$AA?5?$AA?$CL@ 0045ed84     CW2GameState.obj
 0002:00005db0       ??_C@_1BPK@IDOEFEOL@?$AA?$CC?$AAY?$AAo?$AAu?$AA?5?$AAc?$AAa?$AAn?$AAn?$AAo?$AAt?$AA?5?$AAc?$AAo?$AAn@ 0045edb0     CW2GameState.obj
 0002:00006010       __real@4034000000000000    0045f010     CW2GameState.obj
 0002:00006020       __real@4039000000000000    0045f020     CW2GameState.obj
 0002:00006040       __xmm@80000000000000008000000000000000 0045f040     CW2GameState.obj
 0002:0000634e       ??_C@_00CNPNBAHC@@         0045f34e     CW2StateManager.obj
 0002:00006350       ??_C@_0BC@GBKNKJII@MenuState?5created@ 0045f350     CW2StateManager.obj
 0002:0000636c       ??_7GameoverState@@6B@     0045f36c     CW2StateManager.obj
 0002:00006398       ??_C@_1KK@FGODBFAO@?$AAs?$AAt?$AAd?$AA?3?$AA?3?$AAv?$AAe?$AAc?$AAt?$AAo?$AAr?$AA?$DM?$AAc?$AAl?$AAa@ 0045f398     CW2StateManager.obj
 0002:00006a4c       ??_7TileManager@@6B@       0045fa4c     CW2TileManager.obj
 0002:00006a5c       ??_7CW2TileManager@@6B@    0045fa5c     CW2TileManager.obj
 0002:00006a68       ??_C@_1HC@HBCEAHKD@?$AAs?$AAt?$AAd?$AA?3?$AA?3?$AAv?$AAe?$AAc?$AAt?$AAo?$AAr?$AA?$DM?$AAi?$AAn?$AAt@ 0045fa68     CW2TileManager.obj
 0002:00006af0       ??_C@_1BCM@BMJMJMGN@?$AAs?$AAt?$AAd?$AA?3?$AA?3?$AAv?$AAe?$AAc?$AAt?$AAo?$AAr?$AA?$DM?$AAc?$AAl?$AAa@ 0045faf0     CW2TileManager.obj
 0002:00006c58       ??_C@_1LO@MGELDLOO@?$AAs?$AAt?$AAd?$AA?3?$AA?3?$AA_?$AAV?$AAe?$AAc?$AAt?$AAo?$AAr?$AA_?$AAc?$AAo@ 0045fc58     CW2TileManager.obj
 0002:00006d3c       ??_C@_0DI@PBEELKIF@vector?5iterators?5in?5range?5are?5f@ 0045fd3c     CW2TileManager.obj
 0002:00006d80       ??_C@_1HE@KBMFDAFB@?$AA?$CC?$AAv?$AAe?$AAc?$AAt?$AAo?$AAr?$AA?5?$AAi?$AAt?$AAe?$AAr?$AAa?$AAt?$AAo@ 0045fd80     CW2TileManager.obj
 0002:00006e0c       ??_C@_0CB@LIAHLBAO@vector?5iterator?5range?5transpose@ 0045fe0c     CW2TileManager.obj
 0002:00006e38       ??_C@_1EG@ODKBEHFN@?$AA?$CC?$AAv?$AAe?$AAc?$AAt?$AAo?$AAr?$AA?5?$AAi?$AAt?$AAe?$AAr?$AAa?$AAt?$AAo@ 0045fe38     CW2TileManager.obj
 0002:00007370       ??_7DragableBaseClassObject@@6B@ 00460370     DraggingDemo.obj
 0002:000073c8       ??_7DragableObject@@6B@    004603c8     DraggingDemo.obj
 0002:00007420       ??_7DragableImageObject@@6B@ 00460420     DraggingDemo.obj
 0002:00007478       ??_7ImageObject@@6B@       00460478     DraggingDemo.obj
 0002:000074b8       ?MY_PI@DrawingSurface@@2NB 004604b8     DrawingSurface.obj
 0002:00007980       ??_C@_0LN@HOLHFHJI@WARNING?3?5Attempted?5blit?5to?5lock@ 00460980     DrawingSurface.obj
 0002:00007a68       __real@3fe0c152382d7365    00460a68     DrawingSurface.obj
 0002:00007a78       __real@3ff0000000000000    00460a78     DrawingSurface.obj
 0002:00007a88       __real@3ff8000000000000    00460a88     DrawingSurface.obj
 0002:00007a98       __real@3ff921fb54442d18    00460a98     DrawingSurface.obj
 0002:00007aa8       __real@4000000000000000    00460aa8     DrawingSurface.obj
 0002:00007ab8       __real@4008000000000000    00460ab8     DrawingSurface.obj
 0002:00007ac8       __real@400921fb54442d18    00460ac8     DrawingSurface.obj
 0002:00007ad8       __real@400f6a7a2955385e    00460ad8     DrawingSurface.obj
 0002:00007ae8       __real@4010000000000000    00460ae8     DrawingSurface.obj
 0002:00007af8       __real@401921fb54442d18    00460af8     DrawingSurface.obj
 0002:00007fcc       ??_7FlashingDemo@@6BDisplayableObjectContainer@@@ 00460fcc     FlashingDemo.obj
 0002:00008078       ??_7FlashingDemo@@6BFilterPoints@@@ 00461078     FlashingDemo.obj
 0002:000085a0       ??_7MappableImageObject@@6B@ 004615a0     ImageMappingDemo.obj
 0002:000085f8       __real@3f1a36e2eb1c432d    004615f8     ImageMappingDemo.obj
 0002:00008608       __real@4059000000000000    00461608     ImageMappingDemo.obj
 0002:00008618       __real@c059000000000000    00461618     ImageMappingDemo.obj
 0002:00008b64       ??_7JigsawPiece@@6BDragableImageObject@@@ 00461b64     JigsawDemo.obj
 0002:00008bc0       ??_7JigsawPiece@@6BImagePixelMapping@@@ 00461bc0     JigsawDemo.obj
 0002:00008bcc       ??_C@_0CA@ONKMLLKE@?$CF05dx?$CF07dy?$CF07dr?$CF02dc?$CF07dr?$CF07d?$AN?6@ 00461bcc     JigsawDemo.obj
 0002:00008bf4       ??_C@_0BI@OPENOKOK@checkJoinBottom?5success@ 00461bf4     JigsawDemo.obj
 0002:00008c10       ??_C@_0BF@IKBLDNLD@checkJoinTop?5success@ 00461c10     JigsawDemo.obj
 0002:00008c2c       ??_C@_0BH@OIGOFELM@checkJoinRight?5success@ 00461c2c     JigsawDemo.obj
 0002:00008c48       ??_C@_0BG@NHPDEGHB@checkJoinLeft?5success@ 00461c48     JigsawDemo.obj
 0002:00008c68       ??_7?$_Func_impl_no_alloc@V<lambda_2870de01b601283699da779de20905fc>@@XPAVDisplayableObject@@@std@@6B@ 00461c68     JigsawDemo.obj
 0002:00008c8c       ??_7?$_Func_impl_no_alloc@V<lambda_4d3c514b9e5ad6cc29096aa3b57f98f2>@@XPAVDisplayableObject@@@std@@6B@ 00461c8c     JigsawDemo.obj
 0002:00008cb0       ??_7?$_Func_impl_no_alloc@V<lambda_369f3aee610e50bbd15c3a78d9c8686f>@@XPAVDisplayableObject@@@std@@6B@ 00461cb0     JigsawDemo.obj
 0002:00008cd4       ??_7?$_Func_impl_no_alloc@V<lambda_817584b2460f1bcab806f46a25c321a8>@@XPAVDisplayableObject@@@std@@6B@ 00461cd4     JigsawDemo.obj
 0002:00008cf8       ??_7?$_Func_impl_no_alloc@V<lambda_341a6657abb2758c42a6873833e6116f>@@XPAVDisplayableObject@@@std@@6B@ 00461cf8     JigsawDemo.obj
 0002:00008d88       __real@4051800000000000    00461d88     JigsawDemo.obj
 0002:000097f8       ??_7FilterPoints@@6B@      004627f8     BaseEngine.obj
 0002:00009814       ??_7BaseEngine@@6BDisplayableObjectContainer@@@ 00462814     BaseEngine.obj
 0002:000098c0       ??_7BaseEngine@@6BFilterPoints@@@ 004628c0     BaseEngine.obj
 0002:00009d9c       ??_7DisplayableObject@@6B@ 00462d9c     DisplayableObject.obj
 0002:0000a0bc       ??_C@_0BI@GMOFELCF@Free?5font?3?5?$CFd?5point?5?$CFs?6@ 004630bc     FontManager.obj
 0002:0000aa8c       ??_7MyObjectB@@6B@         00463a8c     MyObjectB.obj
 0002:0000b4c4       ??_7DragableTokenContainer@@6BDragableBaseClassObject@@@ 004644c4     PlayingCardsDemo.obj
 0002:0000b520       ??_7DragableTokenContainer@@6BDisplayableObjectContainer@@@ 00464520     PlayingCardsDemo.obj
 0002:0000b52c       ??_C@_0BI@NHFDFHOB@Cornerstone?5Regular?4ttf@ 0046452c     PlayingCardsDemo.obj
 0002:0000b548       ??_C@_05JLAFMLMB@Token@    00464548     PlayingCardsDemo.obj
 0002:0000b550       ??_C@_05FKOOCFCH@Cntnr@    00464550     PlayingCardsDemo.obj
 0002:0000b55c       ??_7DragableToken@@6B@     0046455c     PlayingCardsDemo.obj
 0002:0000b5a4       ??_7TokenTray@@6BDragableBaseClassObject@@@ 004645a4     PlayingCardsDemo.obj
 0002:0000b600       ??_7TokenTray@@6BDisplayableObjectContainer@@@ 00464600     PlayingCardsDemo.obj
 0002:0000b60c       ??_C@_06OIOKNNNI@Tokens@   0046460c     PlayingCardsDemo.obj
 0002:0000b618       ??_7CardContainer@@6BDragableBaseClassObject@@@ 00464618     PlayingCardsDemo.obj
 0002:0000b674       ??_7CardContainer@@6BDisplayableObjectContainer@@@ 00464674     PlayingCardsDemo.obj
 0002:0000b680       ??_C@_07PDLKMNNH@Shuffle@  00464680     PlayingCardsDemo.obj
 0002:0000b68c       ??_C@_04HMPDNAFK@Draw@     0046468c     PlayingCardsDemo.obj
 0002:0000b694       ??_C@_07KLFFMLGM@DISCARD@  00464694     PlayingCardsDemo.obj
 0002:0000b6a0       ??_C@_04FJDFPLDD@DECK@     004646a0     PlayingCardsDemo.obj
 0002:0000b6ac       ??_7ImagePixelMappingRotate@@6B@ 004646ac     PlayingCardsDemo.obj
 0002:0000b6bc       ??_7ImagePixelMappingRotateAndColour@@6B@ 004646bc     PlayingCardsDemo.obj
 0002:0000b6d0       ??_7CardOrTile@@6BDragableBaseClassObject@@@ 004646d0     PlayingCardsDemo.obj
 0002:0000b72c       ??_7CardOrTile@@6BDisplayableObjectContainer@@@ 0046472c     PlayingCardsDemo.obj
 0002:0000b738       ??_C@_04IPBPFFEL@Load@     00464738     PlayingCardsDemo.obj
 0002:0000b740       ??_C@_06CMLPEGNC@Failed@   00464740     PlayingCardsDemo.obj
 0002:0000b748       __real@0000000000000000    00464748     PlayingCardsDemo.obj
 0002:0000b758       __real@406fe00000000000    00464758     PlayingCardsDemo.obj
 0002:0000c668       ??_7BouncingObject@@6B@    00465668     SimpleDemo.obj
 0002:0000c6a8       __real@3f747ae147ae147b    004656a8     SimpleDemo.obj
 0002:0000c6b8       __real@4004000000000000    004656b8     SimpleDemo.obj
 0002:0000c6c8       __real@400c000000000000    004656c8     SimpleDemo.obj
 0002:0000c6d8       __real@4069000000000000    004656d8     SimpleDemo.obj
 0002:0000cbac       ??_7StarfieldDemo@@6BDisplayableObjectContainer@@@ 00465bac     StarfieldDemo.obj
 0002:0000cc58       ??_7StarfieldDemo@@6BFilterPoints@@@ 00465c58     StarfieldDemo.obj
 0002:0000d5f4       ??_7BouncingBall@@6B@      004665f4     BouncingBall.obj
 0002:0000d638       ??_7BouncingBall1@@6B@     00466638     BouncingBall.obj
 0002:0000d67c       ??_7BouncingBall2@@6B@     0046667c     BouncingBall.obj
 0002:0000d6c0       __real@3f847ae147ae147b    004666c0     BouncingBall.obj
 0002:0000dbf0       __real@3fe999999999999a    00466bf0     BouncingBallMain.obj
 0002:0000dc00       __real@3ff199999999999a    00466c00     BouncingBallMain.obj
 0002:0000dc10       __real@3ff3333333333333    00466c10     BouncingBallMain.obj
 0002:0000dc20       __real@4049000000000000    00466c20     BouncingBallMain.obj
 0002:0000dc30       __real@4062c00000000000    00466c30     BouncingBallMain.obj
 0002:0000dc40       __real@4066800000000000    00466c40     BouncingBallMain.obj
 0002:0000dc50       __real@406f400000000000    00466c50     BouncingBallMain.obj
 0002:0000dc60       __real@4071300000000000    00466c60     BouncingBallMain.obj
 0002:0000dc70       __real@4074500000000000    00466c70     BouncingBallMain.obj
 0002:0000dc80       __real@4075e00000000000    00466c80     BouncingBallMain.obj
 0002:0000dc90       __real@4077700000000000    00466c90     BouncingBallMain.obj
 0002:0000dca0       __real@4079000000000000    00466ca0     BouncingBallMain.obj
 0002:0000dcb0       __real@4079a00000000000    00466cb0     BouncingBallMain.obj
 0002:0000dcc0       __real@407c200000000000    00466cc0     BouncingBallMain.obj
 0002:0000dcd0       __real@407f400000000000    00466cd0     BouncingBallMain.obj
 0002:0000dce0       __real@4081300000000000    00466ce0     BouncingBallMain.obj
 0002:0000dcf0       __real@4082c00000000000    00466cf0     BouncingBallMain.obj
 0002:0000dd00       __real@4084500000000000    00466d00     BouncingBallMain.obj
 0002:0000dd10       __real@4087700000000000    00466d10     BouncingBallMain.obj
 0002:0000e280       ??_7SimpleFlashingDragableImageObject@@6B@ 00467280     ZoomingDemo.obj
 0002:0000e920       ??_7MazeDemoTileManager@@6B@ 00467920     MazeDemoMain.obj
 0002:0000e930       ??_7MazeDemoMain@@6BDisplayableObjectContainer@@@ 00467930     MazeDemoMain.obj
 0002:0000e9dc       ??_7MazeDemoMain@@6BFilterPoints@@@ 004679dc     MazeDemoMain.obj
 0002:0000eebc       ??_7MazeDemoObject@@6B@    00467ebc     MazeDemoObject.obj
 0002:0000f3c0       ??_C@_0DN@HNMKBFBH@d?3?2a01?2_work?211?2s?2src?2vctools?2c@ 004683c0     msvcprtd:locale0_implib.obj
 0002:0000f410       ??_7type_info@@6B@         00468410     MSVCRTD:std_type_info_static.obj
 0002:0000f418       ??_C@_0P@GHFPNOJB@bad?5allocation@ 00468418     MSVCRTD:throw_bad_alloc.obj
 0002:0000f438       ??_C@_0BJ@HFNMHALN@Out?5of?5memory?5?9?5aborting@ 00468438     SDL2main:SDL_windows_main.obj
 0002:0000f458       ??_C@_0M@HFFOIJBL@Fatal?5Error@ 00468458     SDL2main:SDL_windows_main.obj
 0002:0000f4a0       __load_config_used         004684a0     MSVCRTD:loadcfg.obj
 0002:0000f7c0       ___CastGuardVftablesStart  004687c0     MSVCRTD:guard_support.obj
 0002:0000f8c4       ___CastGuardVftablesEnd    004688c4     MSVCRTD:guard_support.obj
 0002:0000f9c8       ??_R3ImagePixelMapping@@8  004689c8     CW2Creature.obj
 0002:0000f9dc       ??_R2ImagePixelMapping@@8  004689dc     CW2Creature.obj
 0002:0000f9e4       ??_R1A@?0A@EA@ImagePixelMapping@@8 004689e4     CW2Creature.obj
 0002:0000fa08       ??_R4CroppedImagePixelMapping@@6B@ 00468a08     CW2Creature.obj
 0002:0000fa20       ??_R3CroppedImagePixelMapping@@8 00468a20     CW2Creature.obj
 0002:0000fa34       ??_R2CroppedImagePixelMapping@@8 00468a34     CW2Creature.obj
 0002:0000fa40       ??_R1A@?0A@EA@CroppedImagePixelMapping@@8 00468a40     CW2Creature.obj
 0002:0000fa64       ??_R4exception@std@@6B@    00468a64     CW2Creature.obj
 0002:0000fa7c       ??_R3exception@std@@8      00468a7c     CW2Creature.obj
 0002:0000fa90       ??_R2exception@std@@8      00468a90     CW2Creature.obj
 0002:0000fa98       ??_R1A@?0A@EA@exception@std@@8 00468a98     CW2Creature.obj
 0002:0000fabc       ??_R4bad_alloc@std@@6B@    00468abc     CW2Creature.obj
 0002:0000fad4       ??_R3bad_alloc@std@@8      00468ad4     CW2Creature.obj
 0002:0000fae8       ??_R2bad_alloc@std@@8      00468ae8     CW2Creature.obj
 0002:0000faf4       ??_R1A@?0A@EA@bad_alloc@std@@8 00468af4     CW2Creature.obj
 0002:0000fb18       ??_R4bad_array_new_length@std@@6B@ 00468b18     CW2Creature.obj
 0002:0000fb30       ??_R3bad_array_new_length@std@@8 00468b30     CW2Creature.obj
 0002:0000fb44       ??_R2bad_array_new_length@std@@8 00468b44     CW2Creature.obj
 0002:0000fb54       ??_R1A@?0A@EA@bad_array_new_length@std@@8 00468b54     CW2Creature.obj
 0002:0000fb78       ??_R3_Ref_count_base@std@@8 00468b78     CW2Creature.obj
 0002:0000fb8c       ??_R2_Ref_count_base@std@@8 00468b8c     CW2Creature.obj
 0002:0000fb94       ??_R1A@?0A@EA@_Ref_count_base@std@@8 00468b94     CW2Creature.obj
 0002:0000fbb8       ??_R4DisplayableObjectContainer@@6B@ 00468bb8     CW2Creature.obj
 0002:0000fbd0       ??_R3DisplayableObjectContainer@@8 00468bd0     CW2Creature.obj
 0002:0000fbe4       ??_R2DisplayableObjectContainer@@8 00468be4     CW2Creature.obj
 0002:0000fbec       ??_R1A@?0A@EA@DisplayableObjectContainer@@8 00468bec     CW2Creature.obj
 0002:0000fc10       ??_R4ImagePixelMapping@@6B@ 00468c10     CW2Creature.obj
 0002:0000fc28       ??_R4CW2Object@@6BDisplayableObject@@@ 00468c28     CW2Creature.obj
 0002:0000fc40       ??_R3CW2Object@@8          00468c40     CW2Creature.obj
 0002:0000fc54       ??_R2CW2Object@@8          00468c54     CW2Creature.obj
 0002:0000fc64       ??_R1A@?0A@EA@CW2Object@@8 00468c64     CW2Creature.obj
 0002:0000fc88       ??_R1A@?0A@EA@DisplayableObject@@8 00468c88     CW2Creature.obj
 0002:0000fcac       ??_R3DisplayableObject@@8  00468cac     CW2Creature.obj
 0002:0000fcc0       ??_R2DisplayableObject@@8  00468cc0     CW2Creature.obj
 0002:0000fcc8       ??_R1CI@?0A@EA@DisplayableObjectContainer@@8 00468cc8     CW2Creature.obj
 0002:0000fcec       ??_R4CW2Object@@6BDisplayableObjectContainer@@@ 00468cec     CW2Creature.obj
 0002:0000fd04       ??_R4CW2AnimatedManager@@6B@ 00468d04     CW2Creature.obj
 0002:0000fd1c       ??_R3CW2AnimatedManager@@8 00468d1c     CW2Creature.obj
 0002:0000fd30       ??_R2CW2AnimatedManager@@8 00468d30     CW2Creature.obj
 0002:0000fd4c       ??_R1A@?0A@EA@CW2AnimatedManager@@8 00468d4c     CW2Creature.obj
 0002:0000fd70       ??_R1A@?0A@EA@CW2ImagePixelMapping@@8 00468d70     CW2Creature.obj
 0002:0000fd94       ??_R3CW2ImagePixelMapping@@8 00468d94     CW2Creature.obj
 0002:0000fda8       ??_R2CW2ImagePixelMapping@@8 00468da8     CW2Creature.obj
 0002:0000fdbc       ??_R1A@?0A@EA@ImagePixelMappingShiftXY@@8 00468dbc     CW2Creature.obj
 0002:0000fde0       ??_R3ImagePixelMappingShiftXY@@8 00468de0     CW2Creature.obj
 0002:0000fdf4       ??_R2ImagePixelMappingShiftXY@@8 00468df4     CW2Creature.obj
 0002:0000fe00       ??_R1BI@?0A@EA@SimpleImage@@8 00468e00     CW2Creature.obj
 0002:0000fe24       ??_R3SimpleImage@@8        00468e24     CW2Creature.obj
 0002:0000fe38       ??_R2SimpleImage@@8        00468e38     CW2Creature.obj
 0002:0000fe40       ??_R1A@?0A@EA@SimpleImage@@8 00468e40     CW2Creature.obj
 0002:0000fe64       ??_R4CW2Creature@@6BDisplayableObject@@@ 00468e64     CW2Creature.obj
 0002:0000fe7c       ??_R3CW2Creature@@8        00468e7c     CW2Creature.obj
 0002:0000fe90       ??_R2CW2Creature@@8        00468e90     CW2Creature.obj
 0002:0000fea4       ??_R1A@?0A@EA@CW2Creature@@8 00468ea4     CW2Creature.obj
 0002:0000fec8       ??_R4CW2Creature@@6BDisplayableObjectContainer@@@ 00468ec8     CW2Creature.obj
 0002:0000fee0       ??_R4Player@@6BDisplayableObject@@@ 00468ee0     CW2Creature.obj
 0002:0000fef8       ??_R3Player@@8             00468ef8     CW2Creature.obj
 0002:0000ff0c       ??_R2Player@@8             00468f0c     CW2Creature.obj
 0002:0000ff28       ??_R1A@?0A@EA@Player@@8    00468f28     CW2Creature.obj
 0002:0000ff4c       ??_R4Player@@6BDisplayableObjectContainer@@@ 00468f4c     CW2Creature.obj
 0002:0000ff64       ??_R4Monster@@6BDisplayableObject@@@ 00468f64     CW2Creature.obj
 0002:0000ff7c       ??_R3Monster@@8            00468f7c     CW2Creature.obj
 0002:0000ff90       ??_R2Monster@@8            00468f90     CW2Creature.obj
 0002:0000ffac       ??_R1A@?0A@EA@Monster@@8   00468fac     CW2Creature.obj
 0002:0000ffd0       ??_R4Monster@@6BDisplayableObjectContainer@@@ 00468fd0     CW2Creature.obj
 0002:0000ffe8       ??_R4AggressiveMonster@@6BDisplayableObject@@@ 00468fe8     CW2Creature.obj
 0002:00010000       ??_R3AggressiveMonster@@8  00469000     CW2Creature.obj
 0002:00010014       ??_R2AggressiveMonster@@8  00469014     CW2Creature.obj
 0002:00010034       ??_R1A@?0A@EA@AggressiveMonster@@8 00469034     CW2Creature.obj
 0002:00010058       ??_R4AggressiveMonster@@6BDisplayableObjectContainer@@@ 00469058     CW2Creature.obj
 0002:00010070       ??_R4PeacefulMonster@@6BDisplayableObject@@@ 00469070     CW2Creature.obj
 0002:00010088       ??_R3PeacefulMonster@@8    00469088     CW2Creature.obj
 0002:0001009c       ??_R2PeacefulMonster@@8    0046909c     CW2Creature.obj
 0002:000100bc       ??_R1A@?0A@EA@PeacefulMonster@@8 004690bc     CW2Creature.obj
 0002:000100e0       ??_R4PeacefulMonster@@6BDisplayableObjectContainer@@@ 004690e0     CW2Creature.obj
 0002:000100f8       ??_R4NomalMonster@@6BDisplayableObject@@@ 004690f8     CW2Creature.obj
 0002:00010110       ??_R3NomalMonster@@8       00469110     CW2Creature.obj
 0002:00010124       ??_R2NomalMonster@@8       00469124     CW2Creature.obj
 0002:00010144       ??_R1A@?0A@EA@NomalMonster@@8 00469144     CW2Creature.obj
 0002:00010168       ??_R4NomalMonster@@6BDisplayableObjectContainer@@@ 00469168     CW2Creature.obj
 0002:00010180       ??_R4ImagePixelMappingShiftXY@@6B@ 00469180     CW2Creature.obj
 0002:00010198       ??_R4CW2ImagePixelMapping@@6B@ 00469198     CW2Creature.obj
 0002:000101b0       ??_R4?$_Ref_count@VRawImageData@@@std@@6B@ 004691b0     CW2Creature.obj
 0002:000101c8       ??_R3?$_Ref_count@VRawImageData@@@std@@8 004691c8     CW2Creature.obj
 0002:000101dc       ??_R2?$_Ref_count@VRawImageData@@@std@@8 004691dc     CW2Creature.obj
 0002:000101e8       ??_R1A@?0A@EA@?$_Ref_count@VRawImageData@@@std@@8 004691e8     CW2Creature.obj
 0002:0001020c       ??_R4?$_Ref_count_obj2@VCW2ImagePixelMapping@@@std@@6B@ 0046920c     CW2Creature.obj
 0002:00010224       ??_R3?$_Ref_count_obj2@VCW2ImagePixelMapping@@@std@@8 00469224     CW2Creature.obj
 0002:00010238       ??_R2?$_Ref_count_obj2@VCW2ImagePixelMapping@@@std@@8 00469238     CW2Creature.obj
 0002:00010244       ??_R1A@?0A@EA@?$_Ref_count_obj2@VCW2ImagePixelMapping@@@std@@8 00469244     CW2Creature.obj
 0002:00010268       ??_R4?$_Ref_count_obj2@VCW2AnimatedManager@@@std@@6B@ 00469268     CW2Creature.obj
 0002:00010280       ??_R3?$_Ref_count_obj2@VCW2AnimatedManager@@@std@@8 00469280     CW2Creature.obj
 0002:00010294       ??_R2?$_Ref_count_obj2@VCW2AnimatedManager@@@std@@8 00469294     CW2Creature.obj
 0002:000102a0       ??_R1A@?0A@EA@?$_Ref_count_obj2@VCW2AnimatedManager@@@std@@8 004692a0     CW2Creature.obj
 0002:000102c4       ??_R4CW2Engine@@6BDisplayableObjectContainer@@@ 004692c4     CW2Engine.obj
 0002:000102dc       ??_R3CW2Engine@@8          004692dc     CW2Engine.obj
 0002:000102f0       ??_R2CW2Engine@@8          004692f0     CW2Engine.obj
 0002:00010304       ??_R1A@?0A@EA@CW2Engine@@8 00469304     CW2Engine.obj
 0002:00010328       ??_R1A@?0A@EA@BaseEngine@@8 00469328     CW2Engine.obj
 0002:0001034c       ??_R3BaseEngine@@8         0046934c     CW2Engine.obj
 0002:00010360       ??_R2BaseEngine@@8         00469360     CW2Engine.obj
 0002:00010370       ??_R1BM@?0A@EA@FilterPoints@@8 00469370     CW2Engine.obj
 0002:00010394       ??_R3FilterPoints@@8       00469394     CW2Engine.obj
 0002:000103a8       ??_R2FilterPoints@@8       004693a8     CW2Engine.obj
 0002:000103b0       ??_R1A@?0A@EA@FilterPoints@@8 004693b0     CW2Engine.obj
 0002:000103d4       ??_R4CW2Engine@@6BFilterPoints@@@ 004693d4     CW2Engine.obj
 0002:000103ec       ??_R4?$basic_stringbuf@DU?$char_traits@D@std@@V?$allocator@D@2@@std@@6B@ 004693ec     CW2GameState.obj
 0002:00010404       ??_R3?$basic_stringbuf@DU?$char_traits@D@std@@V?$allocator@D@2@@std@@8 00469404     CW2GameState.obj
 0002:00010418       ??_R2?$basic_stringbuf@DU?$char_traits@D@std@@V?$allocator@D@2@@std@@8 00469418     CW2GameState.obj
 0002:00010424       ??_R1A@?0A@EA@?$basic_stringbuf@DU?$char_traits@D@std@@V?$allocator@D@2@@std@@8 00469424     CW2GameState.obj
 0002:00010448       ??_R1A@?0A@EA@?$basic_streambuf@DU?$char_traits@D@std@@@std@@8 00469448     CW2GameState.obj
 0002:0001046c       ??_R3?$basic_streambuf@DU?$char_traits@D@std@@@std@@8 0046946c     CW2GameState.obj
 0002:00010480       ??_R2?$basic_streambuf@DU?$char_traits@D@std@@@std@@8 00469480     CW2GameState.obj
 0002:00010488       ??_R4?$basic_stringstream@DU?$char_traits@D@std@@V?$allocator@D@2@@std@@6B@ 00469488     CW2GameState.obj
 0002:000104a0       ??_R3?$basic_stringstream@DU?$char_traits@D@std@@V?$allocator@D@2@@std@@8 004694a0     CW2GameState.obj
 0002:000104b4       ??_R2?$basic_stringstream@DU?$char_traits@D@std@@V?$allocator@D@2@@std@@8 004694b4     CW2GameState.obj
 0002:000104e8       ??_R1A@?0A@EA@?$basic_stringstream@DU?$char_traits@D@std@@V?$allocator@D@2@@std@@8 004694e8     CW2GameState.obj
 0002:0001050c       ??_R1A@?0A@EA@?$basic_iostream@DU?$char_traits@D@std@@@std@@8 0046950c     CW2GameState.obj
 0002:00010530       ??_R3?$basic_iostream@DU?$char_traits@D@std@@@std@@8 00469530     CW2GameState.obj
 0002:00010544       ??_R2?$basic_iostream@DU?$char_traits@D@std@@@std@@8 00469544     CW2GameState.obj
 0002:00010570       ??_R1A@?0A@EA@?$basic_istream@DU?$char_traits@D@std@@@std@@8 00469570     CW2GameState.obj
 0002:00010594       ??_R3?$basic_istream@DU?$char_traits@D@std@@@std@@8 00469594     CW2GameState.obj
 0002:000105a8       ??_R2?$basic_istream@DU?$char_traits@D@std@@@std@@8 004695a8     CW2GameState.obj
 0002:000105bc       ??_R1A@A@3FA@?$basic_ios@DU?$char_traits@D@std@@@std@@8 004695bc     CW2GameState.obj
 0002:000105e0       ??_R3?$basic_ios@DU?$char_traits@D@std@@@std@@8 004695e0     CW2GameState.obj
 0002:000105f4       ??_R2?$basic_ios@DU?$char_traits@D@std@@@std@@8 004695f4     CW2GameState.obj
 0002:00010604       ??_R1A@?0A@EA@?$basic_ios@DU?$char_traits@D@std@@@std@@8 00469604     CW2GameState.obj
 0002:00010628       ??_R1A@?0A@EA@ios_base@std@@8 00469628     CW2GameState.obj
 0002:0001064c       ??_R3ios_base@std@@8       0046964c     CW2GameState.obj
 0002:00010660       ??_R2ios_base@std@@8       00469660     CW2GameState.obj
 0002:0001066c       ??_R17?0A@EA@?$_Iosb@H@std@@8 0046966c     CW2GameState.obj
 0002:00010690       ??_R3?$_Iosb@H@std@@8      00469690     CW2GameState.obj
 0002:000106a4       ??_R2?$_Iosb@H@std@@8      004696a4     CW2GameState.obj
 0002:000106ac       ??_R1A@?0A@EA@?$_Iosb@H@std@@8 004696ac     CW2GameState.obj
 0002:000106d0       ??_R1A@A@3EA@ios_base@std@@8 004696d0     CW2GameState.obj
 0002:000106f4       ??_R17A@3EA@?$_Iosb@H@std@@8 004696f4     CW2GameState.obj
 0002:00010718       ??_R1BA@?0A@EA@?$basic_ostream@DU?$char_traits@D@std@@@std@@8 00469718     CW2GameState.obj
 0002:0001073c       ??_R3?$basic_ostream@DU?$char_traits@D@std@@@std@@8 0046973c     CW2GameState.obj
 0002:00010750       ??_R2?$basic_ostream@DU?$char_traits@D@std@@@std@@8 00469750     CW2GameState.obj
 0002:00010764       ??_R1A@?0A@EA@?$basic_ostream@DU?$char_traits@D@std@@@std@@8 00469764     CW2GameState.obj
 0002:00010788       ??_R4?$basic_filebuf@DU?$char_traits@D@std@@@std@@6B@ 00469788     CW2GameState.obj
 0002:000107a0       ??_R3?$basic_filebuf@DU?$char_traits@D@std@@@std@@8 004697a0     CW2GameState.obj
 0002:000107b4       ??_R2?$basic_filebuf@DU?$char_traits@D@std@@@std@@8 004697b4     CW2GameState.obj
 0002:000107c0       ??_R1A@?0A@EA@?$basic_filebuf@DU?$char_traits@D@std@@@std@@8 004697c0     CW2GameState.obj
 0002:000107e4       ??_R4?$basic_ifstream@DU?$char_traits@D@std@@@std@@6B@ 004697e4     CW2GameState.obj
 0002:000107fc       ??_R3?$basic_ifstream@DU?$char_traits@D@std@@@std@@8 004697fc     CW2GameState.obj
 0002:00010810       ??_R2?$basic_ifstream@DU?$char_traits@D@std@@@std@@8 00469810     CW2GameState.obj
 0002:0001082c       ??_R1A@?0A@EA@?$basic_ifstream@DU?$char_traits@D@std@@@std@@8 0046982c     CW2GameState.obj
 0002:00010850       ??_R4?$basic_ofstream@DU?$char_traits@D@std@@@std@@6B@ 00469850     CW2GameState.obj
 0002:00010868       ??_R3?$basic_ofstream@DU?$char_traits@D@std@@@std@@8 00469868     CW2GameState.obj
 0002:0001087c       ??_R2?$basic_ofstream@DU?$char_traits@D@std@@@std@@8 0046987c     CW2GameState.obj
 0002:00010898       ??_R1A@?0A@EA@?$basic_ofstream@DU?$char_traits@D@std@@@std@@8 00469898     CW2GameState.obj
 0002:000108bc       ??_R4bad_cast@std@@6B@     004698bc     CW2GameState.obj
 0002:000108d4       ??_R3bad_cast@std@@8       004698d4     CW2GameState.obj
 0002:000108e8       ??_R2bad_cast@std@@8       004698e8     CW2GameState.obj
 0002:000108f4       ??_R1A@?0A@EA@bad_cast@std@@8 004698f4     CW2GameState.obj
 0002:00010918       ??_R4CW2Wand@@6BDisplayableObject@@@ 00469918     CW2GameState.obj
 0002:00010930       ??_R3CW2Wand@@8            00469930     CW2GameState.obj
 0002:00010944       ??_R2CW2Wand@@8            00469944     CW2GameState.obj
 0002:00010958       ??_R1A@?0A@EA@CW2Wand@@8   00469958     CW2GameState.obj
 0002:0001097c       ??_R4CW2Wand@@6BDisplayableObjectContainer@@@ 0046997c     CW2GameState.obj
 0002:00010994       ??_R4CW2GameState@@6B@     00469994     CW2GameState.obj
 0002:000109ac       ??_R3CW2GameState@@8       004699ac     CW2GameState.obj
 0002:000109c0       ??_R2CW2GameState@@8       004699c0     CW2GameState.obj
 0002:000109c8       ??_R1A@?0A@EA@CW2GameState@@8 004699c8     CW2GameState.obj
 0002:000109ec       ??_R4InitState@@6B@        004699ec     CW2GameState.obj
 0002:00010a04       ??_R3InitState@@8          00469a04     CW2GameState.obj
 0002:00010a18       ??_R2InitState@@8          00469a18     CW2GameState.obj
 0002:00010a24       ??_R1A@?0A@EA@InitState@@8 00469a24     CW2GameState.obj
 0002:00010a48       ??_R4MenuState@@6B@        00469a48     CW2GameState.obj
 0002:00010a60       ??_R3MenuState@@8          00469a60     CW2GameState.obj
 0002:00010a74       ??_R2MenuState@@8          00469a74     CW2GameState.obj
 0002:00010a80       ??_R1A@?0A@EA@MenuState@@8 00469a80     CW2GameState.obj
 0002:00010aa4       ??_R4PlayState@@6B@        00469aa4     CW2GameState.obj
 0002:00010abc       ??_R3PlayState@@8          00469abc     CW2GameState.obj
 0002:00010ad0       ??_R2PlayState@@8          00469ad0     CW2GameState.obj
 0002:00010adc       ??_R1A@?0A@EA@PlayState@@8 00469adc     CW2GameState.obj
 0002:00010b00       ??_R4LoseState@@6B@        00469b00     CW2GameState.obj
 0002:00010b18       ??_R3LoseState@@8          00469b18     CW2GameState.obj
 0002:00010b2c       ??_R2LoseState@@8          00469b2c     CW2GameState.obj
 0002:00010b38       ??_R1A@?0A@EA@LoseState@@8 00469b38     CW2GameState.obj
 0002:00010b5c       ??_R4HighscoreState@@6B@   00469b5c     CW2GameState.obj
 0002:00010b74       ??_R3HighscoreState@@8     00469b74     CW2GameState.obj
 0002:00010b88       ??_R2HighscoreState@@8     00469b88     CW2GameState.obj
 0002:00010b94       ??_R1A@?0A@EA@HighscoreState@@8 00469b94     CW2GameState.obj
 0002:00010bb8       ??_R4CW2Magic@@6BDisplayableObject@@@ 00469bb8     CW2GameState.obj
 0002:00010bd0       ??_R3CW2Magic@@8           00469bd0     CW2GameState.obj
 0002:00010be4       ??_R2CW2Magic@@8           00469be4     CW2GameState.obj
 0002:00010bf8       ??_R1A@?0A@EA@CW2Magic@@8  00469bf8     CW2GameState.obj
 0002:00010c1c       ??_R4CW2Magic@@6BDisplayableObjectContainer@@@ 00469c1c     CW2GameState.obj
 0002:00010c34       ??_R4?$_Ref_count_obj2@VCW2TileManager@@@std@@6B@ 00469c34     CW2GameState.obj
 0002:00010c4c       ??_R3?$_Ref_count_obj2@VCW2TileManager@@@std@@8 00469c4c     CW2GameState.obj
 0002:00010c60       ??_R2?$_Ref_count_obj2@VCW2TileManager@@@std@@8 00469c60     CW2GameState.obj
 0002:00010c6c       ??_R1A@?0A@EA@?$_Ref_count_obj2@VCW2TileManager@@@std@@8 00469c6c     CW2GameState.obj
 0002:00010c90       ??_R4GameoverState@@6B@    00469c90     CW2StateManager.obj
 0002:00010ca8       ??_R3GameoverState@@8      00469ca8     CW2StateManager.obj
 0002:00010cbc       ??_R2GameoverState@@8      00469cbc     CW2StateManager.obj
 0002:00010cc8       ??_R1A@?0A@EA@GameoverState@@8 00469cc8     CW2StateManager.obj
 0002:00010cec       ??_R4TileManager@@6B@      00469cec     CW2TileManager.obj
 0002:00010d04       ??_R3TileManager@@8        00469d04     CW2TileManager.obj
 0002:00010d18       ??_R2TileManager@@8        00469d18     CW2TileManager.obj
 0002:00010d20       ??_R1A@?0A@EA@TileManager@@8 00469d20     CW2TileManager.obj
 0002:00010d44       ??_R4CW2TileManager@@6B@   00469d44     CW2TileManager.obj
 0002:00010d5c       ??_R3CW2TileManager@@8     00469d5c     CW2TileManager.obj
 0002:00010d70       ??_R2CW2TileManager@@8     00469d70     CW2TileManager.obj
 0002:00010d7c       ??_R1A@?0A@EA@CW2TileManager@@8 00469d7c     CW2TileManager.obj
 0002:00010da0       ??_R4DragableBaseClassObject@@6B@ 00469da0     DraggingDemo.obj
 0002:00010db8       ??_R3DragableBaseClassObject@@8 00469db8     DraggingDemo.obj
 0002:00010dcc       ??_R2DragableBaseClassObject@@8 00469dcc     DraggingDemo.obj
 0002:00010dd8       ??_R1A@?0A@EA@DragableBaseClassObject@@8 00469dd8     DraggingDemo.obj
 0002:00010dfc       ??_R4DragableObject@@6B@   00469dfc     DraggingDemo.obj
 0002:00010e14       ??_R3DragableObject@@8     00469e14     DraggingDemo.obj
 0002:00010e28       ??_R2DragableObject@@8     00469e28     DraggingDemo.obj
 0002:00010e38       ??_R1A@?0A@EA@DragableObject@@8 00469e38     DraggingDemo.obj
 0002:00010e5c       ??_R4DragableImageObject@@6B@ 00469e5c     DraggingDemo.obj
 0002:00010e74       ??_R3DragableImageObject@@8 00469e74     DraggingDemo.obj
 0002:00010e88       ??_R2DragableImageObject@@8 00469e88     DraggingDemo.obj
 0002:00010e98       ??_R1A@?0A@EA@DragableImageObject@@8 00469e98     DraggingDemo.obj
 0002:00010ebc       ??_R4ImageObject@@6B@      00469ebc     DraggingDemo.obj
 0002:00010ed4       ??_R3ImageObject@@8        00469ed4     DraggingDemo.obj
 0002:00010ee8       ??_R2ImageObject@@8        00469ee8     DraggingDemo.obj
 0002:00010ef4       ??_R1A@?0A@EA@ImageObject@@8 00469ef4     DraggingDemo.obj
 0002:00010f18       ??_R4FlashingDemo@@6BDisplayableObjectContainer@@@ 00469f18     FlashingDemo.obj
 0002:00010f30       ??_R3FlashingDemo@@8       00469f30     FlashingDemo.obj
 0002:00010f44       ??_R2FlashingDemo@@8       00469f44     FlashingDemo.obj
 0002:00010f58       ??_R1A@?0A@EA@FlashingDemo@@8 00469f58     FlashingDemo.obj
 0002:00010f7c       ??_R4FlashingDemo@@6BFilterPoints@@@ 00469f7c     FlashingDemo.obj
 0002:00010f94       ??_R4MappableImageObject@@6B@ 00469f94     ImageMappingDemo.obj
 0002:00010fac       ??_R3MappableImageObject@@8 00469fac     ImageMappingDemo.obj
 0002:00010fc0       ??_R2MappableImageObject@@8 00469fc0     ImageMappingDemo.obj
 0002:00010fd4       ??_R1A@?0A@EA@MappableImageObject@@8 00469fd4     ImageMappingDemo.obj
 0002:00010ff8       ??_R3?$_Func_base@XPAVDisplayableObject@@@std@@8 00469ff8     JigsawDemo.obj
 0002:0001100c       ??_R2?$_Func_base@XPAVDisplayableObject@@@std@@8 0046a00c     JigsawDemo.obj
 0002:00011014       ??_R1A@?0A@EA@?$_Func_base@XPAVDisplayableObject@@@std@@8 0046a014     JigsawDemo.obj
 0002:00011038       ??_R4JigsawPiece@@6BDragableImageObject@@@ 0046a038     JigsawDemo.obj
 0002:00011050       ??_R3JigsawPiece@@8        0046a050     JigsawDemo.obj
 0002:00011064       ??_R2JigsawPiece@@8        0046a064     JigsawDemo.obj
 0002:00011080       ??_R1A@?0A@EA@JigsawPiece@@8 0046a080     JigsawDemo.obj
 0002:000110a4       ??_R1EM@?0A@EA@ImagePixelMapping@@8 0046a0a4     JigsawDemo.obj
 0002:000110c8       ??_R4JigsawPiece@@6BImagePixelMapping@@@ 0046a0c8     JigsawDemo.obj
 0002:000110e0       ??_R4?$_Func_impl_no_alloc@V<lambda_2870de01b601283699da779de20905fc>@@XPAVDisplayableObject@@@std@@6B@ 0046a0e0     JigsawDemo.obj
 0002:000110f8       ??_R3?$_Func_impl_no_alloc@V<lambda_2870de01b601283699da779de20905fc>@@XPAVDisplayableObject@@@std@@8 0046a0f8     JigsawDemo.obj
 0002:0001110c       ??_R2?$_Func_impl_no_alloc@V<lambda_2870de01b601283699da779de20905fc>@@XPAVDisplayableObject@@@std@@8 0046a10c     JigsawDemo.obj
 0002:00011118       ??_R1A@?0A@EA@?$_Func_impl_no_alloc@V<lambda_2870de01b601283699da779de20905fc>@@XPAVDisplayableObject@@@std@@8 0046a118     JigsawDemo.obj
 0002:0001113c       ??_R4?$_Func_impl_no_alloc@V<lambda_4d3c514b9e5ad6cc29096aa3b57f98f2>@@XPAVDisplayableObject@@@std@@6B@ 0046a13c     JigsawDemo.obj
 0002:00011154       ??_R3?$_Func_impl_no_alloc@V<lambda_4d3c514b9e5ad6cc29096aa3b57f98f2>@@XPAVDisplayableObject@@@std@@8 0046a154     JigsawDemo.obj
 0002:00011168       ??_R2?$_Func_impl_no_alloc@V<lambda_4d3c514b9e5ad6cc29096aa3b57f98f2>@@XPAVDisplayableObject@@@std@@8 0046a168     JigsawDemo.obj
 0002:00011174       ??_R1A@?0A@EA@?$_Func_impl_no_alloc@V<lambda_4d3c514b9e5ad6cc29096aa3b57f98f2>@@XPAVDisplayableObject@@@std@@8 0046a174     JigsawDemo.obj
 0002:00011198       ??_R4?$_Func_impl_no_alloc@V<lambda_369f3aee610e50bbd15c3a78d9c8686f>@@XPAVDisplayableObject@@@std@@6B@ 0046a198     JigsawDemo.obj
 0002:000111b0       ??_R3?$_Func_impl_no_alloc@V<lambda_369f3aee610e50bbd15c3a78d9c8686f>@@XPAVDisplayableObject@@@std@@8 0046a1b0     JigsawDemo.obj
 0002:000111c4       ??_R2?$_Func_impl_no_alloc@V<lambda_369f3aee610e50bbd15c3a78d9c8686f>@@XPAVDisplayableObject@@@std@@8 0046a1c4     JigsawDemo.obj
 0002:000111d0       ??_R1A@?0A@EA@?$_Func_impl_no_alloc@V<lambda_369f3aee610e50bbd15c3a78d9c8686f>@@XPAVDisplayableObject@@@std@@8 0046a1d0     JigsawDemo.obj
 0002:000111f4       ??_R4?$_Func_impl_no_alloc@V<lambda_817584b2460f1bcab806f46a25c321a8>@@XPAVDisplayableObject@@@std@@6B@ 0046a1f4     JigsawDemo.obj
 0002:0001120c       ??_R3?$_Func_impl_no_alloc@V<lambda_817584b2460f1bcab806f46a25c321a8>@@XPAVDisplayableObject@@@std@@8 0046a20c     JigsawDemo.obj
 0002:00011220       ??_R2?$_Func_impl_no_alloc@V<lambda_817584b2460f1bcab806f46a25c321a8>@@XPAVDisplayableObject@@@std@@8 0046a220     JigsawDemo.obj
 0002:0001122c       ??_R1A@?0A@EA@?$_Func_impl_no_alloc@V<lambda_817584b2460f1bcab806f46a25c321a8>@@XPAVDisplayableObject@@@std@@8 0046a22c     JigsawDemo.obj
 0002:00011250       ??_R4?$_Func_impl_no_alloc@V<lambda_341a6657abb2758c42a6873833e6116f>@@XPAVDisplayableObject@@@std@@6B@ 0046a250     JigsawDemo.obj
 0002:00011268       ??_R3?$_Func_impl_no_alloc@V<lambda_341a6657abb2758c42a6873833e6116f>@@XPAVDisplayableObject@@@std@@8 0046a268     JigsawDemo.obj
 0002:0001127c       ??_R2?$_Func_impl_no_alloc@V<lambda_341a6657abb2758c42a6873833e6116f>@@XPAVDisplayableObject@@@std@@8 0046a27c     JigsawDemo.obj
 0002:00011288       ??_R1A@?0A@EA@?$_Func_impl_no_alloc@V<lambda_341a6657abb2758c42a6873833e6116f>@@XPAVDisplayableObject@@@std@@8 0046a288     JigsawDemo.obj
 0002:000113c0       ??_R4BaseEngine@@6BDisplayableObjectContainer@@@ 0046a3c0     BaseEngine.obj
 0002:000113d8       ??_R4BaseEngine@@6BFilterPoints@@@ 0046a3d8     BaseEngine.obj
 0002:000113f0       ??_R4FilterPoints@@6B@     0046a3f0     BaseEngine.obj
 0002:00011408       ??_R4DisplayableObject@@6B@ 0046a408     DisplayableObject.obj
 0002:00011420       ??_R4MyObjectB@@6B@        0046a420     MyObjectB.obj
 0002:00011438       ??_R3MyObjectB@@8          0046a438     MyObjectB.obj
 0002:0001144c       ??_R2MyObjectB@@8          0046a44c     MyObjectB.obj
 0002:00011458       ??_R1A@?0A@EA@MyObjectB@@8 0046a458     MyObjectB.obj
 0002:0001147c       ??_R4DragableTokenContainer@@6BDragableBaseClassObject@@@ 0046a47c     PlayingCardsDemo.obj
 0002:00011494       ??_R3DragableTokenContainer@@8 0046a494     PlayingCardsDemo.obj
 0002:000114a8       ??_R2DragableTokenContainer@@8 0046a4a8     PlayingCardsDemo.obj
 0002:000114bc       ??_R1A@?0A@EA@DragableTokenContainer@@8 0046a4bc     PlayingCardsDemo.obj
 0002:000114e0       ??_R1DM@?0A@EA@DisplayableObjectContainer@@8 0046a4e0     PlayingCardsDemo.obj
 0002:00011504       ??_R4DragableTokenContainer@@6BDisplayableObjectContainer@@@ 0046a504     PlayingCardsDemo.obj
 0002:0001151c       ??_R4DragableToken@@6B@    0046a51c     PlayingCardsDemo.obj
 0002:00011534       ??_R3DragableToken@@8      0046a534     PlayingCardsDemo.obj
 0002:00011548       ??_R2DragableToken@@8      0046a548     PlayingCardsDemo.obj
 0002:00011554       ??_R1A@?0A@EA@DragableToken@@8 0046a554     PlayingCardsDemo.obj
 0002:00011578       ??_R4TokenTray@@6BDragableBaseClassObject@@@ 0046a578     PlayingCardsDemo.obj
 0002:00011590       ??_R3TokenTray@@8          0046a590     PlayingCardsDemo.obj
 0002:000115a4       ??_R2TokenTray@@8          0046a5a4     PlayingCardsDemo.obj
 0002:000115c0       ??_R1A@?0A@EA@TokenTray@@8 0046a5c0     PlayingCardsDemo.obj
 0002:000115e4       ??_R4TokenTray@@6BDisplayableObjectContainer@@@ 0046a5e4     PlayingCardsDemo.obj
 0002:000115fc       ??_R4CardOrTile@@6BDragableBaseClassObject@@@ 0046a5fc     PlayingCardsDemo.obj
 0002:00011614       ??_R3CardOrTile@@8         0046a614     PlayingCardsDemo.obj
 0002:00011628       ??_R2CardOrTile@@8         0046a628     PlayingCardsDemo.obj
 0002:00011644       ??_R1A@?0A@EA@CardOrTile@@8 0046a644     PlayingCardsDemo.obj
 0002:00011668       ??_R4CardOrTile@@6BDisplayableObjectContainer@@@ 0046a668     PlayingCardsDemo.obj
 0002:00011680       ??_R4CardContainer@@6BDragableBaseClassObject@@@ 0046a680     PlayingCardsDemo.obj
 0002:00011698       ??_R3CardContainer@@8      0046a698     PlayingCardsDemo.obj
 0002:000116ac       ??_R2CardContainer@@8      0046a6ac     PlayingCardsDemo.obj
 0002:000116c8       ??_R1A@?0A@EA@CardContainer@@8 0046a6c8     PlayingCardsDemo.obj
 0002:000116ec       ??_R4CardContainer@@6BDisplayableObjectContainer@@@ 0046a6ec     PlayingCardsDemo.obj
 0002:00011704       ??_R4ImagePixelMappingRotate@@6B@ 0046a704     PlayingCardsDemo.obj
 0002:0001171c       ??_R3ImagePixelMappingRotate@@8 0046a71c     PlayingCardsDemo.obj
 0002:00011730       ??_R2ImagePixelMappingRotate@@8 0046a730     PlayingCardsDemo.obj
 0002:0001173c       ??_R1A@?0A@EA@ImagePixelMappingRotate@@8 0046a73c     PlayingCardsDemo.obj
 0002:00011760       ??_R4ImagePixelMappingRotateAndColour@@6B@ 0046a760     PlayingCardsDemo.obj
 0002:00011778       ??_R3ImagePixelMappingRotateAndColour@@8 0046a778     PlayingCardsDemo.obj
 0002:0001178c       ??_R2ImagePixelMappingRotateAndColour@@8 0046a78c     PlayingCardsDemo.obj
 0002:0001179c       ??_R1A@?0A@EA@ImagePixelMappingRotateAndColour@@8 0046a79c     PlayingCardsDemo.obj
 0002:000117c0       ??_R4BouncingObject@@6B@   0046a7c0     SimpleDemo.obj
 0002:000117d8       ??_R3BouncingObject@@8     0046a7d8     SimpleDemo.obj
 0002:000117ec       ??_R2BouncingObject@@8     0046a7ec     SimpleDemo.obj
 0002:000117f8       ??_R1A@?0A@EA@BouncingObject@@8 0046a7f8     SimpleDemo.obj
 0002:0001181c       ??_R4StarfieldDemo@@6BDisplayableObjectContainer@@@ 0046a81c     StarfieldDemo.obj
 0002:00011834       ??_R3StarfieldDemo@@8      0046a834     StarfieldDemo.obj
 0002:00011848       ??_R2StarfieldDemo@@8      0046a848     StarfieldDemo.obj
 0002:0001185c       ??_R1A@?0A@EA@StarfieldDemo@@8 0046a85c     StarfieldDemo.obj
 0002:00011880       ??_R4StarfieldDemo@@6BFilterPoints@@@ 0046a880     StarfieldDemo.obj
 0002:00011898       ??_R4BouncingBall@@6B@     0046a898     BouncingBall.obj
 0002:000118b0       ??_R3BouncingBall@@8       0046a8b0     BouncingBall.obj
 0002:000118c4       ??_R2BouncingBall@@8       0046a8c4     BouncingBall.obj
 0002:000118d0       ??_R1A@?0A@EA@BouncingBall@@8 0046a8d0     BouncingBall.obj
 0002:000118f4       ??_R4BouncingBall1@@6B@    0046a8f4     BouncingBall.obj
 0002:0001190c       ??_R3BouncingBall1@@8      0046a90c     BouncingBall.obj
 0002:00011920       ??_R2BouncingBall1@@8      0046a920     BouncingBall.obj
 0002:00011930       ??_R1A@?0A@EA@BouncingBall1@@8 0046a930     BouncingBall.obj
 0002:00011954       ??_R4BouncingBall2@@6B@    0046a954     BouncingBall.obj
 0002:0001196c       ??_R3BouncingBall2@@8      0046a96c     BouncingBall.obj
 0002:00011980       ??_R2BouncingBall2@@8      0046a980     BouncingBall.obj
 0002:00011990       ??_R1A@?0A@EA@BouncingBall2@@8 0046a990     BouncingBall.obj
 0002:000119b4       ??_R4SimpleFlashingDragableImageObject@@6B@ 0046a9b4     ZoomingDemo.obj
 0002:000119cc       ??_R3SimpleFlashingDragableImageObject@@8 0046a9cc     ZoomingDemo.obj
 0002:000119e0       ??_R2SimpleFlashingDragableImageObject@@8 0046a9e0     ZoomingDemo.obj
 0002:000119ec       ??_R1A@?0A@EA@SimpleFlashingDragableImageObject@@8 0046a9ec     ZoomingDemo.obj
 0002:00011a10       ??_R4MazeDemoMain@@6BDisplayableObjectContainer@@@ 0046aa10     MazeDemoMain.obj
 0002:00011a28       ??_R3MazeDemoMain@@8       0046aa28     MazeDemoMain.obj
 0002:00011a3c       ??_R2MazeDemoMain@@8       0046aa3c     MazeDemoMain.obj
 0002:00011a50       ??_R1A@?0A@EA@MazeDemoMain@@8 0046aa50     MazeDemoMain.obj
 0002:00011a74       ??_R4MazeDemoMain@@6BFilterPoints@@@ 0046aa74     MazeDemoMain.obj
 0002:00011a8c       ??_R4MazeDemoTileManager@@6B@ 0046aa8c     MazeDemoMain.obj
 0002:00011aa4       ??_R3MazeDemoTileManager@@8 0046aaa4     MazeDemoMain.obj
 0002:00011ab8       ??_R2MazeDemoTileManager@@8 0046aab8     MazeDemoMain.obj
 0002:00011ac4       ??_R1A@?0A@EA@MazeDemoTileManager@@8 0046aac4     MazeDemoMain.obj
 0002:00011ae8       ??_R4MazeDemoObject@@6B@   0046aae8     MazeDemoObject.obj
 0002:00011b00       ??_R3MazeDemoObject@@8     0046ab00     MazeDemoObject.obj
 0002:00011b14       ??_R2MazeDemoObject@@8     0046ab14     MazeDemoObject.obj
 0002:00011b20       ??_R1A@?0A@EA@MazeDemoObject@@8 0046ab20     MazeDemoObject.obj
 0002:00011b44       ??_R4type_info@@6B@        0046ab44     MSVCRTD:std_type_info_static.obj
 0002:00011b5c       ??_R3type_info@@8          0046ab5c     MSVCRTD:std_type_info_static.obj
 0002:00011b70       ??_R2type_info@@8          0046ab70     MSVCRTD:std_type_info_static.obj
 0002:00011b78       ??_R1A@?0A@EA@type_info@@8 0046ab78     MSVCRTD:std_type_info_static.obj
 0002:00011d70       ___safe_se_handler_table   0046ad70     <linker-defined>
 0002:000124e0       ___rtc_iaa                 0046b4e0     MSVCRTD:initsect.obj
 0002:000125e4       ___rtc_izz                 0046b5e4     MSVCRTD:initsect.obj
 0002:000126e8       ___rtc_taa                 0046b6e8     MSVCRTD:initsect.obj
 0002:000127ec       ___rtc_tzz                 0046b7ec     MSVCRTD:initsect.obj
 0002:00013a38       __TI3?AVbad_array_new_length@std@@ 0046ca38     CW2Creature.obj
 0002:00013a4c       __CTA3?AVbad_array_new_length@std@@ 0046ca4c     CW2Creature.obj
 0002:00013a60       __CT??_R0?AVbad_array_new_length@std@@@8??0bad_array_new_length@std@@QAE@ABV01@@Z12 0046ca60     CW2Creature.obj
 0002:00013a80       __CT??_R0?AVbad_alloc@std@@@8??0bad_alloc@std@@QAE@ABV01@@Z12 0046ca80     CW2Creature.obj
 0002:00013aa0       __CT??_R0?AVexception@std@@@8??0exception@std@@QAE@ABV01@@Z12 0046caa0     CW2Creature.obj
 0002:00014a2c       __TI2?AVbad_cast@std@@     0046da2c     CW2GameState.obj
 0002:00014a40       __CTA2?AVbad_cast@std@@    0046da40     CW2GameState.obj
 0002:00014a50       __CT??_R0?AVbad_cast@std@@@8??0bad_cast@std@@QAE@ABV01@@Z12 0046da50     CW2GameState.obj
 0002:00016360       __TI2?AVbad_alloc@std@@    0046f360     MSVCRTD:throw_bad_alloc.obj
 0002:00016374       __CTA2?AVbad_alloc@std@@   0046f374     MSVCRTD:throw_bad_alloc.obj
 0003:00000010       ___security_cookie_complement 00470010     MSVCRTD:gs_cookie.obj
 0003:00000014       ___security_cookie         00470014     MSVCRTD:gs_cookie.obj
 0003:0000001c       __fltused                  0047001c     MSVCRTD:fltused.obj
 0003:00000020       ___scrt_native_dllmain_reason 00470020     MSVCRTD:utility.obj
 0003:00000024       ___scrt_default_matherr    00470024     MSVCRTD:matherr.obj
 0003:00000028       ___isa_enabled             00470028     MSVCRTD:cpu_disp.obj
 0003:0000002c       ___scrt_ucrt_dll_is_in_use 0047002c     MSVCRTD:ucrt_stubs.obj
 0003:00000138       ??_R0?AVbad_array_new_length@std@@@8 00470138     CW2Creature.obj
 0003:00000168       ??_R0?AVbad_alloc@std@@@8  00470168     CW2Creature.obj
 0003:0000018c       ??_R0?AVexception@std@@@8  0047018c     CW2Creature.obj
 0003:000001b0       ??_R0?AVBaseEngine@@@8     004701b0     CW2Creature.obj
 0003:000001d0       ??_R0?AVCW2Engine@@@8      004701d0     CW2Creature.obj
 0003:000001ec       ??_R0?AVDisplayableObject@@@8 004701ec     CW2Creature.obj
 0003:00000214       ??_R0?AVMonster@@@8        00470214     CW2Creature.obj
 0003:00000230       ??_R0?AVPlayer@@@8         00470230     CW2Creature.obj
 0003:0000024c       ??_R0?AVbad_cast@std@@@8   0047024c     CW2GameState.obj
 0003:0000026c       ??_R0?AVCW2GameState@@@8   0047026c     CW2GameState.obj
 0003:0000028c       ??_R0?AVPlayState@@@8      0047028c     CW2GameState.obj
 0003:00000374       ??_R0?AV<lambda_341a6657abb2758c42a6873833e6116f>@@@8 00470374     JigsawDemo.obj
 0003:000003b8       ??_R0?AV<lambda_817584b2460f1bcab806f46a25c321a8>@@@8 004703b8     JigsawDemo.obj
 0003:000003fc       ??_R0?AV<lambda_369f3aee610e50bbd15c3a78d9c8686f>@@@8 004703fc     JigsawDemo.obj
 0003:00000440       ??_R0?AV<lambda_4d3c514b9e5ad6cc29096aa3b57f98f2>@@@8 00470440     JigsawDemo.obj
 0003:00000484       ??_R0?AV<lambda_2870de01b601283699da779de20905fc>@@@8 00470484     JigsawDemo.obj
 0003:000004c8       ??_R0?AVDragableTokenContainer@@@8 004704c8     PlayingCardsDemo.obj
 0003:000004f4       ??_R0?AVCardContainer@@@8  004704f4     PlayingCardsDemo.obj
 0003:00000628       ??_R0?AVImagePixelMapping@@@8 00470628     CW2Creature.obj
 0003:00000650       ??_R0?AVCroppedImagePixelMapping@@@8 00470650     CW2Creature.obj
 0003:00000680       ??_R0?AV_Ref_count_base@std@@@8 00470680     CW2Creature.obj
 0003:000006a8       ??_R0?AVDisplayableObjectContainer@@@8 004706a8     CW2Creature.obj
 0003:000006dc       ??_R0?AVCW2Object@@@8      004706dc     CW2Creature.obj
 0003:000006f8       ??_R0?AVCW2AnimatedManager@@@8 004706f8     CW2Creature.obj
 0003:00000720       ??_R0?AVCW2ImagePixelMapping@@@8 00470720     CW2Creature.obj
 0003:0000074c       ??_R0?AVImagePixelMappingShiftXY@@@8 0047074c     CW2Creature.obj
 0003:0000077c       ??_R0?AVSimpleImage@@@8    0047077c     CW2Creature.obj
 0003:0000079c       ??_R0?AVCW2Creature@@@8    0047079c     CW2Creature.obj
 0003:000007bc       ??_R0?AVAggressiveMonster@@@8 004707bc     CW2Creature.obj
 0003:000007e4       ??_R0?AVPeacefulMonster@@@8 004707e4     CW2Creature.obj
 0003:00000808       ??_R0?AVNomalMonster@@@8   00470808     CW2Creature.obj
 0003:00000828       ??_R0?AV?$_Ref_count@VRawImageData@@@std@@@8 00470828     CW2Creature.obj
 0003:00000860       ??_R0?AV?$_Ref_count_obj2@VCW2ImagePixelMapping@@@std@@@8 00470860     CW2Creature.obj
 0003:000008a8       ??_R0?AV?$_Ref_count_obj2@VCW2AnimatedManager@@@std@@@8 004708a8     CW2Creature.obj
 0003:000008f0       ??_R0?AVFilterPoints@@@8   004708f0     CW2Engine.obj
 0003:00000910       ??_R0?AV?$basic_stringbuf@DU?$char_traits@D@std@@V?$allocator@D@2@@std@@@8 00470910     CW2GameState.obj
 0003:0000096c       ??_R0?AV?$basic_streambuf@DU?$char_traits@D@std@@@std@@@8 0047096c     CW2GameState.obj
 0003:000009b8       ??_R0?AV?$basic_stringstream@DU?$char_traits@D@std@@V?$allocator@D@2@@std@@@8 004709b8     CW2GameState.obj
 0003:00000a18       ??_R0?AV?$basic_iostream@DU?$char_traits@D@std@@@std@@@8 00470a18     CW2GameState.obj
 0003:00000a60       ??_R0?AV?$basic_istream@DU?$char_traits@D@std@@@std@@@8 00470a60     CW2GameState.obj
 0003:00000aa8       ??_R0?AV?$basic_ios@DU?$char_traits@D@std@@@std@@@8 00470aa8     CW2GameState.obj
 0003:00000ae8       ??_R0?AVios_base@std@@@8   00470ae8     CW2GameState.obj
 0003:00000b08       ??_R0?AV?$_Iosb@H@std@@@8  00470b08     CW2GameState.obj
 0003:00000b2c       ??_R0?AV?$basic_ostream@DU?$char_traits@D@std@@@std@@@8 00470b2c     CW2GameState.obj
 0003:00000b74       ??_R0?AV?$basic_filebuf@DU?$char_traits@D@std@@@std@@@8 00470b74     CW2GameState.obj
 0003:00000bbc       ??_R0?AV?$basic_ifstream@DU?$char_traits@D@std@@@std@@@8 00470bbc     CW2GameState.obj
 0003:00000c04       ??_R0?AV?$basic_ofstream@DU?$char_traits@D@std@@@std@@@8 00470c04     CW2GameState.obj
 0003:00000c4c       ??_R0?AVCW2Wand@@@8        00470c4c     CW2GameState.obj
 0003:00000c68       ??_R0?AVInitState@@@8      00470c68     CW2GameState.obj
 0003:00000c84       ??_R0?AVMenuState@@@8      00470c84     CW2GameState.obj
 0003:00000ca0       ??_R0?AVLoseState@@@8      00470ca0     CW2GameState.obj
 0003:00000cbc       ??_R0?AVHighscoreState@@@8 00470cbc     CW2GameState.obj
 0003:00000ce0       ??_R0?AVCW2Magic@@@8       00470ce0     CW2GameState.obj
 0003:00000cfc       ??_R0?AV?$_Ref_count_obj2@VCW2TileManager@@@std@@@8 00470cfc     CW2GameState.obj
 0003:00000d3c       ??_R0?AVGameoverState@@@8  00470d3c     CW2StateManager.obj
 0003:00000d60       ??_R0?AVTileManager@@@8    00470d60     CW2TileManager.obj
 0003:00000d80       ??_R0?AVCW2TileManager@@@8 00470d80     CW2TileManager.obj
 0003:00000da4       ??_R0?AVDragableBaseClassObject@@@8 00470da4     DraggingDemo.obj
 0003:00000dd4       ??_R0?AVDragableObject@@@8 00470dd4     DraggingDemo.obj
 0003:00000df8       ??_R0?AVDragableImageObject@@@8 00470df8     DraggingDemo.obj
 0003:00000e20       ??_R0?AVImageObject@@@8    00470e20     DraggingDemo.obj
 0003:00000e40       ??_R0?AVFlashingDemo@@@8   00470e40     FlashingDemo.obj
 0003:00000e60       ??_R0?AVMappableImageObject@@@8 00470e60     ImageMappingDemo.obj
 0003:00000e88       ??_R0?AV?$_Func_base@XPAVDisplayableObject@@@std@@@8 00470e88     JigsawDemo.obj
 0003:00000ecc       ??_R0?AVJigsawPiece@@@8    00470ecc     JigsawDemo.obj
 0003:00000ef0       ??_R0?AV?$_Func_impl_no_alloc@V<lambda_2870de01b601283699da779de20905fc>@@XPAVDisplayableObject@@@std@@@8 00470ef0     JigsawDemo.obj
 0003:00000f78       ??_R0?AV?$_Func_impl_no_alloc@V<lambda_4d3c514b9e5ad6cc29096aa3b57f98f2>@@XPAVDisplayableObject@@@std@@@8 00470f78     JigsawDemo.obj
 0003:00001000       ??_R0?AV?$_Func_impl_no_alloc@V<lambda_369f3aee610e50bbd15c3a78d9c8686f>@@XPAVDisplayableObject@@@std@@@8 00471000     JigsawDemo.obj
 0003:00001088       ??_R0?AV?$_Func_impl_no_alloc@V<lambda_817584b2460f1bcab806f46a25c321a8>@@XPAVDisplayableObject@@@std@@@8 00471088     JigsawDemo.obj
 0003:00001110       ??_R0?AV?$_Func_impl_no_alloc@V<lambda_341a6657abb2758c42a6873833e6116f>@@XPAVDisplayableObject@@@std@@@8 00471110     JigsawDemo.obj
 0003:0000132c       ??_R0?AVMyObjectB@@@8      0047132c     MyObjectB.obj
 0003:00001348       ??_R0?AVDragableToken@@@8  00471348     PlayingCardsDemo.obj
 0003:0000136c       ??_R0?AVTokenTray@@@8      0047136c     PlayingCardsDemo.obj
 0003:00001388       ??_R0?AVCardOrTile@@@8     00471388     PlayingCardsDemo.obj
 0003:000013a8       ??_R0?AVImagePixelMappingRotate@@@8 004713a8     PlayingCardsDemo.obj
 0003:000013d8       ??_R0?AVImagePixelMappingRotateAndColour@@@8 004713d8     PlayingCardsDemo.obj
 0003:00001410       ??_R0?AVBouncingObject@@@8 00471410     SimpleDemo.obj
 0003:00001434       ??_R0?AVStarfieldDemo@@@8  00471434     StarfieldDemo.obj
 0003:00001458       ??_R0?AVBouncingBall@@@8   00471458     BouncingBall.obj
 0003:00001478       ??_R0?AVBouncingBall1@@@8  00471478     BouncingBall.obj
 0003:0000149c       ??_R0?AVBouncingBall2@@@8  0047149c     BouncingBall.obj
 0003:000014c0       ??_R0?AVSimpleFlashingDragableImageObject@@@8 004714c0     ZoomingDemo.obj
 0003:000014fc       ??_R0?AVMazeDemoMain@@@8   004714fc     MazeDemoMain.obj
 0003:0000151c       ??_R0?AVMazeDemoTileManager@@@8 0047151c     MazeDemoMain.obj
 0003:00001544       ??_R0?AVMazeDemoObject@@@8 00471544     MazeDemoObject.obj
 0003:00001568       ??_R0?AVtype_info@@@8      00471568     MSVCRTD:std_type_info_static.obj
 0003:000016c8       ?_OptionsStorage@?1??__local_stdio_printf_options@@9@4_KA 004716c8     CW2Creature.obj
 0003:000016dc       ?_Stinit@?1??_Init@?$basic_filebuf@DU?$char_traits@D@std@@@std@@IAEXPAU_iobuf@@W4_Initfl@23@@Z@4U_Mbstatet@@A 004716dc     CW2GameState.obj
 0003:000016e8       ?_Psave@?$_Facetptr@V?$codecvt@DDU_Mbstatet@@@std@@@std@@2PBVfacet@locale@2@B 004716e8     CW2GameState.obj
 0003:000016ec       ?g_pManager@ImageManager@@0PAV1@A 004716ec     SimpleImage.obj
 0003:000016f8       ___scrt_current_native_startup_state 004716f8     MSVCRTD:utility.obj
 0003:000016fc       ___scrt_native_startup_lock 004716fc     MSVCRTD:utility.obj
 0003:00001724       ___castguard_check_failure_os_handled_fptr 00471724     MSVCRTD:guard_support.obj
 0003:00001728       ?__type_info_root_node@@3U__type_info_node@@A 00471728     MSVCRTD:tncleanup.obj
 0003:00001738       ?_OptionsStorage@?1??__local_stdio_scanf_options@@9@4_KA 00471738     MSVCRTD:default_local_stdio_options.obj
 0003:00001744       ___scrt_debugger_hook_flag 00471744     MSVCRTD:utility_desktop.obj
 0003:00001b04       ___isa_available           00471b04     MSVCRTD:cpu_disp.obj
 0003:00001b08       ___favor                   00471b08     MSVCRTD:cpu_disp.obj
 0003:00001b10       ___dyn_tls_dtor_callback   00471b10     <common>
 0003:00001b1c       ___dyn_tls_init_callback   00471b1c     <common>
 0004:00000000       __imp__QueryPerformanceCounter@4 00472000     kernel32:KERNEL32.dll
 0004:00000004       __imp__GetCurrentProcessId@0 00472004     kernel32:KERNEL32.dll
 0004:00000008       __imp__GetCurrentThreadId@0 00472008     kernel32:KERNEL32.dll
 0004:0000000c       __imp__GetSystemTimeAsFileTime@4 0047200c     kernel32:KERNEL32.dll
 0004:00000010       __imp__InitializeSListHead@4 00472010     kernel32:KERNEL32.dll
 0004:00000014       __imp__IsDebuggerPresent@0 00472014     kernel32:KERNEL32.dll
 0004:00000018       __imp__UnhandledExceptionFilter@4 00472018     kernel32:KERNEL32.dll
 0004:0000001c       __imp__SetUnhandledExceptionFilter@4 0047201c     kernel32:KERNEL32.dll
 0004:00000020       __imp__GetStartupInfoW@4   00472020     kernel32:KERNEL32.dll
 0004:00000024       __imp__IsProcessorFeaturePresent@4 00472024     kernel32:KERNEL32.dll
 0004:00000028       __imp__GetCurrentProcess@0 00472028     kernel32:KERNEL32.dll
 0004:0000002c       __imp__TerminateProcess@8  0047202c     kernel32:KERNEL32.dll
 0004:00000030       __imp__GetCommandLineW@0   00472030     kernel32:KERNEL32.dll
 0004:00000034       __imp__VirtualAlloc@16     00472034     kernel32:KERNEL32.dll
 0004:00000038       __imp__GetModuleHandleW@4  00472038     kernel32:KERNEL32.dll
 0004:0000003c       __imp__VirtualFree@12      0047203c     kernel32:KERNEL32.dll
 0004:00000040       __imp__WideCharToMultiByte@32 00472040     kernel32:KERNEL32.dll
 0004:00000044       \177KERNEL32_NULL_THUNK_DATA 00472044     kernel32:KERNEL32.dll
 0004:0000007c       __imp_?_Fiopen@std@@YAPAU_iobuf@@PBDHH@Z 0047207c     msvcprtd:MSVCP140D.dll
 0004:00000080       __imp_??1?$basic_iostream@DU?$char_traits@D@std@@@std@@UAE@XZ 00472080     msvcprtd:MSVCP140D.dll
 0004:00000084       __imp_?_Lock@?$basic_streambuf@DU?$char_traits@D@std@@@std@@UAEXXZ 00472084     msvcprtd:MSVCP140D.dll
 0004:00000088       __imp_?_Unlock@?$basic_streambuf@DU?$char_traits@D@std@@@std@@UAEXXZ 00472088     msvcprtd:MSVCP140D.dll
 0004:0000008c       __imp_?imbue@?$basic_streambuf@DU?$char_traits@D@std@@@std@@MAEXABVlocale@2@@Z 0047208c     msvcprtd:MSVCP140D.dll
 0004:00000090       __imp_?setbuf@?$basic_streambuf@DU?$char_traits@D@std@@@std@@MAEPAV12@PAD_J@Z 00472090     msvcprtd:MSVCP140D.dll
 0004:00000094       __imp_?sync@?$basic_streambuf@DU?$char_traits@D@std@@@std@@MAEHXZ 00472094     msvcprtd:MSVCP140D.dll
 0004:00000098       __imp_?uflow@?$basic_streambuf@DU?$char_traits@D@std@@@std@@MAEHXZ 00472098     msvcprtd:MSVCP140D.dll
 0004:0000009c       __imp_?id@?$codecvt@DDU_Mbstatet@@@std@@2V0locale@2@A 0047209c     msvcprtd:MSVCP140D.dll
 0004:000000a0       __imp_?_Xbad_function_call@std@@YAXXZ 004720a0     msvcprtd:MSVCP140D.dll
 0004:000000a4       __imp_?showmanyc@?$basic_streambuf@DU?$char_traits@D@std@@@std@@MAE_JXZ 004720a4     msvcprtd:MSVCP140D.dll
 0004:000000a8       __imp_??0_Lockit@std@@QAE@H@Z 004720a8     msvcprtd:MSVCP140D.dll
 0004:000000ac       __imp_??1_Lockit@std@@QAE@XZ 004720ac     msvcprtd:MSVCP140D.dll
 0004:000000b0       __imp_?_Xlength_error@std@@YAXPBD@Z 004720b0     msvcprtd:MSVCP140D.dll
 0004:000000b4       __imp_?_Xout_of_range@std@@YAXPBD@Z 004720b4     msvcprtd:MSVCP140D.dll
 0004:000000b8       __imp_?uncaught_exception@std@@YA_NXZ 004720b8     msvcprtd:MSVCP140D.dll
 0004:000000bc       __imp_?good@ios_base@std@@QBE_NXZ 004720bc     msvcprtd:MSVCP140D.dll
 0004:000000c0       __imp_?flags@ios_base@std@@QBEHXZ 004720c0     msvcprtd:MSVCP140D.dll
 0004:000000c4       __imp_?width@ios_base@std@@QBE_JXZ 004720c4     msvcprtd:MSVCP140D.dll
 0004:000000c8       __imp_?width@ios_base@std@@QAE_J_J@Z 004720c8     msvcprtd:MSVCP140D.dll
 0004:000000cc       __imp_?sputc@?$basic_streambuf@DU?$char_traits@D@std@@@std@@QAEHD@Z 004720cc     msvcprtd:MSVCP140D.dll
 0004:000000d0       __imp_?sputn@?$basic_streambuf@DU?$char_traits@D@std@@@std@@QAE_JPBD_J@Z 004720d0     msvcprtd:MSVCP140D.dll
 0004:000000d4       __imp_?setstate@?$basic_ios@DU?$char_traits@D@std@@@std@@QAEXH_N@Z 004720d4     msvcprtd:MSVCP140D.dll
 0004:000000d8       __imp_?tie@?$basic_ios@DU?$char_traits@D@std@@@std@@QBEPAV?$basic_ostream@DU?$char_traits@D@std@@@2@XZ 004720d8     msvcprtd:MSVCP140D.dll
 0004:000000dc       __imp_?rdbuf@?$basic_ios@DU?$char_traits@D@std@@@std@@QBEPAV?$basic_streambuf@DU?$char_traits@D@std@@@2@XZ 004720dc     msvcprtd:MSVCP140D.dll
 0004:000000e0       __imp_?fill@?$basic_ios@DU?$char_traits@D@std@@@std@@QBEDXZ 004720e0     msvcprtd:MSVCP140D.dll
 0004:000000e4       __imp_?widen@?$basic_ios@DU?$char_traits@D@std@@@std@@QBEDD@Z 004720e4     msvcprtd:MSVCP140D.dll
 0004:000000e8       __imp_?_Osfx@?$basic_ostream@DU?$char_traits@D@std@@@std@@QAEXXZ 004720e8     msvcprtd:MSVCP140D.dll
 0004:000000ec       __imp_??6?$basic_ostream@DU?$char_traits@D@std@@@std@@QAEAAV01@P6AAAV01@AAV01@@Z@Z 004720ec     msvcprtd:MSVCP140D.dll
 0004:000000f0       __imp_??6?$basic_ostream@DU?$char_traits@D@std@@@std@@QAEAAV01@H@Z 004720f0     msvcprtd:MSVCP140D.dll
 0004:000000f4       __imp_?put@?$basic_ostream@DU?$char_traits@D@std@@@std@@QAEAAV12@D@Z 004720f4     msvcprtd:MSVCP140D.dll
 0004:000000f8       __imp_?flush@?$basic_ostream@DU?$char_traits@D@std@@@std@@QAEAAV12@XZ 004720f8     msvcprtd:MSVCP140D.dll
 0004:000000fc       __imp_?cout@std@@3V?$basic_ostream@DU?$char_traits@D@std@@@1@A 004720fc     msvcprtd:MSVCP140D.dll
 0004:00000100       __imp_??6?$basic_ostream@DU?$char_traits@D@std@@@std@@QAEAAV01@I@Z 00472100     msvcprtd:MSVCP140D.dll
 0004:00000104       __imp_?_Xbad_alloc@std@@YAXXZ 00472104     msvcprtd:MSVCP140D.dll
 0004:00000108       __imp_?_Xinvalid_argument@std@@YAXPBD@Z 00472108     msvcprtd:MSVCP140D.dll
 0004:0000010c       __imp_??Bid@locale@std@@QAEIXZ 0047210c     msvcprtd:MSVCP140D.dll
 0004:00000110       __imp_?_Getgloballocale@locale@std@@CAPAV_Locimp@12@XZ 00472110     msvcprtd:MSVCP140D.dll
 0004:00000114       __imp_?always_noconv@codecvt_base@std@@QBE_NXZ 00472114     msvcprtd:MSVCP140D.dll
 0004:00000118       __imp_?in@?$codecvt@DDU_Mbstatet@@@std@@QBEHAAU_Mbstatet@@PBD1AAPBDPAD3AAPAD@Z 00472118     msvcprtd:MSVCP140D.dll
 0004:0000011c       __imp_?out@?$codecvt@DDU_Mbstatet@@@std@@QBEHAAU_Mbstatet@@PBD1AAPBDPAD3AAPAD@Z 0047211c     msvcprtd:MSVCP140D.dll
 0004:00000120       __imp_?unshift@?$codecvt@DDU_Mbstatet@@@std@@QBEHAAU_Mbstatet@@PAD1AAPAD@Z 00472120     msvcprtd:MSVCP140D.dll
 0004:00000124       __imp_?_Getcat@?$codecvt@DDU_Mbstatet@@@std@@SAIPAPBVfacet@locale@2@PBV42@@Z 00472124     msvcprtd:MSVCP140D.dll
 0004:00000128       __imp_??Bios_base@std@@QBE_NXZ 00472128     msvcprtd:MSVCP140D.dll
 0004:0000012c       __imp_??0?$basic_streambuf@DU?$char_traits@D@std@@@std@@IAE@XZ 0047212c     msvcprtd:MSVCP140D.dll
 0004:00000130       __imp_??1?$basic_streambuf@DU?$char_traits@D@std@@@std@@UAE@XZ 00472130     msvcprtd:MSVCP140D.dll
 0004:00000134       __imp_?getloc@?$basic_streambuf@DU?$char_traits@D@std@@@std@@QBE?AVlocale@2@XZ 00472134     msvcprtd:MSVCP140D.dll
 0004:00000138       __imp_?sbumpc@?$basic_streambuf@DU?$char_traits@D@std@@@std@@QAEHXZ 00472138     msvcprtd:MSVCP140D.dll
 0004:0000013c       __imp_?sgetc@?$basic_streambuf@DU?$char_traits@D@std@@@std@@QAEHXZ 0047213c     msvcprtd:MSVCP140D.dll
 0004:00000140       __imp_?snextc@?$basic_streambuf@DU?$char_traits@D@std@@@std@@QAEHXZ 00472140     msvcprtd:MSVCP140D.dll
 0004:00000144       __imp_?eback@?$basic_streambuf@DU?$char_traits@D@std@@@std@@IBEPADXZ 00472144     msvcprtd:MSVCP140D.dll
 0004:00000148       __imp_?gptr@?$basic_streambuf@DU?$char_traits@D@std@@@std@@IBEPADXZ 00472148     msvcprtd:MSVCP140D.dll
 0004:0000014c       __imp_?pptr@?$basic_streambuf@DU?$char_traits@D@std@@@std@@IBEPADXZ 0047214c     msvcprtd:MSVCP140D.dll
 0004:00000150       __imp_?egptr@?$basic_streambuf@DU?$char_traits@D@std@@@std@@IBEPADXZ 00472150     msvcprtd:MSVCP140D.dll
 0004:00000154       __imp_?gbump@?$basic_streambuf@DU?$char_traits@D@std@@@std@@IAEXH@Z 00472154     msvcprtd:MSVCP140D.dll
 0004:00000158       __imp_?setg@?$basic_streambuf@DU?$char_traits@D@std@@@std@@IAEXPAD00@Z 00472158     msvcprtd:MSVCP140D.dll
 0004:0000015c       __imp_?epptr@?$basic_streambuf@DU?$char_traits@D@std@@@std@@IBEPADXZ 0047215c     msvcprtd:MSVCP140D.dll
 0004:00000160       __imp_?_Gndec@?$basic_streambuf@DU?$char_traits@D@std@@@std@@IAEPADXZ 00472160     msvcprtd:MSVCP140D.dll
 0004:00000164       __imp_?_Gninc@?$basic_streambuf@DU?$char_traits@D@std@@@std@@IAEPADXZ 00472164     msvcprtd:MSVCP140D.dll
 0004:00000168       __imp_?_Gnavail@?$basic_streambuf@DU?$char_traits@D@std@@@std@@IBE_JXZ 00472168     msvcprtd:MSVCP140D.dll
 0004:0000016c       __imp_?pbump@?$basic_streambuf@DU?$char_traits@D@std@@@std@@IAEXH@Z 0047216c     msvcprtd:MSVCP140D.dll
 0004:00000170       __imp_?setp@?$basic_streambuf@DU?$char_traits@D@std@@@std@@IAEXPAD0@Z 00472170     msvcprtd:MSVCP140D.dll
 0004:00000174       __imp_?setp@?$basic_streambuf@DU?$char_traits@D@std@@@std@@IAEXPAD00@Z 00472174     msvcprtd:MSVCP140D.dll
 0004:00000178       __imp_?_Pninc@?$basic_streambuf@DU?$char_traits@D@std@@@std@@IAEPADXZ 00472178     msvcprtd:MSVCP140D.dll
 0004:0000017c       __imp_?_Pnavail@?$basic_streambuf@DU?$char_traits@D@std@@@std@@IBE_JXZ 0047217c     msvcprtd:MSVCP140D.dll
 0004:00000180       __imp_?_Init@?$basic_streambuf@DU?$char_traits@D@std@@@std@@IAEXXZ 00472180     msvcprtd:MSVCP140D.dll
 0004:00000184       __imp_?_Init@?$basic_streambuf@DU?$char_traits@D@std@@@std@@IAEXPAPAD0PAH001@Z 00472184     msvcprtd:MSVCP140D.dll
 0004:00000188       __imp_?xsgetn@?$basic_streambuf@DU?$char_traits@D@std@@@std@@MAE_JPAD_J@Z 00472188     msvcprtd:MSVCP140D.dll
 0004:0000018c       __imp_?xsputn@?$basic_streambuf@DU?$char_traits@D@std@@@std@@MAE_JPBD_J@Z 0047218c     msvcprtd:MSVCP140D.dll
 0004:00000190       __imp_??1?$basic_ios@DU?$char_traits@D@std@@@std@@UAE@XZ 00472190     msvcprtd:MSVCP140D.dll
 0004:00000194       __imp_?clear@?$basic_ios@DU?$char_traits@D@std@@@std@@QAEXH_N@Z 00472194     msvcprtd:MSVCP140D.dll
 0004:00000198       __imp_??0?$basic_ios@DU?$char_traits@D@std@@@std@@IAE@XZ 00472198     msvcprtd:MSVCP140D.dll
 0004:0000019c       __imp_??0?$basic_ostream@DU?$char_traits@D@std@@@std@@QAE@PAV?$basic_streambuf@DU?$char_traits@D@std@@@1@_N@Z 0047219c     msvcprtd:MSVCP140D.dll
 0004:000001a0       __imp_??1?$basic_ostream@DU?$char_traits@D@std@@@std@@UAE@XZ 004721a0     msvcprtd:MSVCP140D.dll
 0004:000001a4       __imp_??6?$basic_ostream@DU?$char_traits@D@std@@@std@@QAEAAV01@N@Z 004721a4     msvcprtd:MSVCP140D.dll
 0004:000001a8       __imp_??0?$basic_istream@DU?$char_traits@D@std@@@std@@QAE@PAV?$basic_streambuf@DU?$char_traits@D@std@@@1@_N@Z 004721a8     msvcprtd:MSVCP140D.dll
 0004:000001ac       __imp_??1?$basic_istream@DU?$char_traits@D@std@@@std@@UAE@XZ 004721ac     msvcprtd:MSVCP140D.dll
 0004:000001b0       __imp_?_Ipfx@?$basic_istream@DU?$char_traits@D@std@@@std@@QAE_N_N@Z 004721b0     msvcprtd:MSVCP140D.dll
 0004:000001b4       __imp_??0?$basic_iostream@DU?$char_traits@D@std@@@std@@QAE@PAV?$basic_streambuf@DU?$char_traits@D@std@@@1@@Z 004721b4     msvcprtd:MSVCP140D.dll
 0004:000001b8       \177MSVCP140D_NULL_THUNK_DATA 004721b8     msvcprtd:MSVCP140D.dll
 0004:00000220       __imp__SDL_UpperBlitScaled 00472220     SDL2:SDL2.dll
 0004:00000224       __imp__SDL_SetClipRect     00472224     SDL2:SDL2.dll
 0004:00000228       __imp__SDL_Quit            00472228     SDL2:SDL2.dll
 0004:0000022c       __imp__SDL_Init            0047222c     SDL2:SDL2.dll
 0004:00000230       __imp__SDL_GetTicks        00472230     SDL2:SDL2.dll
 0004:00000234       __imp__SDL_RenderPresent   00472234     SDL2:SDL2.dll
 0004:00000238       __imp__SDL_RenderCopy      00472238     SDL2:SDL2.dll
 0004:0000023c       __imp__SDL_UpdateTexture   0047223c     SDL2:SDL2.dll
 0004:00000240       __imp__SDL_CreateTexture   00472240     SDL2:SDL2.dll
 0004:00000244       __imp__SDL_CreateRenderer  00472244     SDL2:SDL2.dll
 0004:00000248       __imp__SDL_CreateRGBSurface 00472248     SDL2:SDL2.dll
 0004:0000024c       __imp__SDL_WaitEvent       0047224c     SDL2:SDL2.dll
 0004:00000250       __imp__SDL_PollEvent       00472250     SDL2:SDL2.dll
 0004:00000254       __imp__SDL_CreateWindow    00472254     SDL2:SDL2.dll
 0004:00000258       __imp__SDL_GetError        00472258     SDL2:SDL2.dll
 0004:0000025c       __imp__SDL_FillRect        0047225c     SDL2:SDL2.dll
 0004:00000260       __imp__SDL_UpperBlit       00472260     SDL2:SDL2.dll
 0004:00000264       __imp__SDL_UnlockSurface   00472264     SDL2:SDL2.dll
 0004:00000268       __imp__SDL_LockSurface     00472268     SDL2:SDL2.dll
 0004:0000026c       __imp__SDL_FreeSurface     0047226c     SDL2:SDL2.dll
 0004:00000270       __imp__SDL_SetMainReady    00472270     SDL2:SDL2.dll
 0004:00000274       __imp__SDL_ShowSimpleMessageBox 00472274     SDL2:SDL2.dll
 0004:00000278       \177SDL2_NULL_THUNK_DATA   00472278     SDL2:SDL2.dll
 0004:000002b4       __imp__IMG_Load            004722b4     SDL2_image:SDL2_image.dll
 0004:000002b8       \177SDL2_image_NULL_THUNK_DATA 004722b8     SDL2_image:SDL2_image.dll
 0004:000002e4       __imp__TTF_CloseFont       004722e4     SDL2_ttf:SDL2_ttf.dll
 0004:000002e8       __imp__TTF_OpenFont        004722e8     SDL2_ttf:SDL2_ttf.dll
 0004:000002ec       __imp__TTF_RenderText_Solid 004722ec     SDL2_ttf:SDL2_ttf.dll
 0004:000002f0       __imp__TTF_Quit            004722f0     SDL2_ttf:SDL2_ttf.dll
 0004:000002f4       __imp__TTF_Init            004722f4     SDL2_ttf:SDL2_ttf.dll
 0004:000002f8       \177SDL2_ttf_NULL_THUNK_DATA 004722f8     SDL2_ttf:SDL2_ttf.dll
 0004:00000328       __imp____std_type_info_destroy_list 00472328     vcruntimed:VCRUNTIME140D.dll
 0004:0000032c       __imp___except_handler4_common 0047232c     vcruntimed:VCRUNTIME140D.dll
 0004:00000330       __imp____current_exception_context 00472330     vcruntimed:VCRUNTIME140D.dll
 0004:00000334       __imp___purecall           00472334     vcruntimed:VCRUNTIME140D.dll
 0004:00000338       __imp__memcmp              00472338     vcruntimed:VCRUNTIME140D.dll
 0004:0000033c       __imp__memcpy              0047233c     vcruntimed:VCRUNTIME140D.dll
 0004:00000340       __imp__memmove             00472340     vcruntimed:VCRUNTIME140D.dll
 0004:00000344       __imp__memset              00472344     vcruntimed:VCRUNTIME140D.dll
 0004:00000348       __imp____std_exception_copy 00472348     vcruntimed:VCRUNTIME140D.dll
 0004:0000034c       __imp____std_exception_destroy 0047234c     vcruntimed:VCRUNTIME140D.dll
 0004:00000350       __imp___CxxThrowException@8 00472350     vcruntimed:VCRUNTIME140D.dll
 0004:00000354       __imp____CxxFrameHandler3  00472354     vcruntimed:VCRUNTIME140D.dll
 0004:00000358       __imp____RTDynamicCast     00472358     vcruntimed:VCRUNTIME140D.dll
 0004:0000035c       __imp____current_exception 0047235c     vcruntimed:VCRUNTIME140D.dll
 0004:00000360       \177VCRUNTIME140D_NULL_THUNK_DATA 00472360     vcruntimed:VCRUNTIME140D.dll
 0004:00000394       __imp__fputc               00472394     ucrtd:ucrtbased.dll
 0004:00000398       __imp__fread               00472398     ucrtd:ucrtbased.dll
 0004:0000039c       __imp__fsetpos             0047239c     ucrtd:ucrtbased.dll
 0004:000003a0       __imp___fseeki64           004723a0     ucrtd:ucrtbased.dll
 0004:000003a4       __imp__fwrite              004723a4     ucrtd:ucrtbased.dll
 0004:000003a8       __imp__remove              004723a8     ucrtd:ucrtbased.dll
 0004:000003ac       __imp__setvbuf             004723ac     ucrtd:ucrtbased.dll
 0004:000003b0       __imp__ungetc              004723b0     ucrtd:ucrtbased.dll
 0004:000003b4       __imp___lock_file          004723b4     ucrtd:ucrtbased.dll
 0004:000003b8       __imp___unlock_file        004723b8     ucrtd:ucrtbased.dll
 0004:000003bc       __imp____stdio_common_vsprintf_s 004723bc     ucrtd:ucrtbased.dll
 0004:000003c0       __imp__atan                004723c0     ucrtd:ucrtbased.dll
 0004:000003c4       __imp__atoi                004723c4     ucrtd:ucrtbased.dll
 0004:000003c8       __imp__fgets               004723c8     ucrtd:ucrtbased.dll
 0004:000003cc       __imp__fopen               004723cc     ucrtd:ucrtbased.dll
 0004:000003d0       __imp___CrtDumpMemoryLeaks 004723d0     ucrtd:ucrtbased.dll
 0004:000003d4       __imp__srand               004723d4     ucrtd:ucrtbased.dll
 0004:000003d8       __imp___time64             004723d8     ucrtd:ucrtbased.dll
 0004:000003dc       __imp__puts                004723dc     ucrtd:ucrtbased.dll
 0004:000003e0       __imp__strcmp              004723e0     ucrtd:ucrtbased.dll
 0004:000003e4       __imp__strcpy              004723e4     ucrtd:ucrtbased.dll
 0004:000003e8       __imp___free_dbg           004723e8     ucrtd:ucrtbased.dll
 0004:000003ec       __imp___malloc_dbg         004723ec     ucrtd:ucrtbased.dll
 0004:000003f0       __imp___seh_filter_exe     004723f0     ucrtd:ucrtbased.dll
 0004:000003f4       __imp__fgetc               004723f4     ucrtd:ucrtbased.dll
 0004:000003f8       __imp____setusermatherr    004723f8     ucrtd:ucrtbased.dll
 0004:000003fc       __imp___configure_narrow_argv 004723fc     ucrtd:ucrtbased.dll
 0004:00000400       __imp___initialize_narrow_environment 00472400     ucrtd:ucrtbased.dll
 0004:00000404       __imp___get_initial_narrow_environment 00472404     ucrtd:ucrtbased.dll
 0004:00000408       __imp___initterm           00472408     ucrtd:ucrtbased.dll
 0004:0000040c       __imp___initterm_e         0047240c     ucrtd:ucrtbased.dll
 0004:00000410       __imp__exit                00472410     ucrtd:ucrtbased.dll
 0004:00000414       __imp___exit               00472414     ucrtd:ucrtbased.dll
 0004:00000418       __imp___set_fmode          00472418     ucrtd:ucrtbased.dll
 0004:0000041c       __imp____p___argc          0047241c     ucrtd:ucrtbased.dll
 0004:00000420       __imp____p___argv          00472420     ucrtd:ucrtbased.dll
 0004:00000424       __imp___cexit              00472424     ucrtd:ucrtbased.dll
 0004:00000428       __imp___c_exit             00472428     ucrtd:ucrtbased.dll
 0004:0000042c       __imp___register_thread_local_exe_atexit_callback 0047242c     ucrtd:ucrtbased.dll
 0004:00000430       __imp___configthreadlocale 00472430     ucrtd:ucrtbased.dll
 0004:00000434       __imp___set_new_mode       00472434     ucrtd:ucrtbased.dll
 0004:00000438       __imp____p__commode        00472438     ucrtd:ucrtbased.dll
 0004:0000043c       __imp__terminate           0047243c     ucrtd:ucrtbased.dll
 0004:00000440       __imp___callnewh           00472440     ucrtd:ucrtbased.dll
 0004:00000444       __imp__malloc              00472444     ucrtd:ucrtbased.dll
 0004:00000448       __imp___seh_filter_dll     00472448     ucrtd:ucrtbased.dll
 0004:0000044c       __imp___initialize_onexit_table 0047244c     ucrtd:ucrtbased.dll
 0004:00000450       __imp___register_onexit_function 00472450     ucrtd:ucrtbased.dll
 0004:00000454       __imp___execute_onexit_table 00472454     ucrtd:ucrtbased.dll
 0004:00000458       __imp___crt_atexit         00472458     ucrtd:ucrtbased.dll
 0004:0000045c       __imp___crt_at_quick_exit  0047245c     ucrtd:ucrtbased.dll
 0004:00000460       __imp___controlfp_s        00472460     ucrtd:ucrtbased.dll
 0004:00000464       __imp__fgetpos             00472464     ucrtd:ucrtbased.dll
 0004:00000468       __imp__fflush              00472468     ucrtd:ucrtbased.dll
 0004:0000046c       __imp__fclose              0047246c     ucrtd:ucrtbased.dll
 0004:00000470       __imp___get_stream_buffer_pointers 00472470     ucrtd:ucrtbased.dll
 0004:00000474       __imp__strtol              00472474     ucrtd:ucrtbased.dll
 0004:00000478       __imp__sin                 00472478     ucrtd:ucrtbased.dll
 0004:0000047c       __imp__cos                 0047247c     ucrtd:ucrtbased.dll
 0004:00000480       __imp__atan2               00472480     ucrtd:ucrtbased.dll
 0004:00000484       __imp___errno              00472484     ucrtd:ucrtbased.dll
 0004:00000488       __imp__strlen              00472488     ucrtd:ucrtbased.dll
 0004:0000048c       __imp____stdio_common_vsprintf 0047248c     ucrtd:ucrtbased.dll
 0004:00000490       __imp____stdio_common_vfprintf 00472490     ucrtd:ucrtbased.dll
 0004:00000494       __imp____acrt_iob_func     00472494     ucrtd:ucrtbased.dll
 0004:00000498       __imp__rand                00472498     ucrtd:ucrtbased.dll
 0004:0000049c       __imp__sqrt                0047249c     ucrtd:ucrtbased.dll
 0004:000004a0       __imp__pow                 004724a0     ucrtd:ucrtbased.dll
 0004:000004a4       __imp__abs                 004724a4     ucrtd:ucrtbased.dll
 0004:000004a8       __imp___CrtDbgReport       004724a8     ucrtd:ucrtbased.dll
 0004:000004ac       __imp___invalid_parameter  004724ac     ucrtd:ucrtbased.dll
 0004:000004b0       __imp___set_app_type       004724b0     ucrtd:ucrtbased.dll
 0004:000004b4       \177ucrtbased_NULL_THUNK_DATA 004724b4     ucrtd:ucrtbased.dll
 0004:00000518       __IMPORT_DESCRIPTOR_SDL2   00472518     SDL2:SDL2.dll
 0004:0000052c       __IMPORT_DESCRIPTOR_SDL2_image 0047252c     SDL2_image:SDL2_image.dll
 0004:00000540       __IMPORT_DESCRIPTOR_SDL2_ttf 00472540     SDL2_ttf:SDL2_ttf.dll
 0004:00000554       __IMPORT_DESCRIPTOR_MSVCP140D 00472554     msvcprtd:MSVCP140D.dll
 0004:00000568       __IMPORT_DESCRIPTOR_VCRUNTIME140D 00472568     vcruntimed:VCRUNTIME140D.dll
 0004:0000057c       __IMPORT_DESCRIPTOR_ucrtbased 0047257c     ucrtd:ucrtbased.dll
 0004:00000590       __IMPORT_DESCRIPTOR_KERNEL32 00472590     kernel32:KERNEL32.dll
 0004:000005a4       __NULL_IMPORT_DESCRIPTOR   004725a4     SDL2:SDL2.dll
 0005:00000000       ___guard_check_icall_fptr  00475000     MSVCRTD:guard_support.obj
 0005:00000004       ___guard_xfg_check_icall_fptr 00475004     MSVCRTD:guard_support.obj

 entry point at        0001:000000b4

 Static symbols

 0002:fffa7000       __catchsym$??$?6U?$char_traits@D@std@@@std@@YAAAV?$basic_ostream@DU?$char_traits@D@std@@@0@AAV10@PBD@Z$3 00400000     BaseEngine.obj
 0002:fffa7000       __ehfuncinfo$??$_Deallocate@$07$0A@@std@@YAXPAXI@Z 00400000     BaseEngine.obj
 0002:fffa7000       __ehfuncinfo$??$_Deallocate_plain@V?$allocator@U_Container_proxy@std@@@std@@@std@@YAXAAV?$allocator@U_Container_proxy@std@@@0@QAU_Container_proxy@0@@Z 00400000     BaseEngine.obj
 0002:fffa7000       __ehfuncinfo$??1DisplayableObjectContainer@@UAE@XZ 00400000     BaseEngine.obj
 0002:fffa7000       __ehfuncinfo$??1_Sentry_base@?$basic_ostream@DU?$char_traits@D@std@@@std@@QAE@XZ 00400000     BaseEngine.obj
 0002:fffa7000       __ehfuncinfo$??1sentry@?$basic_ostream@DU?$char_traits@D@std@@@std@@QAE@XZ 00400000     BaseEngine.obj
 0002:fffa7000       __ehfuncinfo$?_Tidy@?$vector@PAVDisplayableObject@@V?$allocator@PAVDisplayableObject@@@std@@@std@@AAEXXZ 00400000     BaseEngine.obj
 0001:fffff000       __ehhandler$??$_Deallocate@$07$0A@@std@@YAXPAXI@Z 00400000 f   BaseEngine.obj
 0001:fffff000       __ehhandler$??$_Deallocate_plain@V?$allocator@U_Container_proxy@std@@@std@@@std@@YAXAAV?$allocator@U_Container_proxy@std@@@0@QAU_Container_proxy@0@@Z 00400000 f   BaseEngine.obj
 0001:fffff000       __ehhandler$??1DisplayableObjectContainer@@UAE@XZ 00400000 f   BaseEngine.obj
 0001:fffff000       __ehhandler$??1_Sentry_base@?$basic_ostream@DU?$char_traits@D@std@@@std@@QAE@XZ 00400000 f   BaseEngine.obj
 0001:fffff000       __ehhandler$??1sentry@?$basic_ostream@DU?$char_traits@D@std@@@std@@QAE@XZ 00400000 f   BaseEngine.obj
 0001:fffff000       __ehhandler$?_Tidy@?$vector@PAVDisplayableObject@@V?$allocator@PAVDisplayableObject@@@std@@@std@@AAEXXZ 00400000 f   BaseEngine.obj
 0001:fffff000       __unwindfunclet$??$?6U?$char_traits@D@std@@@std@@YAAAV?$basic_ostream@DU?$char_traits@D@std@@@0@AAV10@PBD@Z$2 00400000 f   BaseEngine.obj
 0001:fffff000       __unwindfunclet$??$_Construct_n_copies_of_ty@U_Value_init_tag@std@@@?$vector@PAVDisplayableObject@@V?$allocator@PAVDisplayableObject@@@std@@@std@@AAEXIABU_Value_init_tag@1@@Z$0 00400000 f   BaseEngine.obj
 0001:fffff000       __unwindfunclet$??$_Uninitialized_value_construct_n@V?$allocator@PAVDisplayableObject@@@std@@@std@@YAPAPAVDisplayableObject@@PAPAV1@IAAV?$allocator@PAVDisplayableObject@@@0@@Z$0 00400000 f   BaseEngine.obj
 0001:fffff000       __unwindfunclet$??0sentry@?$basic_ostream@DU?$char_traits@D@std@@@std@@QAE@AAV12@@Z$0 00400000 f   BaseEngine.obj
 0002:fffa7000       __unwindtable$??$_Construct_n_copies_of_ty@U_Value_init_tag@std@@@?$vector@PAVDisplayableObject@@V?$allocator@PAVDisplayableObject@@@std@@@std@@AAEXIABU_Value_init_tag@1@@Z 00400000     BaseEngine.obj
 0002:fffa7000       __unwindtable$??$_Uninitialized_value_construct_n@V?$allocator@PAVDisplayableObject@@@std@@@std@@YAPAPAVDisplayableObject@@PAPAV1@IAAV?$allocator@PAVDisplayableObject@@@0@@Z 00400000     BaseEngine.obj
 0002:fffa7000       __unwindtable$??0sentry@?$basic_ostream@DU?$char_traits@D@std@@@std@@QAE@AAV12@@Z 00400000     BaseEngine.obj
 0000:fff8b000       _volmd                     00400000     BaseEngine.obj
 0000:fff8b000       _volmd                     00400000     BaseEngine.obj
 0000:fff8b000       _volmd                     00400000     BaseEngine.obj
 0000:fff8b000       _volmd                     00400000     BaseEngine.obj
 0000:fff8b000       _volmd                     00400000     BaseEngine.obj
 0000:fff8b000       _volmd                     00400000     BaseEngine.obj
 0000:fff8b000       _volmd                     00400000     BaseEngine.obj
 0000:fff8b000       _volmd                     00400000     BaseEngine.obj
 0000:fff8b000       _volmd                     00400000     BaseEngine.obj
 0000:fff8b000       _volmd                     00400000     BaseEngine.obj
 0000:fff8b000       _volmd                     00400000     BaseEngine.obj
 0000:fff8b000       _volmd                     00400000     BaseEngine.obj
 0000:fff8b000       _volmd                     00400000     BaseEngine.obj
 0000:fff8b000       _volmd                     00400000     BaseEngine.obj
 0000:fff8b000       _volmd                     00400000     BaseEngine.obj
 0000:fff8b000       _volmd                     00400000     BaseEngine.obj
 0000:fff8b000       _volmd                     00400000     BaseEngine.obj
 0002:fffa7000       __catchsym$??$?6U?$char_traits@D@std@@@std@@YAAAV?$basic_ostream@DU?$char_traits@D@std@@@0@AAV10@PBD@Z$3 00400000     BouncingBall.obj
 0002:fffa7000       __ehfuncinfo$??1_Sentry_base@?$basic_ostream@DU?$char_traits@D@std@@@std@@QAE@XZ 00400000     BouncingBall.obj
 0002:fffa7000       __ehfuncinfo$??1sentry@?$basic_ostream@DU?$char_traits@D@std@@@std@@QAE@XZ 00400000     BouncingBall.obj
 0001:fffff000       __ehhandler$??1_Sentry_base@?$basic_ostream@DU?$char_traits@D@std@@@std@@QAE@XZ 00400000 f   BouncingBall.obj
 0001:fffff000       __ehhandler$??1sentry@?$basic_ostream@DU?$char_traits@D@std@@@std@@QAE@XZ 00400000 f   BouncingBall.obj
 0001:fffff000       __unwindfunclet$??$?6U?$char_traits@D@std@@@std@@YAAAV?$basic_ostream@DU?$char_traits@D@std@@@0@AAV10@PBD@Z$2 00400000 f   BouncingBall.obj
 0001:fffff000       __unwindfunclet$??0sentry@?$basic_ostream@DU?$char_traits@D@std@@@std@@QAE@AAV12@@Z$0 00400000 f   BouncingBall.obj
 0002:fffa7000       __unwindtable$??0sentry@?$basic_ostream@DU?$char_traits@D@std@@@std@@QAE@AAV12@@Z 00400000     BouncingBall.obj
 0000:fff8b000       _volmd                     00400000     BouncingBall.obj
 0000:fff8b000       _volmd                     00400000     BouncingBall.obj
 0000:fff8b000       _volmd                     00400000     BouncingBall.obj
 0000:fff8b000       _volmd                     00400000     BouncingBall.obj
 0000:fff8b000       _volmd                     00400000     BouncingBall.obj
 0002:fffa7000       __catchsym$??$?6U?$char_traits@D@std@@@std@@YAAAV?$basic_ostream@DU?$char_traits@D@std@@@0@AAV10@PBD@Z$3 00400000     BouncingBallMain.obj
 0002:fffa7000       __catchsym$??$_Insert_string@DU?$char_traits@D@std@@I@std@@YAAAV?$basic_ostream@DU?$char_traits@D@std@@@0@AAV10@QBDI@Z$3 00400000     BouncingBallMain.obj
 0002:fffa7000       __catchsym$??$_Resize_reallocate@U_Value_init_tag@std@@@?$vector@PAVDisplayableObject@@V?$allocator@PAVDisplayableObject@@@std@@@std@@AAEXIABU_Value_init_tag@1@@Z$2 00400000     BouncingBallMain.obj
 0002:fffa7000       __ehfuncinfo$??$_Deallocate@$07$0A@@std@@YAXPAXI@Z 00400000     BouncingBallMain.obj
 0002:fffa7000       __ehfuncinfo$??$_Deallocate_plain@V?$allocator@U_Container_proxy@std@@@std@@@std@@YAXAAV?$allocator@U_Container_proxy@std@@@0@QAU_Container_proxy@0@@Z 00400000     BouncingBallMain.obj
 0002:fffa7000       __ehfuncinfo$??$_Freenode0@V?$allocator@U?$_Tree_node@U?$pair@$$CBV?$basic_string@DU?$char_traits@D@std@@V?$allocator@D@2@@std@@V?$weak_ptr@VRawImageData@@@2@@std@@PAX@std@@@std@@@?$_Tree_node@U?$pair@$$CBV?$basic_string@DU?$char_traits@D@std@@V?$allocator@D@2@@std@@V?$weak_ptr@VRawImageData@@@2@@std@@PAX@std@@SAXAAV?$allocator@U?$_Tree_node@U?$pair@$$CBV?$basic_string@DU?$char_traits@D@std@@V?$allocator@D@2@@std@@V?$weak_ptr@VRawImageData@@@2@@std@@PAX@std@@@1@PAU01@@Z 00400000     BouncingBallMain.obj
 0002:fffa7000       __ehfuncinfo$??$_Freenode@V?$allocator@U?$_Tree_node@U?$pair@$$CBV?$basic_string@DU?$char_traits@D@std@@V?$allocator@D@2@@std@@V?$weak_ptr@VRawImageData@@@2@@std@@PAX@std@@@std@@@?$_Tree_node@U?$pair@$$CBV?$basic_string@DU?$char_traits@D@std@@V?$allocator@D@2@@std@@V?$weak_ptr@VRawImageData@@@2@@std@@PAX@std@@SAXAAV?$allocator@U?$_Tree_node@U?$pair@$$CBV?$basic_string@DU?$char_traits@D@std@@V?$allocator@D@2@@std@@V?$weak_ptr@VRawImageData@@@2@@std@@PAX@std@@@1@PAU01@@Z 00400000     BouncingBallMain.obj
 0002:fffa7000       __ehfuncinfo$??0?$basic_string@DU?$char_traits@D@std@@V?$allocator@D@2@@std@@QAE@$$QAV01@@Z 00400000     BouncingBallMain.obj
 0002:fffa7000       __ehfuncinfo$??1?$_Alloc_construct_ptr@V?$allocator@U?$_Tree_node@U?$pair@$$CBV?$basic_string@DU?$char_traits@D@std@@V?$allocator@D@2@@std@@V?$shared_ptr@VRawImageData@@@2@@std@@PAX@std@@@std@@@std@@QAE@XZ 00400000     BouncingBallMain.obj
 0002:fffa7000       __ehfuncinfo$??1?$_Alloc_construct_ptr@V?$allocator@U?$_Tree_node@U?$pair@$$CBV?$basic_string@DU?$char_traits@D@std@@V?$allocator@D@2@@std@@V?$weak_ptr@VRawImageData@@@2@@std@@PAX@std@@@std@@@std@@QAE@XZ 00400000     BouncingBallMain.obj
 0002:fffa7000       __ehfuncinfo$??1?$_Tree_temp_node@V?$allocator@U?$_Tree_node@U?$pair@$$CBV?$basic_string@DU?$char_traits@D@std@@V?$allocator@D@2@@std@@V?$shared_ptr@VRawImageData@@@2@@std@@PAX@std@@@std@@@std@@QAE@XZ 00400000     BouncingBallMain.obj
 0002:fffa7000       __ehfuncinfo$??1?$_Tree_temp_node@V?$allocator@U?$_Tree_node@U?$pair@$$CBV?$basic_string@DU?$char_traits@D@std@@V?$allocator@D@2@@std@@V?$weak_ptr@VRawImageData@@@2@@std@@PAX@std@@@std@@@std@@QAE@XZ 00400000     BouncingBallMain.obj
 0002:fffa7000       __ehfuncinfo$??1RawImageData@@QAE@XZ 00400000     BouncingBallMain.obj
 0002:fffa7000       __ehfuncinfo$??1_Sentry_base@?$basic_ostream@DU?$char_traits@D@std@@@std@@QAE@XZ 00400000     BouncingBallMain.obj
 0002:fffa7000       __ehfuncinfo$??1sentry@?$basic_ostream@DU?$char_traits@D@std@@@std@@QAE@XZ 00400000     BouncingBallMain.obj
 0002:fffa7000       __ehfuncinfo$?_Take_contents@?$basic_string@DU?$char_traits@D@std@@V?$allocator@D@2@@std@@AAEXAAV12@@Z 00400000     BouncingBallMain.obj
 0002:fffa7000       __ehfuncinfo$?_Tidy_deallocate@?$basic_string@DU?$char_traits@D@std@@V?$allocator@D@2@@std@@AAEXXZ 00400000     BouncingBallMain.obj
 0002:fffa7000       __ehfuncinfo$?getImagePtrbyURL@ImageManager@@QAE?AV?$shared_ptr@VRawImageData@@@std@@V?$basic_string@DU?$char_traits@D@std@@V?$allocator@D@2@@3@_N1@Z 00400000     BouncingBallMain.obj
 0001:fffff000       __ehhandler$??$_Deallocate@$07$0A@@std@@YAXPAXI@Z 00400000 f   BouncingBallMain.obj
 0001:fffff000       __ehhandler$??$_Deallocate_plain@V?$allocator@U_Container_proxy@std@@@std@@@std@@YAXAAV?$allocator@U_Container_proxy@std@@@0@QAU_Container_proxy@0@@Z 00400000 f   BouncingBallMain.obj
 0001:fffff000       __ehhandler$??$_Freenode0@V?$allocator@U?$_Tree_node@U?$pair@$$CBV?$basic_string@DU?$char_traits@D@std@@V?$allocator@D@2@@std@@V?$weak_ptr@VRawImageData@@@2@@std@@PAX@std@@@std@@@?$_Tree_node@U?$pair@$$CBV?$basic_string@DU?$char_traits@D@std@@V?$allocator@D@2@@std@@V?$weak_ptr@VRawImageData@@@2@@std@@PAX@std@@SAXAAV?$allocator@U?$_Tree_node@U?$pair@$$CBV?$basic_string@DU?$char_traits@D@std@@V?$allocator@D@2@@std@@V?$weak_ptr@VRawImageData@@@2@@std@@PAX@std@@@1@PAU01@@Z 00400000 f   BouncingBallMain.obj
 0001:fffff000       __ehhandler$??$_Freenode@V?$allocator@U?$_Tree_node@U?$pair@$$CBV?$basic_string@DU?$char_traits@D@std@@V?$allocator@D@2@@std@@V?$weak_ptr@VRawImageData@@@2@@std@@PAX@std@@@std@@@?$_Tree_node@U?$pair@$$CBV?$basic_string@DU?$char_traits@D@std@@V?$allocator@D@2@@std@@V?$weak_ptr@VRawImageData@@@2@@std@@PAX@std@@SAXAAV?$allocator@U?$_Tree_node@U?$pair@$$CBV?$basic_string@DU?$char_traits@D@std@@V?$allocator@D@2@@std@@V?$weak_ptr@VRawImageData@@@2@@std@@PAX@std@@@1@PAU01@@Z 00400000 f   BouncingBallMain.obj
 0001:fffff000       __ehhandler$??$_Resize_reallocate@U_Value_init_tag@std@@@?$vector@PAVDisplayableObject@@V?$allocator@PAVDisplayableObject@@@std@@@std@@AAEXIABU_Value_init_tag@1@@Z 00400000 f   BouncingBallMain.obj
 0001:fffff000       __ehhandler$??0?$basic_string@DU?$char_traits@D@std@@V?$allocator@D@2@@std@@QAE@$$QAV01@@Z 00400000 f   BouncingBallMain.obj
 0001:fffff000       __ehhandler$??1?$_Alloc_construct_ptr@V?$allocator@U?$_Tree_node@U?$pair@$$CBV?$basic_string@DU?$char_traits@D@std@@V?$allocator@D@2@@std@@V?$shared_ptr@VRawImageData@@@2@@std@@PAX@std@@@std@@@std@@QAE@XZ 00400000 f   BouncingBallMain.obj
 0001:fffff000       __ehhandler$??1?$_Alloc_construct_ptr@V?$allocator@U?$_Tree_node@U?$pair@$$CBV?$basic_string@DU?$char_traits@D@std@@V?$allocator@D@2@@std@@V?$weak_ptr@VRawImageData@@@2@@std@@PAX@std@@@std@@@std@@QAE@XZ 00400000 f   BouncingBallMain.obj
 0001:fffff000       __ehhandler$??1?$_Tree_temp_node@V?$allocator@U?$_Tree_node@U?$pair@$$CBV?$basic_string@DU?$char_traits@D@std@@V?$allocator@D@2@@std@@V?$shared_ptr@VRawImageData@@@2@@std@@PAX@std@@@std@@@std@@QAE@XZ 00400000 f   BouncingBallMain.obj
 0001:fffff000       __ehhandler$??1?$_Tree_temp_node@V?$allocator@U?$_Tree_node@U?$pair@$$CBV?$basic_string@DU?$char_traits@D@std@@V?$allocator@D@2@@std@@V?$weak_ptr@VRawImageData@@@2@@std@@PAX@std@@@std@@@std@@QAE@XZ 00400000 f   BouncingBallMain.obj
 0001:fffff000       __ehhandler$??1RawImageData@@QAE@XZ 00400000 f   BouncingBallMain.obj
 0001:fffff000       __ehhandler$??1_Sentry_base@?$basic_ostream@DU?$char_traits@D@std@@@std@@QAE@XZ 00400000 f   BouncingBallMain.obj
 0001:fffff000       __ehhandler$??1sentry@?$basic_ostream@DU?$char_traits@D@std@@@std@@QAE@XZ 00400000 f   BouncingBallMain.obj
 0001:fffff000       __ehhandler$?_Take_contents@?$basic_string@DU?$char_traits@D@std@@V?$allocator@D@2@@std@@AAEXAAV12@@Z 00400000 f   BouncingBallMain.obj
 0001:fffff000       __ehhandler$?_Tidy_deallocate@?$basic_string@DU?$char_traits@D@std@@V?$allocator@D@2@@std@@AAEXXZ 00400000 f   BouncingBallMain.obj
 0001:fffff000       __unwindfunclet$??$?0U?$pair@V?$basic_string@DU?$char_traits@D@std@@V?$allocator@D@2@@std@@V?$shared_ptr@VRawImageData@@@2@@std@@@?$_Tree_temp_node@V?$allocator@U?$_Tree_node@U?$pair@$$CBV?$basic_string@DU?$char_traits@D@std@@V?$allocator@D@2@@std@@V?$shared_ptr@VRawImageData@@@2@@std@@PAX@std@@@std@@@std@@QAE@AAV?$allocator@U?$_Tree_node@U?$pair@$$CBV?$basic_string@DU?$char_traits@D@std@@V?$allocator@D@2@@std@@V?$shared_ptr@VRawImageData@@@2@@std@@PAX@std@@@1@PAU?$_Tree_node@U?$pair@$$CBV?$basic_string@DU?$char_traits@D@std@@V?$allocator@D@2@@std@@V?$shared_ptr@VRawImageData@@@2@@std@@PAX@1@$$QAU?$pair@V?$basic_string@DU?$char_traits@D@std@@V?$allocator@D@2@@std@@V?$shared_ptr@VRawImageData@@@2@@1@@Z$0 00400000 f   BouncingBallMain.obj
 0001:fffff000       __unwindfunclet$??$?0U?$pair@V?$basic_string@DU?$char_traits@D@std@@V?$allocator@D@2@@std@@V?$weak_ptr@VRawImageData@@@2@@std@@@?$_Tree_temp_node@V?$allocator@U?$_Tree_node@U?$pair@$$CBV?$basic_string@DU?$char_traits@D@std@@V?$allocator@D@2@@std@@V?$weak_ptr@VRawImageData@@@2@@std@@PAX@std@@@std@@@std@@QAE@AAV?$allocator@U?$_Tree_node@U?$pair@$$CBV?$basic_string@DU?$char_traits@D@std@@V?$allocator@D@2@@std@@V?$weak_ptr@VRawImageData@@@2@@std@@PAX@std@@@1@PAU?$_Tree_node@U?$pair@$$CBV?$basic_string@DU?$char_traits@D@std@@V?$allocator@D@2@@std@@V?$weak_ptr@VRawImageData@@@2@@std@@PAX@1@$$QAU?$pair@V?$basic_string@DU?$char_traits@D@std@@V?$allocator@D@2@@std@@V?$weak_ptr@VRawImageData@@@2@@1@@Z$0 00400000 f   BouncingBallMain.obj
 0001:fffff000       __unwindfunclet$??$?0VRawImageData@@$0A@@?$shared_ptr@VRawImageData@@@std@@QAE@PAVRawImageData@@@Z$0 00400000 f   BouncingBallMain.obj
 0001:fffff000       __unwindfunclet$??$?6U?$char_traits@D@std@@@std@@YAAAV?$basic_ostream@DU?$char_traits@D@std@@@0@AAV10@PBD@Z$2 00400000 f   BouncingBallMain.obj
 0001:fffff000       __unwindfunclet$??$_Insert_string@DU?$char_traits@D@std@@I@std@@YAAAV?$basic_ostream@DU?$char_traits@D@std@@@0@AAV10@QBDI@Z$2 00400000 f   BouncingBallMain.obj
 0001:fffff000       __unwindfunclet$??$_Uninitialized_move@PAPAVDisplayableObject@@V?$allocator@PAVDisplayableObject@@@std@@@std@@YAPAPAVDisplayableObject@@QAPAV1@0PAPAV1@AAV?$allocator@PAVDisplayableObject@@@0@@Z$0 00400000 f   BouncingBallMain.obj
 0001:fffff000       __unwindfunclet$??$_Uninitialized_value_construct_n@V?$allocator@PAVDisplayableObject@@@std@@@std@@YAPAPAVDisplayableObject@@PAPAV1@IAAV?$allocator@PAVDisplayableObject@@@0@@Z$0 00400000 f   BouncingBallMain.obj
 0001:fffff000       __unwindfunclet$??0?$_Tree_temp_node_alloc@V?$allocator@U?$_Tree_node@U?$pair@$$CBV?$basic_string@DU?$char_traits@D@std@@V?$allocator@D@2@@std@@V?$shared_ptr@VRawImageData@@@2@@std@@PAX@std@@@std@@@std@@QAE@AAV?$allocator@U?$_Tree_node@U?$pair@$$CBV?$basic_string@DU?$char_traits@D@std@@V?$allocator@D@2@@std@@V?$shared_ptr@VRawImageData@@@2@@std@@PAX@std@@@1@@Z$0 00400000 f   BouncingBallMain.obj
 0001:fffff000       __unwindfunclet$??0?$_Tree_temp_node_alloc@V?$allocator@U?$_Tree_node@U?$pair@$$CBV?$basic_string@DU?$char_traits@D@std@@V?$allocator@D@2@@std@@V?$weak_ptr@VRawImageData@@@2@@std@@PAX@std@@@std@@@std@@QAE@AAV?$allocator@U?$_Tree_node@U?$pair@$$CBV?$basic_string@DU?$char_traits@D@std@@V?$allocator@D@2@@std@@V?$weak_ptr@VRawImageData@@@2@@std@@PAX@std@@@1@@Z$0 00400000 f   BouncingBallMain.obj
 0001:fffff000       __unwindfunclet$??0?$basic_string@DU?$char_traits@D@std@@V?$allocator@D@2@@std@@QAE@ABV01@@Z$0 00400000 f   BouncingBallMain.obj
 0001:fffff000       __unwindfunclet$??0?$basic_string@DU?$char_traits@D@std@@V?$allocator@D@2@@std@@QAE@QBD@Z$0 00400000 f   BouncingBallMain.obj
 0001:fffff000       __unwindfunclet$??0ImageManager@@QAE@XZ$0 00400000 f   BouncingBallMain.obj
 0001:fffff000       __unwindfunclet$??0RawImageData@@QAE@V?$basic_string@DU?$char_traits@D@std@@V?$allocator@D@2@@std@@@Z$0 00400000 f   BouncingBallMain.obj
 0001:fffff000       __unwindfunclet$??0sentry@?$basic_ostream@DU?$char_traits@D@std@@@std@@QAE@AAV12@@Z$0 00400000 f   BouncingBallMain.obj
 0001:fffff000       __unwindfunclet$?_Alloc_sentinel_and_proxy@?$_Tree@V?$_Tmap_traits@V?$basic_string@DU?$char_traits@D@std@@V?$allocator@D@2@@std@@V?$shared_ptr@VRawImageData@@@2@U?$less@V?$basic_string@DU?$char_traits@D@std@@V?$allocator@D@2@@std@@@2@V?$allocator@U?$pair@$$CBV?$basic_string@DU?$char_traits@D@std@@V?$allocator@D@2@@std@@V?$shared_ptr@VRawImageData@@@2@@std@@@2@$0A@@std@@@std@@IAEXXZ$0 00400000 f   BouncingBallMain.obj
 0001:fffff000       __unwindfunclet$?_Alloc_sentinel_and_proxy@?$_Tree@V?$_Tmap_traits@V?$basic_string@DU?$char_traits@D@std@@V?$allocator@D@2@@std@@V?$weak_ptr@VRawImageData@@@2@U?$less@V?$basic_string@DU?$char_traits@D@std@@V?$allocator@D@2@@std@@@2@V?$allocator@U?$pair@$$CBV?$basic_string@DU?$char_traits@D@std@@V?$allocator@D@2@@std@@V?$weak_ptr@VRawImageData@@@2@@std@@@2@$0A@@std@@@std@@IAEXXZ$0 00400000 f   BouncingBallMain.obj
 0001:fffff000       __unwindfunclet$?_Orphan_range_locked@?$vector@PAVDisplayableObject@@V?$allocator@PAVDisplayableObject@@@std@@@std@@ABEXPAPAVDisplayableObject@@0@Z$0 00400000 f   BouncingBallMain.obj
 0001:fffff000       __unwindfunclet$?get@ImageManager@@SAPAV1@XZ$0 00400000 f   BouncingBallMain.obj
 0001:fffff000       __unwindfunclet$?getImagePtrbyURL@ImageManager@@QAE?AV?$shared_ptr@VRawImageData@@@std@@V?$basic_string@DU?$char_traits@D@std@@V?$allocator@D@2@@3@_N1@Z$0 00400000 f   BouncingBallMain.obj
 0001:fffff000       __unwindfunclet$?getImagebyURL@ImageManager@@QAE?AVSimpleImage@@V?$basic_string@DU?$char_traits@D@std@@V?$allocator@D@2@@std@@_N1@Z$0 00400000 f   BouncingBallMain.obj
 0001:fffff000       __unwindfunclet$?loadAsNew@ImageManager@@QAE?AV?$shared_ptr@VRawImageData@@@std@@V?$basic_string@DU?$char_traits@D@std@@V?$allocator@D@2@@3@@Z$0 00400000 f   BouncingBallMain.obj
 0001:fffff000       __unwindfunclet$?loadImage@RawImageData@@QAE_NV?$basic_string@DU?$char_traits@D@std@@V?$allocator@D@2@@std@@HHHHH_N@Z$0 00400000 f   BouncingBallMain.obj
 0002:fffa7000       __unwindtable$??$?0U?$pair@V?$basic_string@DU?$char_traits@D@std@@V?$allocator@D@2@@std@@V?$shared_ptr@VRawImageData@@@2@@std@@@?$_Tree_temp_node@V?$allocator@U?$_Tree_node@U?$pair@$$CBV?$basic_string@DU?$char_traits@D@std@@V?$allocator@D@2@@std@@V?$shared_ptr@VRawImageData@@@2@@std@@PAX@std@@@std@@@std@@QAE@AAV?$allocator@U?$_Tree_node@U?$pair@$$CBV?$basic_string@DU?$char_traits@D@std@@V?$allocator@D@2@@std@@V?$shared_ptr@VRawImageData@@@2@@std@@PAX@std@@@1@PAU?$_Tree_node@U?$pair@$$CBV?$basic_string@DU?$char_traits@D@std@@V?$allocator@D@2@@std@@V?$shared_ptr@VRawImageData@@@2@@std@@PAX@1@$$QAU?$pair@V?$basic_string@DU?$char_traits@D@std@@V?$allocator@D@2@@std@@V?$shared_ptr@VRawImageData@@@2@@1@@Z 00400000     BouncingBallMain.obj
 0002:fffa7000       __unwindtable$??$?0U?$pair@V?$basic_string@DU?$char_traits@D@std@@V?$allocator@D@2@@std@@V?$weak_ptr@VRawImageData@@@2@@std@@@?$_Tree_temp_node@V?$allocator@U?$_Tree_node@U?$pair@$$CBV?$basic_string@DU?$char_traits@D@std@@V?$allocator@D@2@@std@@V?$weak_ptr@VRawImageData@@@2@@std@@PAX@std@@@std@@@std@@QAE@AAV?$allocator@U?$_Tree_node@U?$pair@$$CBV?$basic_string@DU?$char_traits@D@std@@V?$allocator@D@2@@std@@V?$weak_ptr@VRawImageData@@@2@@std@@PAX@std@@@1@PAU?$_Tree_node@U?$pair@$$CBV?$basic_string@DU?$char_traits@D@std@@V?$allocator@D@2@@std@@V?$weak_ptr@VRawImageData@@@2@@std@@PAX@1@$$QAU?$pair@V?$basic_string@DU?$char_traits@D@std@@V?$allocator@D@2@@std@@V?$weak_ptr@VRawImageData@@@2@@1@@Z 00400000     BouncingBallMain.obj
 0002:fffa7000       __unwindtable$??$?0VRawImageData@@$0A@@?$shared_ptr@VRawImageData@@@std@@QAE@PAVRawImageData@@@Z 00400000     BouncingBallMain.obj
 0002:fffa7000       __unwindtable$??$_Uninitialized_move@PAPAVDisplayableObject@@V?$allocator@PAVDisplayableObject@@@std@@@std@@YAPAPAVDisplayableObject@@QAPAV1@0PAPAV1@AAV?$allocator@PAVDisplayableObject@@@0@@Z 00400000     BouncingBallMain.obj
 0002:fffa7000       __unwindtable$??$_Uninitialized_value_construct_n@V?$allocator@PAVDisplayableObject@@@std@@@std@@YAPAPAVDisplayableObject@@PAPAV1@IAAV?$allocator@PAVDisplayableObject@@@0@@Z 00400000     BouncingBallMain.obj
 0002:fffa7000       __unwindtable$??0?$_Tree_temp_node_alloc@V?$allocator@U?$_Tree_node@U?$pair@$$CBV?$basic_string@DU?$char_traits@D@std@@V?$allocator@D@2@@std@@V?$shared_ptr@VRawImageData@@@2@@std@@PAX@std@@@std@@@std@@QAE@AAV?$allocator@U?$_Tree_node@U?$pair@$$CBV?$basic_string@DU?$char_traits@D@std@@V?$allocator@D@2@@std@@V?$shared_ptr@VRawImageData@@@2@@std@@PAX@std@@@1@@Z 00400000     BouncingBallMain.obj
 0002:fffa7000       __unwindtable$??0?$_Tree_temp_node_alloc@V?$allocator@U?$_Tree_node@U?$pair@$$CBV?$basic_string@DU?$char_traits@D@std@@V?$allocator@D@2@@std@@V?$weak_ptr@VRawImageData@@@2@@std@@PAX@std@@@std@@@std@@QAE@AAV?$allocator@U?$_Tree_node@U?$pair@$$CBV?$basic_string@DU?$char_traits@D@std@@V?$allocator@D@2@@std@@V?$weak_ptr@VRawImageData@@@2@@std@@PAX@std@@@1@@Z 00400000     BouncingBallMain.obj
 0002:fffa7000       __unwindtable$??0?$basic_string@DU?$char_traits@D@std@@V?$allocator@D@2@@std@@QAE@ABV01@@Z 00400000     BouncingBallMain.obj
 0002:fffa7000       __unwindtable$??0?$basic_string@DU?$char_traits@D@std@@V?$allocator@D@2@@std@@QAE@QBD@Z 00400000     BouncingBallMain.obj
 0002:fffa7000       __unwindtable$??0ImageManager@@QAE@XZ 00400000     BouncingBallMain.obj
 0002:fffa7000       __unwindtable$??0RawImageData@@QAE@V?$basic_string@DU?$char_traits@D@std@@V?$allocator@D@2@@std@@@Z 00400000     BouncingBallMain.obj
 0002:fffa7000       __unwindtable$??0sentry@?$basic_ostream@DU?$char_traits@D@std@@@std@@QAE@AAV12@@Z 00400000     BouncingBallMain.obj
 0002:fffa7000       __unwindtable$?_Alloc_sentinel_and_proxy@?$_Tree@V?$_Tmap_traits@V?$basic_string@DU?$char_traits@D@std@@V?$allocator@D@2@@std@@V?$shared_ptr@VRawImageData@@@2@U?$less@V?$basic_string@DU?$char_traits@D@std@@V?$allocator@D@2@@std@@@2@V?$allocator@U?$pair@$$CBV?$basic_string@DU?$char_traits@D@std@@V?$allocator@D@2@@std@@V?$shared_ptr@VRawImageData@@@2@@std@@@2@$0A@@std@@@std@@IAEXXZ 00400000     BouncingBallMain.obj
 0002:fffa7000       __unwindtable$?_Alloc_sentinel_and_proxy@?$_Tree@V?$_Tmap_traits@V?$basic_string@DU?$char_traits@D@std@@V?$allocator@D@2@@std@@V?$weak_ptr@VRawImageData@@@2@U?$less@V?$basic_string@DU?$char_traits@D@std@@V?$allocator@D@2@@std@@@2@V?$allocator@U?$pair@$$CBV?$basic_string@DU?$char_traits@D@std@@V?$allocator@D@2@@std@@V?$weak_ptr@VRawImageData@@@2@@std@@@2@$0A@@std@@@std@@IAEXXZ 00400000     BouncingBallMain.obj
 0002:fffa7000       __unwindtable$?_Orphan_range_locked@?$vector@PAVDisplayableObject@@V?$allocator@PAVDisplayableObject@@@std@@@std@@ABEXPAPAVDisplayableObject@@0@Z 00400000     BouncingBallMain.obj
 0002:fffa7000       __unwindtable$?get@ImageManager@@SAPAV1@XZ 00400000     BouncingBallMain.obj
 0002:fffa7000       __unwindtable$?getImagebyURL@ImageManager@@QAE?AVSimpleImage@@V?$basic_string@DU?$char_traits@D@std@@V?$allocator@D@2@@std@@_N1@Z 00400000     BouncingBallMain.obj
 0002:fffa7000       __unwindtable$?loadAsNew@ImageManager@@QAE?AV?$shared_ptr@VRawImageData@@@std@@V?$basic_string@DU?$char_traits@D@std@@V?$allocator@D@2@@3@@Z 00400000     BouncingBallMain.obj
 0002:fffa7000       __unwindtable$?loadImage@RawImageData@@QAE_NV?$basic_string@DU?$char_traits@D@std@@V?$allocator@D@2@@std@@HHHHH_N@Z 00400000     BouncingBallMain.obj
 0000:fff8b000       _volmd                     00400000     BouncingBallMain.obj
 0000:fff8b000       _volmd                     00400000     BouncingBallMain.obj
 0000:fff8b000       _volmd                     00400000     BouncingBallMain.obj
 0000:fff8b000       _volmd                     00400000     BouncingBallMain.obj
 0000:fff8b000       _volmd                     00400000     BouncingBallMain.obj
 0000:fff8b000       _volmd                     00400000     BouncingBallMain.obj
 0000:fff8b000       _volmd                     00400000     BouncingBallMain.obj
 0000:fff8b000       _volmd                     00400000     BouncingBallMain.obj
 0000:fff8b000       _volmd                     00400000     BouncingBallMain.obj
 0000:fff8b000       _volmd                     00400000     BouncingBallMain.obj
 0000:fff8b000       _volmd                     00400000     BouncingBallMain.obj
 0000:fff8b000       _volmd                     00400000     BouncingBallMain.obj
 0000:fff8b000       _volmd                     00400000     BouncingBallMain.obj
 0000:fff8b000       _volmd                     00400000     BouncingBallMain.obj
 0000:fff8b000       _volmd                     00400000     BouncingBallMain.obj
 0000:fff8b000       _volmd                     00400000     BouncingBallMain.obj
 0000:fff8b000       _volmd                     00400000     BouncingBallMain.obj
 0000:fff8b000       _volmd                     00400000     BouncingBallMain.obj
 0000:fff8b000       _volmd                     00400000     BouncingBallMain.obj
 0000:fff8b000       _volmd                     00400000     BouncingBallMain.obj
 0000:fff8b000       _volmd                     00400000     BouncingBallMain.obj
 0000:fff8b000       _volmd                     00400000     BouncingBallMain.obj
 0000:fff8b000       _volmd                     00400000     BouncingBallMain.obj
 0000:fff8b000       _volmd                     00400000     BouncingBallMain.obj
 0000:fff8b000       _volmd                     00400000     BouncingBallMain.obj
 0000:fff8b000       _volmd                     00400000     BouncingBallMain.obj
 0000:fff8b000       _volmd                     00400000     BouncingBallMain.obj
 0000:fff8b000       _volmd                     00400000     BouncingBallMain.obj
 0000:fff8b000       _volmd                     00400000     BouncingBallMain.obj
 0000:fff8b000       _volmd                     00400000     BouncingBallMain.obj
 0000:fff8b000       _volmd                     00400000     BouncingBallMain.obj
 0000:fff8b000       _volmd                     00400000     BouncingBallMain.obj
 0000:fff8b000       _volmd                     00400000     BouncingBallMain.obj
 0000:fff8b000       _volmd                     00400000     BouncingBallMain.obj
 0000:fff8b000       _volmd                     00400000     BouncingBallMain.obj
 0000:fff8b000       _volmd                     00400000     BouncingBallMain.obj
 0000:fff8b000       _volmd                     00400000     BouncingBallMain.obj
 0000:fff8b000       _volmd                     00400000     BouncingBallMain.obj
 0000:fff8b000       _volmd                     00400000     BouncingBallMain.obj
 0000:fff8b000       _volmd                     00400000     BouncingBallMain.obj
 0000:fff8b000       _volmd                     00400000     BouncingBallMain.obj
 0000:fff8b000       _volmd                     00400000     BouncingBallMain.obj
 0000:fff8b000       _volmd                     00400000     BouncingBallMain.obj
 0000:fff8b000       _volmd                     00400000     BouncingBallMain.obj
 0000:fff8b000       _volmd                     00400000     BouncingBallMain.obj
 0000:fff8b000       _volmd                     00400000     CW2Creature.obj
 0000:fff8b000       _volmd                     00400000     CW2Creature.obj
 0000:fff8b000       _volmd                     00400000     CW2Creature.obj
 0000:fff8b000       _volmd                     00400000     CW2Creature.obj
 0000:fff8b000       _volmd                     00400000     CW2Creature.obj
 0000:fff8b000       _volmd                     00400000     CW2Creature.obj
 0000:fff8b000       _volmd                     00400000     CW2Creature.obj
 0000:fff8b000       _volmd                     00400000     CW2Creature.obj
 0000:fff8b000       _volmd                     00400000     CW2Creature.obj
 0000:fff8b000       _volmd                     00400000     CW2Creature.obj
 0000:fff8b000       _volmd                     00400000     CW2Creature.obj
 0000:fff8b000       _volmd                     00400000     CW2Creature.obj
 0000:fff8b000       _volmd                     00400000     CW2Creature.obj
 0000:fff8b000       _volmd                     00400000     CW2Creature.obj
 0000:fff8b000       _volmd                     00400000     CW2Creature.obj
 0000:fff8b000       _volmd                     00400000     CW2Creature.obj
 0000:fff8b000       _volmd                     00400000     CW2Creature.obj
 0000:fff8b000       _volmd                     00400000     CW2Creature.obj
 0000:fff8b000       _volmd                     00400000     CW2Creature.obj
 0000:fff8b000       _volmd                     00400000     CW2Creature.obj
 0000:fff8b000       _volmd                     00400000     CW2Creature.obj
 0000:fff8b000       _volmd                     00400000     CW2Creature.obj
 0000:fff8b000       _volmd                     00400000     CW2Creature.obj
 0000:fff8b000       _volmd                     00400000     CW2Creature.obj
 0000:fff8b000       _volmd                     00400000     CW2Creature.obj
 0000:fff8b000       _volmd                     00400000     CW2Creature.obj
 0000:fff8b000       _volmd                     00400000     CW2Creature.obj
 0000:fff8b000       _volmd                     00400000     CW2Creature.obj
 0000:fff8b000       _volmd                     00400000     CW2Creature.obj
 0000:fff8b000       _volmd                     00400000     CW2Creature.obj
 0000:fff8b000       _volmd                     00400000     CW2Creature.obj
 0000:fff8b000       _volmd                     00400000     CW2Creature.obj
 0000:fff8b000       _volmd                     00400000     CW2Creature.obj
 0000:fff8b000       _volmd                     00400000     CW2Creature.obj
 0000:fff8b000       _volmd                     00400000     CW2Creature.obj
 0000:fff8b000       _volmd                     00400000     CW2Creature.obj
 0000:fff8b000       _volmd                     00400000     CW2Creature.obj
 0000:fff8b000       _volmd                     00400000     CW2Creature.obj
 0000:fff8b000       _volmd                     00400000     CW2Creature.obj
 0000:fff8b000       _volmd                     00400000     CW2Creature.obj
 0000:fff8b000       _volmd                     00400000     CW2Creature.obj
 0000:fff8b000       _volmd                     00400000     CW2Creature.obj
 0000:fff8b000       _volmd                     00400000     CW2Creature.obj
 0000:fff8b000       _volmd                     00400000     CW2Creature.obj
 0000:fff8b000       _volmd                     00400000     CW2Creature.obj
 0000:fff8b000       _volmd                     00400000     CW2Creature.obj
 0000:fff8b000       _volmd                     00400000     CW2Creature.obj
 0000:fff8b000       _volmd                     00400000     CW2Creature.obj
 0000:fff8b000       _volmd                     00400000     CW2Creature.obj
 0000:fff8b000       _volmd                     00400000     CW2Creature.obj
 0000:fff8b000       _volmd                     00400000     CW2Creature.obj
 0000:fff8b000       _volmd                     00400000     CW2Creature.obj
 0000:fff8b000       _volmd                     00400000     CW2Creature.obj
 0000:fff8b000       _volmd                     00400000     CW2Creature.obj
 0000:fff8b000       _volmd                     00400000     CW2Creature.obj
 0000:fff8b000       _volmd                     00400000     CW2Creature.obj
 0000:fff8b000       _volmd                     00400000     CW2Creature.obj
 0000:fff8b000       _volmd                     00400000     CW2Creature.obj
 0000:fff8b000       _volmd                     00400000     CW2Creature.obj
 0000:fff8b000       _volmd                     00400000     CW2Creature.obj
 0000:fff8b000       _volmd                     00400000     CW2Creature.obj
 0000:fff8b000       _volmd                     00400000     CW2Creature.obj
 0000:fff8b000       _volmd                     00400000     CW2Creature.obj
 0000:fff8b000       _volmd                     00400000     CW2Creature.obj
 0000:fff8b000       _volmd                     00400000     CW2Creature.obj
 0000:fff8b000       _volmd                     00400000     CW2Creature.obj
 0000:fff8b000       _volmd                     00400000     CW2Creature.obj
 0002:fffa7000       __catchsym$??$?6U?$char_traits@D@std@@@std@@YAAAV?$basic_ostream@DU?$char_traits@D@std@@@0@AAV10@PBD@Z$3 00400000     CW2Engine.obj
 0002:fffa7000       __ehfuncinfo$??$_Deallocate@$07$0A@@std@@YAXPAXI@Z 00400000     CW2Engine.obj
 0002:fffa7000       __ehfuncinfo$??$_Deallocate_plain@V?$allocator@U_Container_proxy@std@@@std@@@std@@YAXAAV?$allocator@U_Container_proxy@std@@@0@QAU_Container_proxy@0@@Z 00400000     CW2Engine.obj
 0002:fffa7000       __ehfuncinfo$??1_Sentry_base@?$basic_ostream@DU?$char_traits@D@std@@@std@@QAE@XZ 00400000     CW2Engine.obj
 0002:fffa7000       __ehfuncinfo$??1sentry@?$basic_ostream@DU?$char_traits@D@std@@@std@@QAE@XZ 00400000     CW2Engine.obj
 0002:fffa7000       __ehfuncinfo$?_Tidy@?$vector@PAVDisplayableObject@@V?$allocator@PAVDisplayableObject@@@std@@@std@@AAEXXZ 00400000     CW2Engine.obj
 0001:fffff000       __ehhandler$??$_Deallocate@$07$0A@@std@@YAXPAXI@Z 00400000 f   CW2Engine.obj
 0001:fffff000       __ehhandler$??$_Deallocate_plain@V?$allocator@U_Container_proxy@std@@@std@@@std@@YAXAAV?$allocator@U_Container_proxy@std@@@0@QAU_Container_proxy@0@@Z 00400000 f   CW2Engine.obj
 0001:fffff000       __ehhandler$??1_Sentry_base@?$basic_ostream@DU?$char_traits@D@std@@@std@@QAE@XZ 00400000 f   CW2Engine.obj
 0001:fffff000       __ehhandler$??1sentry@?$basic_ostream@DU?$char_traits@D@std@@@std@@QAE@XZ 00400000 f   CW2Engine.obj
